
gxemul/vmlinux:     file format elf32-tradbigmips

Disassembly of section .except_vec3:

80000080 <except_vec3>:
80000080:	401b6800 	mfc0	k1,$13
80000084:	3c1a8001 	lui	k0,0x8001
80000088:	275a6f00 	addiu	k0,k0,28416
8000008c:	337b007c 	andi	k1,k1,0x7c
80000090:	035bd021 	addu	k0,k0,k1
80000094:	8f5a0000 	lw	k0,0(k0)
80000098:	00000000 	nop
8000009c:	03400008 	jr	k0
800000a0:	00000000 	nop
Disassembly of section .text:

80010000 <_start>:
80010000:	40806000 	mtc0	zero,$12
80010004:	00000000 	nop
80010008:	40809000 	mtc0	zero,$18
8001000c:	00000000 	nop
80010010:	40809800 	mtc0	zero,$19
80010014:	00000000 	nop
80010018:	40088000 	mfc0	t0,$16
8001001c:	2401fff8 	li	at,-8
80010020:	01014024 	and	t0,t0,at
80010024:	35080002 	ori	t0,t0,0x2
80010028:	40888000 	mtc0	t0,$16
8001002c:	3c1d8040 	lui	sp,0x8040
80010030:	3c088040 	lui	t0,0x8040
80010034:	3c018001 	lui	at,0x8001
80010038:	0c004078 	jal	800101e0 <main>
8001003c:	ac286fa0 	sw	t0,28576(at)

80010040 <loop>:
80010040:	08004010 	j	80010040 <loop>
80010044:	00000000 	nop
	...

80010050 <mips_init>:
80010050:	27bdffe8 	addiu	sp,sp,-24
80010054:	afbf0010 	sw	ra,16(sp)
80010058:	3c048001 	lui	a0,0x8001
8001005c:	0c004c9a 	jal	80013268 <printf>
80010060:	24845c98 	addiu	a0,a0,23704
80010064:	0c004e44 	jal	80013910 <mips_detect_memory>
80010068:	00000000 	nop
8001006c:	0c004ef8 	jal	80013be0 <mips_vm_init>
80010070:	00000000 	nop
80010074:	0c004f57 	jal	80013d5c <page_init>
80010078:	00000000 	nop
8001007c:	0c00411e 	jal	80010478 <env_init>
80010080:	00000000 	nop
80010084:	0c0043cf 	jal	80010f3c <env_check>
80010088:	00000000 	nop
8001008c:	0c004535 	jal	800114d4 <load_icode_check>
80010090:	00000000 	nop
80010094:	3c048002 	lui	a0,0x8002
80010098:	248428e0 	addiu	a0,a0,10464
8001009c:	3c028002 	lui	v0,0x8002
800100a0:	8c453d94 	lw	a1,15764(v0)
800100a4:	0c0042cc 	jal	80010b30 <env_create_priority>
800100a8:	24060002 	li	a2,2
800100ac:	3c048002 	lui	a0,0x8002
800100b0:	24843da0 	addiu	a0,a0,15776
800100b4:	3c028002 	lui	v0,0x8002
800100b8:	8c455254 	lw	a1,21076(v0)
800100bc:	0c0042cc 	jal	80010b30 <env_create_priority>
800100c0:	24060001 	li	a2,1
800100c4:	3c048001 	lui	a0,0x8001
800100c8:	0c004c9a 	jal	80013268 <printf>
800100cc:	24845cb8 	addiu	a0,a0,23736
800100d0:	0c004de8 	jal	800137a0 <trap_init>
800100d4:	00000000 	nop
800100d8:	3c048001 	lui	a0,0x8001
800100dc:	0c004c9a 	jal	80013268 <printf>
800100e0:	24845cd8 	addiu	a0,a0,23768
800100e4:	0c0049e0 	jal	80012780 <kclock_init>
800100e8:	00000000 	nop
800100ec:	3c048001 	lui	a0,0x8001
800100f0:	0c004c9a 	jal	80013268 <printf>
800100f4:	24845cfc 	addiu	a0,a0,23804
800100f8:	3c048001 	lui	a0,0x8001
800100fc:	24845d1c 	addiu	a0,a0,23836
80010100:	24050022 	li	a1,34
80010104:	3c068001 	lui	a2,0x8001
80010108:	0c004caa 	jal	800132a8 <_panic>
8001010c:	24c65d24 	addiu	a2,a2,23844

80010110 <bcopy>:
80010110:	00c53021 	addu	a2,a2,a1
80010114:	24a20003 	addiu	v0,a1,3
80010118:	0046102b 	sltu	v0,v0,a2
8001011c:	1040000b 	beqz	v0,8001014c <bcopy+0x3c>
80010120:	00a6102b 	sltu	v0,a1,a2
80010124:	00a01821 	move	v1,a1
80010128:	8c820000 	lw	v0,0(a0)
8001012c:	00000000 	nop
80010130:	aca20000 	sw	v0,0(a1)
80010134:	24a50004 	addiu	a1,a1,4
80010138:	24630007 	addiu	v1,v1,7
8001013c:	0066182b 	sltu	v1,v1,a2
80010140:	1460fff8 	bnez	v1,80010124 <bcopy+0x14>
80010144:	24840004 	addiu	a0,a0,4
80010148:	00a6102b 	sltu	v0,a1,a2
8001014c:	10400007 	beqz	v0,8001016c <bcopy+0x5c>
80010150:	00a01821 	move	v1,a1
80010154:	90820000 	lbu	v0,0(a0)
80010158:	00000000 	nop
8001015c:	a0620000 	sb	v0,0(v1)
80010160:	24630001 	addiu	v1,v1,1
80010164:	1466fffb 	bne	v1,a2,80010154 <bcopy+0x44>
80010168:	24840001 	addiu	a0,a0,1
8001016c:	03e00008 	jr	ra
80010170:	00000000 	nop

80010174 <bzero>:
80010174:	30820004 	andi	v0,a0,0x4
80010178:	10400006 	beqz	v0,80010194 <bzero+0x20>
8001017c:	00a42821 	addu	a1,a1,a0
80010180:	a0800000 	sb	zero,0(a0)
80010184:	24840001 	addiu	a0,a0,1
80010188:	30820004 	andi	v0,a0,0x4
8001018c:	1440fffc 	bnez	v0,80010180 <bzero+0xc>
80010190:	00000000 	nop
80010194:	24820003 	addiu	v0,a0,3
80010198:	0045102b 	sltu	v0,v0,a1
8001019c:	10400008 	beqz	v0,800101c0 <bzero+0x4c>
800101a0:	0085102b 	sltu	v0,a0,a1
800101a4:	00801021 	move	v0,a0
800101a8:	ac800000 	sw	zero,0(a0)
800101ac:	24420007 	addiu	v0,v0,7
800101b0:	0045102b 	sltu	v0,v0,a1
800101b4:	1440fffb 	bnez	v0,800101a4 <bzero+0x30>
800101b8:	24840004 	addiu	a0,a0,4
800101bc:	0085102b 	sltu	v0,a0,a1
800101c0:	10400005 	beqz	v0,800101d8 <bzero+0x64>
800101c4:	00801021 	move	v0,a0
800101c8:	a0400000 	sb	zero,0(v0)
800101cc:	24420001 	addiu	v0,v0,1
800101d0:	1445fffd 	bne	v0,a1,800101c8 <bzero+0x54>
800101d4:	00000000 	nop
800101d8:	03e00008 	jr	ra
800101dc:	00000000 	nop

800101e0 <main>:
800101e0:	27bdffe8 	addiu	sp,sp,-24
800101e4:	afbf0010 	sw	ra,16(sp)
800101e8:	3c048001 	lui	a0,0x8001
800101ec:	0c004c9a 	jal	80013268 <printf>
800101f0:	24845d4c 	addiu	a0,a0,23884
800101f4:	0c004014 	jal	80010050 <mips_init>
800101f8:	00000000 	nop
800101fc:	3c048001 	lui	a0,0x8001
80010200:	24845d68 	addiu	a0,a0,23912
80010204:	24050014 	li	a1,20
80010208:	3c068001 	lui	a2,0x8001
8001020c:	0c004caa 	jal	800132a8 <_panic>
80010210:	24c65d70 	addiu	a2,a2,23920
	...

80010220 <printcharc>:
80010220:	308400ff 	andi	a0,a0,0xff
80010224:	3c02b000 	lui	v0,0xb000
80010228:	a0440000 	sb	a0,0(v0)
8001022c:	03e00008 	jr	ra
80010230:	00000000 	nop

80010234 <halt>:
80010234:	3c02b000 	lui	v0,0xb000
80010238:	34420010 	ori	v0,v0,0x10
8001023c:	a0400000 	sb	zero,0(v0)
80010240:	03e00008 	jr	ra
80010244:	00000000 	nop

80010248 <printstr>:
80010248:	27bdffe8 	addiu	sp,sp,-24
8001024c:	afbf0014 	sw	ra,20(sp)
80010250:	afb00010 	sw	s0,16(sp)
80010254:	00808021 	move	s0,a0
80010258:	80840000 	lb	a0,0(a0)
8001025c:	00000000 	nop
80010260:	10800007 	beqz	a0,80010280 <printstr+0x38>
80010264:	00000000 	nop
80010268:	0c004088 	jal	80010220 <printcharc>
8001026c:	26100001 	addiu	s0,s0,1
80010270:	82040000 	lb	a0,0(s0)
80010274:	00000000 	nop
80010278:	1480fffb 	bnez	a0,80010268 <printstr+0x20>
8001027c:	00000000 	nop
80010280:	8fbf0014 	lw	ra,20(sp)
80010284:	8fb00010 	lw	s0,16(sp)
80010288:	03e00008 	jr	ra
8001028c:	27bd0018 	addiu	sp,sp,24

80010290 <asid_alloc>:
80010290:	27bdffe8 	addiu	sp,sp,-24
80010294:	afbf0010 	sw	ra,16(sp)
80010298:	00003021 	move	a2,zero
8001029c:	3c028001 	lui	v0,0x8001
800102a0:	24496ec8 	addiu	t1,v0,28360
800102a4:	24080001 	li	t0,1
800102a8:	24070040 	li	a3,64
800102ac:	00061943 	sra	v1,a2,0x5
800102b0:	00031080 	sll	v0,v1,0x2
800102b4:	00491021 	addu	v0,v0,t1
800102b8:	8c450000 	lw	a1,0(v0)
800102bc:	00c82004 	sllv	a0,t0,a2
800102c0:	00851024 	and	v0,a0,a1
800102c4:	1040000a 	beqz	v0,800102f0 <asid_alloc+0x60>
800102c8:	00031080 	sll	v0,v1,0x2
800102cc:	24c60001 	addiu	a2,a2,1
800102d0:	14c7fff7 	bne	a2,a3,800102b0 <asid_alloc+0x20>
800102d4:	00061943 	sra	v1,a2,0x5
800102d8:	3c048001 	lui	a0,0x8001
800102dc:	24845d88 	addiu	a0,a0,23944
800102e0:	2405002c 	li	a1,44
800102e4:	3c068001 	lui	a2,0x8001
800102e8:	0c004caa 	jal	800132a8 <_panic>
800102ec:	24c65d90 	addiu	a2,a2,23952
800102f0:	3c038001 	lui	v1,0x8001
800102f4:	24636ec8 	addiu	v1,v1,28360
800102f8:	00431021 	addu	v0,v0,v1
800102fc:	00851825 	or	v1,a0,a1
80010300:	ac430000 	sw	v1,0(v0)
80010304:	00c01021 	move	v0,a2
80010308:	8fbf0010 	lw	ra,16(sp)
8001030c:	00000000 	nop
80010310:	03e00008 	jr	ra
80010314:	27bd0018 	addiu	sp,sp,24

80010318 <asid_free>:
80010318:	00042942 	srl	a1,a0,0x5
8001031c:	00052880 	sll	a1,a1,0x2
80010320:	3c028001 	lui	v0,0x8001
80010324:	24426ec8 	addiu	v0,v0,28360
80010328:	00a22821 	addu	a1,a1,v0
8001032c:	24020001 	li	v0,1
80010330:	00821004 	sllv	v0,v0,a0
80010334:	00021027 	nor	v0,zero,v0
80010338:	8ca30000 	lw	v1,0(a1)
8001033c:	00000000 	nop
80010340:	00431024 	and	v0,v0,v1
80010344:	03e00008 	jr	ra
80010348:	aca20000 	sw	v0,0(a1)

8001034c <mkenvid>:
8001034c:	27bdffe8 	addiu	sp,sp,-24
80010350:	afbf0014 	sw	ra,20(sp)
80010354:	afb00010 	sw	s0,16(sp)
80010358:	3c028001 	lui	v0,0x8001
8001035c:	8c426ec0 	lw	v0,28352(v0)
80010360:	00000000 	nop
80010364:	00822023 	subu	a0,a0,v0
80010368:	000420c3 	sra	a0,a0,0x3
8001036c:	000418c0 	sll	v1,a0,0x3
80010370:	00041280 	sll	v0,a0,0xa
80010374:	00431023 	subu	v0,v0,v1
80010378:	00441021 	addu	v0,v0,a0
8001037c:	00028380 	sll	s0,v0,0xe
80010380:	02028023 	subu	s0,s0,v0
80010384:	00108100 	sll	s0,s0,0x4
80010388:	02048021 	addu	s0,s0,a0
8001038c:	00101080 	sll	v0,s0,0x2
80010390:	0c0040a4 	jal	80010290 <asid_alloc>
80010394:	02028021 	addu	s0,s0,v0
80010398:	000212c0 	sll	v0,v0,0xb
8001039c:	02028025 	or	s0,s0,v0
800103a0:	36020400 	ori	v0,s0,0x400
800103a4:	8fbf0014 	lw	ra,20(sp)
800103a8:	8fb00010 	lw	s0,16(sp)
800103ac:	03e00008 	jr	ra
800103b0:	27bd0018 	addiu	sp,sp,24

800103b4 <envid2env>:
800103b4:	14800007 	bnez	a0,800103d4 <envid2env+0x20>
800103b8:	00803821 	move	a3,a0
800103bc:	3c028001 	lui	v0,0x8001
800103c0:	8c426ec4 	lw	v0,28356(v0)
800103c4:	00000000 	nop
800103c8:	aca20000 	sw	v0,0(a1)
800103cc:	03e00008 	jr	ra
800103d0:	00001021 	move	v0,zero
800103d4:	308303ff 	andi	v1,a0,0x3ff
800103d8:	00032080 	sll	a0,v1,0x2
800103dc:	00031140 	sll	v0,v1,0x5
800103e0:	00441023 	subu	v0,v0,a0
800103e4:	00431021 	addu	v0,v0,v1
800103e8:	000210c0 	sll	v0,v0,0x3
800103ec:	3c038001 	lui	v1,0x8001
800103f0:	8c636ec0 	lw	v1,28352(v1)
800103f4:	00000000 	nop
800103f8:	00431821 	addu	v1,v0,v1
800103fc:	8c6200ac 	lw	v0,172(v1)
80010400:	00000000 	nop
80010404:	10400005 	beqz	v0,8001041c <envid2env+0x68>
80010408:	00000000 	nop
8001040c:	8c6200a4 	lw	v0,164(v1)
80010410:	00000000 	nop
80010414:	10e20004 	beq	a3,v0,80010428 <envid2env+0x74>
80010418:	00000000 	nop
8001041c:	aca00000 	sw	zero,0(a1)
80010420:	03e00008 	jr	ra
80010424:	2402fffe 	li	v0,-2
80010428:	24020001 	li	v0,1
8001042c:	14c2000f 	bne	a2,v0,8001046c <envid2env+0xb8>
80010430:	00000000 	nop
80010434:	3c028001 	lui	v0,0x8001
80010438:	8c446ec4 	lw	a0,28356(v0)
8001043c:	00000000 	nop
80010440:	8c8200a4 	lw	v0,164(a0)
80010444:	00000000 	nop
80010448:	10e20008 	beq	a3,v0,8001046c <envid2env+0xb8>
8001044c:	00000000 	nop
80010450:	8c6200a8 	lw	v0,168(v1)
80010454:	00000000 	nop
80010458:	10820004 	beq	a0,v0,8001046c <envid2env+0xb8>
8001045c:	00000000 	nop
80010460:	aca00000 	sw	zero,0(a1)
80010464:	03e00008 	jr	ra
80010468:	2402fffe 	li	v0,-2
8001046c:	aca30000 	sw	v1,0(a1)
80010470:	03e00008 	jr	ra
80010474:	00001021 	move	v0,zero

80010478 <env_init>:
80010478:	3c028001 	lui	v0,0x8001
8001047c:	ac406ed0 	sw	zero,28368(v0)
80010480:	3c020003 	lui	v0,0x3
80010484:	34449f18 	ori	a0,v0,0x9f18
80010488:	3c078001 	lui	a3,0x8001
8001048c:	3c068001 	lui	a2,0x8001
80010490:	24e96ed0 	addiu	t1,a3,28368
80010494:	2408ff18 	li	t0,-232
80010498:	00802821 	move	a1,a0
8001049c:	8ce36ed0 	lw	v1,28368(a3)
800104a0:	8cc26ec0 	lw	v0,28352(a2)
800104a4:	00000000 	nop
800104a8:	00441021 	addu	v0,v0,a0
800104ac:	10600007 	beqz	v1,800104cc <env_init+0x54>
800104b0:	ac43009c 	sw	v1,156(v0)
800104b4:	8ce36ed0 	lw	v1,28368(a3)
800104b8:	8cc26ec0 	lw	v0,28352(a2)
800104bc:	00000000 	nop
800104c0:	00821021 	addu	v0,a0,v0
800104c4:	2442009c 	addiu	v0,v0,156
800104c8:	ac6200a0 	sw	v0,160(v1)
800104cc:	8cc26ec0 	lw	v0,28352(a2)
800104d0:	00000000 	nop
800104d4:	00a21021 	addu	v0,a1,v0
800104d8:	ace26ed0 	sw	v0,28368(a3)
800104dc:	2484ff18 	addiu	a0,a0,-232
800104e0:	1488ffed 	bne	a0,t0,80010498 <env_init+0x20>
800104e4:	ac4900a0 	sw	t1,160(v0)
800104e8:	03e00008 	jr	ra
800104ec:	00000000 	nop

800104f0 <env_setup_vm>:
800104f0:	27bdffe0 	addiu	sp,sp,-32
800104f4:	afbf001c 	sw	ra,28(sp)
800104f8:	afb00018 	sw	s0,24(sp)
800104fc:	00808021 	move	s0,a0
80010500:	afa00010 	sw	zero,16(sp)
80010504:	0c00501f 	jal	8001407c <page_alloc>
80010508:	27a40010 	addiu	a0,sp,16
8001050c:	04410006 	bgez	v0,80010528 <env_setup_vm+0x38>
80010510:	3c048001 	lui	a0,0x8001
80010514:	24845d88 	addiu	a0,a0,23944
80010518:	240500b1 	li	a1,177
8001051c:	3c068001 	lui	a2,0x8001
80010520:	0c004caa 	jal	800132a8 <_panic>
80010524:	24c65da4 	addiu	a2,a2,23972
80010528:	8fa30010 	lw	v1,16(sp)
8001052c:	00000000 	nop
80010530:	94620008 	lhu	v0,8(v1)
80010534:	00000000 	nop
80010538:	24420001 	addiu	v0,v0,1
8001053c:	a4620008 	sh	v0,8(v1)
80010540:	3c028001 	lui	v0,0x8001
80010544:	8c426f9c 	lw	v0,28572(v0)
80010548:	8fa30010 	lw	v1,16(sp)
8001054c:	00000000 	nop
80010550:	00621823 	subu	v1,v1,v0
80010554:	00031883 	sra	v1,v1,0x2
80010558:	00031080 	sll	v0,v1,0x2
8001055c:	00431021 	addu	v0,v0,v1
80010560:	00021900 	sll	v1,v0,0x4
80010564:	00431021 	addu	v0,v0,v1
80010568:	00021a00 	sll	v1,v0,0x8
8001056c:	00431021 	addu	v0,v0,v1
80010570:	00021c00 	sll	v1,v0,0x10
80010574:	00431021 	addu	v0,v0,v1
80010578:	00021023 	negu	v0,v0
8001057c:	00023b00 	sll	a3,v0,0xc
80010580:	00071302 	srl	v0,a3,0xc
80010584:	3c038001 	lui	v1,0x8001
80010588:	8c636f88 	lw	v1,28552(v1)
8001058c:	00000000 	nop
80010590:	0043102b 	sltu	v0,v0,v1
80010594:	14400007 	bnez	v0,800105b4 <env_setup_vm+0xc4>
80010598:	3c028000 	lui	v0,0x8000
8001059c:	3c048001 	lui	a0,0x8001
800105a0:	24845dc8 	addiu	a0,a0,24008
800105a4:	24050030 	li	a1,48
800105a8:	3c068001 	lui	a2,0x8001
800105ac:	0c004caa 	jal	800132a8 <_panic>
800105b0:	24c65ddc 	addiu	a2,a2,24028
800105b4:	00e21021 	addu	v0,a3,v0
800105b8:	ae0200b0 	sw	v0,176(s0)
800105bc:	3c028001 	lui	v0,0x8001
800105c0:	8c426f9c 	lw	v0,28572(v0)
800105c4:	8fa30010 	lw	v1,16(sp)
800105c8:	00000000 	nop
800105cc:	00621823 	subu	v1,v1,v0
800105d0:	00031883 	sra	v1,v1,0x2
800105d4:	00031080 	sll	v0,v1,0x2
800105d8:	00431021 	addu	v0,v0,v1
800105dc:	00021900 	sll	v1,v0,0x4
800105e0:	00431021 	addu	v0,v0,v1
800105e4:	00021a00 	sll	v1,v0,0x8
800105e8:	00431021 	addu	v0,v0,v1
800105ec:	00021c00 	sll	v1,v0,0x10
800105f0:	00431021 	addu	v0,v0,v1
800105f4:	00021023 	negu	v0,v0
800105f8:	00021300 	sll	v0,v0,0xc
800105fc:	ae0200b4 	sw	v0,180(s0)
80010600:	00001821 	move	v1,zero
80010604:	240407f4 	li	a0,2036
80010608:	8e0200b0 	lw	v0,176(s0)
8001060c:	00000000 	nop
80010610:	00621021 	addu	v0,v1,v0
80010614:	24630004 	addiu	v1,v1,4
80010618:	1464fffb 	bne	v1,a0,80010608 <env_setup_vm+0x118>
8001061c:	ac400000 	sw	zero,0(v0)
80010620:	240407f4 	li	a0,2036
80010624:	3c068001 	lui	a2,0x8001
80010628:	24051000 	li	a1,4096
8001062c:	8e0200b0 	lw	v0,176(s0)
80010630:	00000000 	nop
80010634:	00821021 	addu	v0,a0,v0
80010638:	8cc36f8c 	lw	v1,28556(a2)
8001063c:	00000000 	nop
80010640:	00831821 	addu	v1,a0,v1
80010644:	8c630000 	lw	v1,0(v1)
80010648:	24840004 	addiu	a0,a0,4
8001064c:	1485fff7 	bne	a0,a1,8001062c <env_setup_vm+0x13c>
80010650:	ac430000 	sw	v1,0(v0)
80010654:	8e0300b0 	lw	v1,176(s0)
80010658:	8e0200b4 	lw	v0,180(s0)
8001065c:	00000000 	nop
80010660:	34420200 	ori	v0,v0,0x200
80010664:	ac6207fc 	sw	v0,2044(v1)
80010668:	00001021 	move	v0,zero
8001066c:	8fbf001c 	lw	ra,28(sp)
80010670:	8fb00018 	lw	s0,24(sp)
80010674:	03e00008 	jr	ra
80010678:	27bd0020 	addiu	sp,sp,32

8001067c <env_alloc>:
8001067c:	27bdffe0 	addiu	sp,sp,-32
80010680:	afbf001c 	sw	ra,28(sp)
80010684:	afb20018 	sw	s2,24(sp)
80010688:	afb10014 	sw	s1,20(sp)
8001068c:	afb00010 	sw	s0,16(sp)
80010690:	00809021 	move	s2,a0
80010694:	3c028001 	lui	v0,0x8001
80010698:	8c506ed0 	lw	s0,28368(v0)
8001069c:	00000000 	nop
800106a0:	1200001f 	beqz	s0,80010720 <env_alloc+0xa4>
800106a4:	00a08821 	move	s1,a1
800106a8:	0c00413c 	jal	800104f0 <env_setup_vm>
800106ac:	02002021 	move	a0,s0
800106b0:	0440001c 	bltz	v0,80010724 <env_alloc+0xa8>
800106b4:	2402fffb 	li	v0,-5
800106b8:	0c0040d3 	jal	8001034c <mkenvid>
800106bc:	02002021 	move	a0,s0
800106c0:	ae0200a4 	sw	v0,164(s0)
800106c4:	24020001 	li	v0,1
800106c8:	ae0200ac 	sw	v0,172(s0)
800106cc:	ae1100a8 	sw	s1,168(s0)
800106d0:	3c027f3f 	lui	v0,0x7f3f
800106d4:	3442e000 	ori	v0,v0,0xe000
800106d8:	ae020074 	sw	v0,116(s0)
800106dc:	3c021000 	lui	v0,0x1000
800106e0:	34421004 	ori	v0,v0,0x1004
800106e4:	ae020080 	sw	v0,128(s0)
800106e8:	8e03009c 	lw	v1,156(s0)
800106ec:	00000000 	nop
800106f0:	10600004 	beqz	v1,80010704 <env_alloc+0x88>
800106f4:	00000000 	nop
800106f8:	8e0200a0 	lw	v0,160(s0)
800106fc:	00000000 	nop
80010700:	ac6200a0 	sw	v0,160(v1)
80010704:	8e0300a0 	lw	v1,160(s0)
80010708:	8e02009c 	lw	v0,156(s0)
8001070c:	00000000 	nop
80010710:	ac620000 	sw	v0,0(v1)
80010714:	ae500000 	sw	s0,0(s2)
80010718:	10000002 	b	80010724 <env_alloc+0xa8>
8001071c:	00001021 	move	v0,zero
80010720:	2402fffb 	li	v0,-5
80010724:	8fbf001c 	lw	ra,28(sp)
80010728:	8fb20018 	lw	s2,24(sp)
8001072c:	8fb10014 	lw	s1,20(sp)
80010730:	8fb00010 	lw	s0,16(sp)
80010734:	03e00008 	jr	ra
80010738:	27bd0020 	addiu	sp,sp,32

8001073c <load_icode_mapper>:
8001073c:	27bdffc0 	addiu	sp,sp,-64
80010740:	afbf003c 	sw	ra,60(sp)
80010744:	afbe0038 	sw	s8,56(sp)
80010748:	afb70034 	sw	s7,52(sp)
8001074c:	afb60030 	sw	s6,48(sp)
80010750:	afb5002c 	sw	s5,44(sp)
80010754:	afb40028 	sw	s4,40(sp)
80010758:	afb30024 	sw	s3,36(sp)
8001075c:	afb20020 	sw	s2,32(sp)
80010760:	afb1001c 	sw	s1,28(sp)
80010764:	afb00018 	sw	s0,24(sp)
80010768:	00a0b021 	move	s6,a1
8001076c:	00c09821 	move	s3,a2
80010770:	00e0a821 	move	s5,a3
80010774:	8fb40050 	lw	s4,80(sp)
80010778:	afa00010 	sw	zero,16(sp)
8001077c:	30910fff 	andi	s1,a0,0xfff
80010780:	2402f000 	li	v0,-4096
80010784:	00829024 	and	s2,a0,v0
80010788:	0c00501f 	jal	8001407c <page_alloc>
8001078c:	27a40010 	addiu	a0,sp,16
80010790:	044000b9 	bltz	v0,80010a78 <load_icode_mapper+0x33c>
80010794:	02403021 	move	a2,s2
80010798:	8e8400b0 	lw	a0,176(s4)
8001079c:	8fa50010 	lw	a1,16(sp)
800107a0:	0c0050c3 	jal	8001430c <page_insert>
800107a4:	24070600 	li	a3,1536
800107a8:	02351021 	addu	v0,s1,s5
800107ac:	2c421001 	sltiu	v0,v0,4097
800107b0:	10400029 	beqz	v0,80010858 <load_icode_mapper+0x11c>
800107b4:	3c028001 	lui	v0,0x8001
800107b8:	8c426f9c 	lw	v0,28572(v0)
800107bc:	8fa30010 	lw	v1,16(sp)
800107c0:	00000000 	nop
800107c4:	00621823 	subu	v1,v1,v0
800107c8:	00031883 	sra	v1,v1,0x2
800107cc:	00031080 	sll	v0,v1,0x2
800107d0:	00431021 	addu	v0,v0,v1
800107d4:	00021900 	sll	v1,v0,0x4
800107d8:	00431021 	addu	v0,v0,v1
800107dc:	00021a00 	sll	v1,v0,0x8
800107e0:	00431021 	addu	v0,v0,v1
800107e4:	00021c00 	sll	v1,v0,0x10
800107e8:	00431021 	addu	v0,v0,v1
800107ec:	00021023 	negu	v0,v0
800107f0:	00023b00 	sll	a3,v0,0xc
800107f4:	00071302 	srl	v0,a3,0xc
800107f8:	3c038001 	lui	v1,0x8001
800107fc:	8c636f88 	lw	v1,28552(v1)
80010800:	00000000 	nop
80010804:	0043102b 	sltu	v0,v0,v1
80010808:	14400007 	bnez	v0,80010828 <load_icode_mapper+0xec>
8001080c:	3c058000 	lui	a1,0x8000
80010810:	3c048001 	lui	a0,0x8001
80010814:	24845dc8 	addiu	a0,a0,24008
80010818:	24050030 	li	a1,48
8001081c:	3c068001 	lui	a2,0x8001
80010820:	0c004caa 	jal	800132a8 <_panic>
80010824:	24c65ddc 	addiu	a2,a2,24028
80010828:	00e52821 	addu	a1,a3,a1
8001082c:	02602021 	move	a0,s3
80010830:	02252821 	addu	a1,s1,a1
80010834:	0c004044 	jal	80010110 <bcopy>
80010838:	02a03021 	move	a2,s5
8001083c:	26101000 	addiu	s0,s0,4096
80010840:	26511000 	addiu	s1,s2,4096
80010844:	0216102b 	sltu	v0,s0,s6
80010848:	1040008b 	beqz	v0,80010a78 <load_icode_mapper+0x33c>
8001084c:	00001021 	move	v0,zero
80010850:	1000007c 	b	80010a44 <load_icode_mapper+0x308>
80010854:	00000000 	nop
80010858:	8c426f9c 	lw	v0,28572(v0)
8001085c:	8fa30010 	lw	v1,16(sp)
80010860:	00000000 	nop
80010864:	00621823 	subu	v1,v1,v0
80010868:	00031883 	sra	v1,v1,0x2
8001086c:	00031080 	sll	v0,v1,0x2
80010870:	00431021 	addu	v0,v0,v1
80010874:	00021900 	sll	v1,v0,0x4
80010878:	00431021 	addu	v0,v0,v1
8001087c:	00021a00 	sll	v1,v0,0x8
80010880:	00431021 	addu	v0,v0,v1
80010884:	00021c00 	sll	v1,v0,0x10
80010888:	00431021 	addu	v0,v0,v1
8001088c:	00021023 	negu	v0,v0
80010890:	00023b00 	sll	a3,v0,0xc
80010894:	00071302 	srl	v0,a3,0xc
80010898:	3c038001 	lui	v1,0x8001
8001089c:	8c636f88 	lw	v1,28552(v1)
800108a0:	00000000 	nop
800108a4:	0043102b 	sltu	v0,v0,v1
800108a8:	14400007 	bnez	v0,800108c8 <load_icode_mapper+0x18c>
800108ac:	24021000 	li	v0,4096
800108b0:	3c048001 	lui	a0,0x8001
800108b4:	24845dc8 	addiu	a0,a0,24008
800108b8:	24050030 	li	a1,48
800108bc:	3c068001 	lui	a2,0x8001
800108c0:	0c004caa 	jal	800132a8 <_panic>
800108c4:	24c65ddc 	addiu	a2,a2,24028
800108c8:	00518023 	subu	s0,v0,s1
800108cc:	3c058000 	lui	a1,0x8000
800108d0:	00e52821 	addu	a1,a3,a1
800108d4:	02602021 	move	a0,s3
800108d8:	02252821 	addu	a1,s1,a1
800108dc:	0c004044 	jal	80010110 <bcopy>
800108e0:	02003021 	move	a2,s0
800108e4:	0215102b 	sltu	v0,s0,s5
800108e8:	1040ffd6 	beqz	v0,80010844 <load_icode_mapper+0x108>
800108ec:	26511000 	addiu	s1,s2,4096
800108f0:	02709021 	addu	s2,s3,s0
800108f4:	02b09823 	subu	s3,s5,s0
800108f8:	3c1e8001 	lui	s8,0x8001
800108fc:	3c178000 	lui	s7,0x8000
80010900:	0c00501f 	jal	8001407c <page_alloc>
80010904:	27a40010 	addiu	a0,sp,16
80010908:	0440005b 	bltz	v0,80010a78 <load_icode_mapper+0x33c>
8001090c:	02203021 	move	a2,s1
80010910:	8e8400b0 	lw	a0,176(s4)
80010914:	8fa50010 	lw	a1,16(sp)
80010918:	0c0050c3 	jal	8001430c <page_insert>
8001091c:	24070600 	li	a3,1536
80010920:	26101000 	addiu	s0,s0,4096
80010924:	0215102b 	sltu	v0,s0,s5
80010928:	14400021 	bnez	v0,800109b0 <load_icode_mapper+0x274>
8001092c:	3c058001 	lui	a1,0x8001
80010930:	8fc26f9c 	lw	v0,28572(s8)
80010934:	8fa30010 	lw	v1,16(sp)
80010938:	00000000 	nop
8001093c:	00621823 	subu	v1,v1,v0
80010940:	00031883 	sra	v1,v1,0x2
80010944:	00031080 	sll	v0,v1,0x2
80010948:	00431021 	addu	v0,v0,v1
8001094c:	00021900 	sll	v1,v0,0x4
80010950:	00431021 	addu	v0,v0,v1
80010954:	00021a00 	sll	v1,v0,0x8
80010958:	00431021 	addu	v0,v0,v1
8001095c:	00021c00 	sll	v1,v0,0x10
80010960:	00431021 	addu	v0,v0,v1
80010964:	00021023 	negu	v0,v0
80010968:	00023b00 	sll	a3,v0,0xc
8001096c:	00071302 	srl	v0,a3,0xc
80010970:	8ca36f88 	lw	v1,28552(a1)
80010974:	00000000 	nop
80010978:	0043102b 	sltu	v0,v0,v1
8001097c:	14400007 	bnez	v0,8001099c <load_icode_mapper+0x260>
80010980:	02402021 	move	a0,s2
80010984:	3c028001 	lui	v0,0x8001
80010988:	24445dc8 	addiu	a0,v0,24008
8001098c:	24050030 	li	a1,48
80010990:	3c028001 	lui	v0,0x8001
80010994:	0c004caa 	jal	800132a8 <_panic>
80010998:	24465ddc 	addiu	a2,v0,24028
8001099c:	00f72821 	addu	a1,a3,s7
800109a0:	0c004044 	jal	80010110 <bcopy>
800109a4:	02603021 	move	a2,s3
800109a8:	10000020 	b	80010a2c <load_icode_mapper+0x2f0>
800109ac:	26311000 	addiu	s1,s1,4096
800109b0:	8fc26f9c 	lw	v0,28572(s8)
800109b4:	8fa30010 	lw	v1,16(sp)
800109b8:	00000000 	nop
800109bc:	00621823 	subu	v1,v1,v0
800109c0:	00031883 	sra	v1,v1,0x2
800109c4:	00031080 	sll	v0,v1,0x2
800109c8:	00431021 	addu	v0,v0,v1
800109cc:	00021900 	sll	v1,v0,0x4
800109d0:	00431021 	addu	v0,v0,v1
800109d4:	00021a00 	sll	v1,v0,0x8
800109d8:	00431021 	addu	v0,v0,v1
800109dc:	00021c00 	sll	v1,v0,0x10
800109e0:	00431021 	addu	v0,v0,v1
800109e4:	00021023 	negu	v0,v0
800109e8:	00023b00 	sll	a3,v0,0xc
800109ec:	00071302 	srl	v0,a3,0xc
800109f0:	8ca36f88 	lw	v1,28552(a1)
800109f4:	00000000 	nop
800109f8:	0043102b 	sltu	v0,v0,v1
800109fc:	14400007 	bnez	v0,80010a1c <load_icode_mapper+0x2e0>
80010a00:	02402021 	move	a0,s2
80010a04:	3c028001 	lui	v0,0x8001
80010a08:	24445dc8 	addiu	a0,v0,24008
80010a0c:	24050030 	li	a1,48
80010a10:	3c028001 	lui	v0,0x8001
80010a14:	0c004caa 	jal	800132a8 <_panic>
80010a18:	24465ddc 	addiu	a2,v0,24028
80010a1c:	00f72821 	addu	a1,a3,s7
80010a20:	0c004044 	jal	80010110 <bcopy>
80010a24:	24061000 	li	a2,4096
80010a28:	26311000 	addiu	s1,s1,4096
80010a2c:	26521000 	addiu	s2,s2,4096
80010a30:	0215102b 	sltu	v0,s0,s5
80010a34:	1040ff83 	beqz	v0,80010844 <load_icode_mapper+0x108>
80010a38:	2673f000 	addiu	s3,s3,-4096
80010a3c:	1000ffb0 	b	80010900 <load_icode_mapper+0x1c4>
80010a40:	00000000 	nop
80010a44:	0c00501f 	jal	8001407c <page_alloc>
80010a48:	27a40010 	addiu	a0,sp,16
80010a4c:	0440000a 	bltz	v0,80010a78 <load_icode_mapper+0x33c>
80010a50:	02203021 	move	a2,s1
80010a54:	8e8400b0 	lw	a0,176(s4)
80010a58:	8fa50010 	lw	a1,16(sp)
80010a5c:	0c0050c3 	jal	8001430c <page_insert>
80010a60:	24070600 	li	a3,1536
80010a64:	26101000 	addiu	s0,s0,4096
80010a68:	0216102b 	sltu	v0,s0,s6
80010a6c:	1440fff5 	bnez	v0,80010a44 <load_icode_mapper+0x308>
80010a70:	26311000 	addiu	s1,s1,4096
80010a74:	00001021 	move	v0,zero
80010a78:	8fbf003c 	lw	ra,60(sp)
80010a7c:	8fbe0038 	lw	s8,56(sp)
80010a80:	8fb70034 	lw	s7,52(sp)
80010a84:	8fb60030 	lw	s6,48(sp)
80010a88:	8fb5002c 	lw	s5,44(sp)
80010a8c:	8fb40028 	lw	s4,40(sp)
80010a90:	8fb30024 	lw	s3,36(sp)
80010a94:	8fb20020 	lw	s2,32(sp)
80010a98:	8fb1001c 	lw	s1,28(sp)
80010a9c:	8fb00018 	lw	s0,24(sp)
80010aa0:	03e00008 	jr	ra
80010aa4:	27bd0040 	addiu	sp,sp,64

80010aa8 <load_icode>:
80010aa8:	27bdffd0 	addiu	sp,sp,-48
80010aac:	afbf002c 	sw	ra,44(sp)
80010ab0:	afb20028 	sw	s2,40(sp)
80010ab4:	afb10024 	sw	s1,36(sp)
80010ab8:	afb00020 	sw	s0,32(sp)
80010abc:	00808021 	move	s0,a0
80010ac0:	00a08821 	move	s1,a1
80010ac4:	00c09021 	move	s2,a2
80010ac8:	afa00018 	sw	zero,24(sp)
80010acc:	0c00501f 	jal	8001407c <page_alloc>
80010ad0:	27a40018 	addiu	a0,sp,24
80010ad4:	8e0400b0 	lw	a0,176(s0)
80010ad8:	8fa50018 	lw	a1,24(sp)
80010adc:	3c067f3f 	lui	a2,0x7f3f
80010ae0:	34c6d000 	ori	a2,a2,0xd000
80010ae4:	0c0050c3 	jal	8001430c <page_insert>
80010ae8:	24070600 	li	a3,1536
80010aec:	3c028001 	lui	v0,0x8001
80010af0:	2442073c 	addiu	v0,v0,1852
80010af4:	afa20010 	sw	v0,16(sp)
80010af8:	02202021 	move	a0,s1
80010afc:	02402821 	move	a1,s2
80010b00:	27a6001c 	addiu	a2,sp,28
80010b04:	0c0049fe 	jal	800127f8 <load_elf>
80010b08:	02003821 	move	a3,s0
80010b0c:	8fa2001c 	lw	v0,28(sp)
80010b10:	00000000 	nop
80010b14:	ae020098 	sw	v0,152(s0)
80010b18:	8fbf002c 	lw	ra,44(sp)
80010b1c:	8fb20028 	lw	s2,40(sp)
80010b20:	8fb10024 	lw	s1,36(sp)
80010b24:	8fb00020 	lw	s0,32(sp)
80010b28:	03e00008 	jr	ra
80010b2c:	27bd0030 	addiu	sp,sp,48

80010b30 <env_create_priority>:
80010b30:	27bdffd8 	addiu	sp,sp,-40
80010b34:	afbf0024 	sw	ra,36(sp)
80010b38:	afb20020 	sw	s2,32(sp)
80010b3c:	afb1001c 	sw	s1,28(sp)
80010b40:	afb00018 	sw	s0,24(sp)
80010b44:	00808821 	move	s1,a0
80010b48:	00a09021 	move	s2,a1
80010b4c:	00c08021 	move	s0,a2
80010b50:	27a40010 	addiu	a0,sp,16
80010b54:	0c00419f 	jal	8001067c <env_alloc>
80010b58:	00002821 	move	a1,zero
80010b5c:	8fa20010 	lw	v0,16(sp)
80010b60:	00000000 	nop
80010b64:	ac5000c0 	sw	s0,192(v0)
80010b68:	8fa40010 	lw	a0,16(sp)
80010b6c:	02202821 	move	a1,s1
80010b70:	0c0042aa 	jal	80010aa8 <load_icode>
80010b74:	02403021 	move	a2,s2
80010b78:	3c048001 	lui	a0,0x8001
80010b7c:	8c836f80 	lw	v1,28544(a0)
80010b80:	8fa20010 	lw	v0,16(sp)
80010b84:	10600006 	beqz	v1,80010ba0 <env_create_priority+0x70>
80010b88:	ac4300b8 	sw	v1,184(v0)
80010b8c:	8c836f80 	lw	v1,28544(a0)
80010b90:	8fa20010 	lw	v0,16(sp)
80010b94:	00000000 	nop
80010b98:	244200b8 	addiu	v0,v0,184
80010b9c:	ac6200bc 	sw	v0,188(v1)
80010ba0:	8fa30010 	lw	v1,16(sp)
80010ba4:	3c028001 	lui	v0,0x8001
80010ba8:	ac436f80 	sw	v1,28544(v0)
80010bac:	24426f80 	addiu	v0,v0,28544
80010bb0:	ac6200bc 	sw	v0,188(v1)
80010bb4:	8fbf0024 	lw	ra,36(sp)
80010bb8:	8fb20020 	lw	s2,32(sp)
80010bbc:	8fb1001c 	lw	s1,28(sp)
80010bc0:	8fb00018 	lw	s0,24(sp)
80010bc4:	03e00008 	jr	ra
80010bc8:	27bd0028 	addiu	sp,sp,40

80010bcc <env_create>:
80010bcc:	27bdffe8 	addiu	sp,sp,-24
80010bd0:	afbf0010 	sw	ra,16(sp)
80010bd4:	0c0042cc 	jal	80010b30 <env_create_priority>
80010bd8:	24060001 	li	a2,1
80010bdc:	8fbf0010 	lw	ra,16(sp)
80010be0:	00000000 	nop
80010be4:	03e00008 	jr	ra
80010be8:	27bd0018 	addiu	sp,sp,24

80010bec <env_free>:
80010bec:	27bdffc8 	addiu	sp,sp,-56
80010bf0:	afbf0034 	sw	ra,52(sp)
80010bf4:	afbe0030 	sw	s8,48(sp)
80010bf8:	afb7002c 	sw	s7,44(sp)
80010bfc:	afb60028 	sw	s6,40(sp)
80010c00:	afb50024 	sw	s5,36(sp)
80010c04:	afb40020 	sw	s4,32(sp)
80010c08:	afb3001c 	sw	s3,28(sp)
80010c0c:	afb20018 	sw	s2,24(sp)
80010c10:	afb10014 	sw	s1,20(sp)
80010c14:	afb00010 	sw	s0,16(sp)
80010c18:	3c028001 	lui	v0,0x8001
80010c1c:	8c456ec4 	lw	a1,28356(v0)
80010c20:	00000000 	nop
80010c24:	10a00002 	beqz	a1,80010c30 <env_free+0x44>
80010c28:	0080a021 	move	s4,a0
80010c2c:	8ca500a4 	lw	a1,164(a1)
80010c30:	3c048001 	lui	a0,0x8001
80010c34:	8e8600a4 	lw	a2,164(s4)
80010c38:	0c004c9a 	jal	80013268 <printf>
80010c3c:	24845e00 	addiu	a0,a0,24064
80010c40:	0000b821 	move	s7,zero
80010c44:	0017f080 	sll	s8,s7,0x2
80010c48:	8e8200b0 	lw	v0,176(s4)
80010c4c:	00000000 	nop
80010c50:	005e1021 	addu	v0,v0,s8
80010c54:	8c470000 	lw	a3,0(v0)
80010c58:	00000000 	nop
80010c5c:	30e20200 	andi	v0,a3,0x200
80010c60:	10400037 	beqz	v0,80010d40 <env_free+0x154>
80010c64:	2402f000 	li	v0,-4096
80010c68:	00e2b024 	and	s6,a3,v0
80010c6c:	0016ab02 	srl	s5,s6,0xc
80010c70:	3c038001 	lui	v1,0x8001
80010c74:	8c626f88 	lw	v0,28552(v1)
80010c78:	00000000 	nop
80010c7c:	02a2102b 	sltu	v0,s5,v0
80010c80:	14400008 	bnez	v0,80010ca4 <env_free+0xb8>
80010c84:	3c028000 	lui	v0,0x8000
80010c88:	3c048001 	lui	a0,0x8001
80010c8c:	24845d88 	addiu	a0,a0,23944
80010c90:	240501c3 	li	a1,451
80010c94:	3c068001 	lui	a2,0x8001
80010c98:	24c65ddc 	addiu	a2,a2,24028
80010c9c:	0c004caa 	jal	800132a8 <_panic>
80010ca0:	02c03821 	move	a3,s6
80010ca4:	02c28021 	addu	s0,s6,v0
80010ca8:	00008821 	move	s1,zero
80010cac:	00179d80 	sll	s3,s7,0x16
80010cb0:	24120400 	li	s2,1024
80010cb4:	8e020000 	lw	v0,0(s0)
80010cb8:	00000000 	nop
80010cbc:	30420200 	andi	v0,v0,0x200
80010cc0:	10400005 	beqz	v0,80010cd8 <env_free+0xec>
80010cc4:	00000000 	nop
80010cc8:	00112b00 	sll	a1,s1,0xc
80010ccc:	8e8400b0 	lw	a0,176(s4)
80010cd0:	0c005168 	jal	800145a0 <page_remove>
80010cd4:	02652825 	or	a1,s3,a1
80010cd8:	26310001 	addiu	s1,s1,1
80010cdc:	1632fff5 	bne	s1,s2,80010cb4 <env_free+0xc8>
80010ce0:	26100004 	addiu	s0,s0,4
80010ce4:	8e8200b0 	lw	v0,176(s4)
80010ce8:	00000000 	nop
80010cec:	005e1021 	addu	v0,v0,s8
80010cf0:	ac400000 	sw	zero,0(v0)
80010cf4:	3c038001 	lui	v1,0x8001
80010cf8:	8c626f88 	lw	v0,28552(v1)
80010cfc:	00000000 	nop
80010d00:	02a2102b 	sltu	v0,s5,v0
80010d04:	14400008 	bnez	v0,80010d28 <env_free+0x13c>
80010d08:	00151080 	sll	v0,s5,0x2
80010d0c:	3c048001 	lui	a0,0x8001
80010d10:	24845dc8 	addiu	a0,a0,24008
80010d14:	24050029 	li	a1,41
80010d18:	3c068001 	lui	a2,0x8001
80010d1c:	24c65e18 	addiu	a2,a2,24088
80010d20:	0c004caa 	jal	800132a8 <_panic>
80010d24:	02c03821 	move	a3,s6
80010d28:	00152100 	sll	a0,s5,0x4
80010d2c:	00822023 	subu	a0,a0,v0
80010d30:	3c028001 	lui	v0,0x8001
80010d34:	8c426f9c 	lw	v0,28572(v0)
80010d38:	0c00515a 	jal	80014568 <page_decref>
80010d3c:	00822021 	addu	a0,a0,v0
80010d40:	26f70001 	addiu	s7,s7,1
80010d44:	240201fd 	li	v0,509
80010d48:	16e2ffbf 	bne	s7,v0,80010c48 <env_free+0x5c>
80010d4c:	0017f080 	sll	s8,s7,0x2
80010d50:	8e9000b4 	lw	s0,180(s4)
80010d54:	ae8000b0 	sw	zero,176(s4)
80010d58:	ae8000b4 	sw	zero,180(s4)
80010d5c:	8e8400a4 	lw	a0,164(s4)
80010d60:	0c0040c6 	jal	80010318 <asid_free>
80010d64:	000422c2 	srl	a0,a0,0xb
80010d68:	00102302 	srl	a0,s0,0xc
80010d6c:	3c028001 	lui	v0,0x8001
80010d70:	8c426f88 	lw	v0,28552(v0)
80010d74:	00000000 	nop
80010d78:	0082102b 	sltu	v0,a0,v0
80010d7c:	14400008 	bnez	v0,80010da0 <env_free+0x1b4>
80010d80:	00041080 	sll	v0,a0,0x2
80010d84:	3c048001 	lui	a0,0x8001
80010d88:	24845dc8 	addiu	a0,a0,24008
80010d8c:	24050029 	li	a1,41
80010d90:	3c068001 	lui	a2,0x8001
80010d94:	24c65e18 	addiu	a2,a2,24088
80010d98:	0c004caa 	jal	800132a8 <_panic>
80010d9c:	02003821 	move	a3,s0
80010da0:	00042100 	sll	a0,a0,0x4
80010da4:	00822023 	subu	a0,a0,v0
80010da8:	3c028001 	lui	v0,0x8001
80010dac:	8c426f9c 	lw	v0,28572(v0)
80010db0:	0c00515a 	jal	80014568 <page_decref>
80010db4:	00822021 	addu	a0,a0,v0
80010db8:	ae8000ac 	sw	zero,172(s4)
80010dbc:	3c038001 	lui	v1,0x8001
80010dc0:	8c626ed0 	lw	v0,28368(v1)
80010dc4:	00000000 	nop
80010dc8:	10400004 	beqz	v0,80010ddc <env_free+0x1f0>
80010dcc:	ae82009c 	sw	v0,156(s4)
80010dd0:	8c636ed0 	lw	v1,28368(v1)
80010dd4:	2682009c 	addiu	v0,s4,156
80010dd8:	ac6200a0 	sw	v0,160(v1)
80010ddc:	3c028001 	lui	v0,0x8001
80010de0:	ac546ed0 	sw	s4,28368(v0)
80010de4:	24426ed0 	addiu	v0,v0,28368
80010de8:	ae8200a0 	sw	v0,160(s4)
80010dec:	8e8300b8 	lw	v1,184(s4)
80010df0:	00000000 	nop
80010df4:	10600004 	beqz	v1,80010e08 <env_free+0x21c>
80010df8:	00000000 	nop
80010dfc:	8e8200bc 	lw	v0,188(s4)
80010e00:	00000000 	nop
80010e04:	ac6200bc 	sw	v0,188(v1)
80010e08:	8e8300bc 	lw	v1,188(s4)
80010e0c:	8e8200b8 	lw	v0,184(s4)
80010e10:	00000000 	nop
80010e14:	ac620000 	sw	v0,0(v1)
80010e18:	8fbf0034 	lw	ra,52(sp)
80010e1c:	8fbe0030 	lw	s8,48(sp)
80010e20:	8fb7002c 	lw	s7,44(sp)
80010e24:	8fb60028 	lw	s6,40(sp)
80010e28:	8fb50024 	lw	s5,36(sp)
80010e2c:	8fb40020 	lw	s4,32(sp)
80010e30:	8fb3001c 	lw	s3,28(sp)
80010e34:	8fb20018 	lw	s2,24(sp)
80010e38:	8fb10014 	lw	s1,20(sp)
80010e3c:	8fb00010 	lw	s0,16(sp)
80010e40:	03e00008 	jr	ra
80010e44:	27bd0038 	addiu	sp,sp,56

80010e48 <env_destroy>:
80010e48:	27bdffe8 	addiu	sp,sp,-24
80010e4c:	afbf0014 	sw	ra,20(sp)
80010e50:	afb00010 	sw	s0,16(sp)
80010e54:	0c0042fb 	jal	80010bec <env_free>
80010e58:	00808021 	move	s0,a0
80010e5c:	3c038001 	lui	v1,0x8001
80010e60:	8c626ec4 	lw	v0,28356(v1)
80010e64:	00000000 	nop
80010e68:	1602000e 	bne	s0,v0,80010ea4 <env_destroy+0x5c>
80010e6c:	3c028002 	lui	v0,0x8002
80010e70:	ac606ec4 	sw	zero,28356(v1)
80010e74:	8c445260 	lw	a0,21088(v0)
80010e78:	00000000 	nop
80010e7c:	2484ff64 	addiu	a0,a0,-156
80010e80:	3c0581ff 	lui	a1,0x81ff
80010e84:	34a5ff64 	ori	a1,a1,0xff64
80010e88:	0c004044 	jal	80010110 <bcopy>
80010e8c:	2406009c 	li	a2,156
80010e90:	3c048001 	lui	a0,0x8001
80010e94:	0c004c9a 	jal	80013268 <printf>
80010e98:	24845e3c 	addiu	a0,a0,24124
80010e9c:	0c004cc4 	jal	80013310 <sched_yield>
80010ea0:	00000000 	nop
80010ea4:	8fbf0014 	lw	ra,20(sp)
80010ea8:	8fb00010 	lw	s0,16(sp)
80010eac:	03e00008 	jr	ra
80010eb0:	27bd0018 	addiu	sp,sp,24

80010eb4 <env_run>:
80010eb4:	27bdffe0 	addiu	sp,sp,-32
80010eb8:	afbf0018 	sw	ra,24(sp)
80010ebc:	afb10014 	sw	s1,20(sp)
80010ec0:	afb00010 	sw	s0,16(sp)
80010ec4:	3c118001 	lui	s1,0x8001
80010ec8:	8e256ec4 	lw	a1,28356(s1)
80010ecc:	00000000 	nop
80010ed0:	10a0000a 	beqz	a1,80010efc <env_run+0x48>
80010ed4:	00808021 	move	s0,a0
80010ed8:	3c0481ff 	lui	a0,0x81ff
80010edc:	3484ff64 	ori	a0,a0,0xff64
80010ee0:	0c004044 	jal	80010110 <bcopy>
80010ee4:	2406009c 	li	a2,156
80010ee8:	8e236ec4 	lw	v1,28356(s1)
80010eec:	00000000 	nop
80010ef0:	8c620094 	lw	v0,148(v1)
80010ef4:	00000000 	nop
80010ef8:	ac620098 	sw	v0,152(v1)
80010efc:	3c028001 	lui	v0,0x8001
80010f00:	ac506ec4 	sw	s0,28356(v0)
80010f04:	8e0400b0 	lw	a0,176(s0)
80010f08:	0c004815 	jal	80012054 <lcontext>
80010f0c:	00000000 	nop
80010f10:	8e0500a4 	lw	a1,164(s0)
80010f14:	00000000 	nop
80010f18:	00052ac2 	srl	a1,a1,0xb
80010f1c:	02002021 	move	a0,s0
80010f20:	0c0047e4 	jal	80011f90 <env_pop_tf>
80010f24:	00052980 	sll	a1,a1,0x6
80010f28:	8fbf0018 	lw	ra,24(sp)
80010f2c:	8fb10014 	lw	s1,20(sp)
80010f30:	8fb00010 	lw	s0,16(sp)
80010f34:	03e00008 	jr	ra
80010f38:	27bd0020 	addiu	sp,sp,32

80010f3c <env_check>:
80010f3c:	27bdffd8 	addiu	sp,sp,-40
80010f40:	afbf0024 	sw	ra,36(sp)
80010f44:	afb00020 	sw	s0,32(sp)
80010f48:	afa00014 	sw	zero,20(sp)
80010f4c:	afa00018 	sw	zero,24(sp)
80010f50:	afa0001c 	sw	zero,28(sp)
80010f54:	27a40014 	addiu	a0,sp,20
80010f58:	0c00419f 	jal	8001067c <env_alloc>
80010f5c:	00002821 	move	a1,zero
80010f60:	10400009 	beqz	v0,80010f88 <env_check+0x4c>
80010f64:	27a40018 	addiu	a0,sp,24
80010f68:	3c048001 	lui	a0,0x8001
80010f6c:	24845d88 	addiu	a0,a0,23944
80010f70:	24050227 	li	a1,551
80010f74:	3c068001 	lui	a2,0x8001
80010f78:	24c65e50 	addiu	a2,a2,24144
80010f7c:	3c078001 	lui	a3,0x8001
80010f80:	0c004caa 	jal	800132a8 <_panic>
80010f84:	24e75e68 	addiu	a3,a3,24168
80010f88:	0c00419f 	jal	8001067c <env_alloc>
80010f8c:	00002821 	move	a1,zero
80010f90:	10400009 	beqz	v0,80010fb8 <env_check+0x7c>
80010f94:	27a4001c 	addiu	a0,sp,28
80010f98:	3c048001 	lui	a0,0x8001
80010f9c:	24845d88 	addiu	a0,a0,23944
80010fa0:	24050228 	li	a1,552
80010fa4:	3c068001 	lui	a2,0x8001
80010fa8:	24c65e50 	addiu	a2,a2,24144
80010fac:	3c078001 	lui	a3,0x8001
80010fb0:	0c004caa 	jal	800132a8 <_panic>
80010fb4:	24e75e80 	addiu	a3,a3,24192
80010fb8:	0c00419f 	jal	8001067c <env_alloc>
80010fbc:	00002821 	move	a1,zero
80010fc0:	10400008 	beqz	v0,80010fe4 <env_check+0xa8>
80010fc4:	3c048001 	lui	a0,0x8001
80010fc8:	24845d88 	addiu	a0,a0,23944
80010fcc:	24050229 	li	a1,553
80010fd0:	3c068001 	lui	a2,0x8001
80010fd4:	24c65e50 	addiu	a2,a2,24144
80010fd8:	3c078001 	lui	a3,0x8001
80010fdc:	0c004caa 	jal	800132a8 <_panic>
80010fe0:	24e75e98 	addiu	a3,a3,24216
80010fe4:	8fa40014 	lw	a0,20(sp)
80010fe8:	00000000 	nop
80010fec:	14800008 	bnez	a0,80011010 <env_check+0xd4>
80010ff0:	2405022b 	li	a1,555
80010ff4:	3c048001 	lui	a0,0x8001
80010ff8:	24845d88 	addiu	a0,a0,23944
80010ffc:	3c068001 	lui	a2,0x8001
80011000:	24c65e50 	addiu	a2,a2,24144
80011004:	3c078001 	lui	a3,0x8001
80011008:	0c004caa 	jal	800132a8 <_panic>
8001100c:	24e75ee0 	addiu	a3,a3,24288
80011010:	8fa30018 	lw	v1,24(sp)
80011014:	00000000 	nop
80011018:	10600003 	beqz	v1,80011028 <env_check+0xec>
8001101c:	00000000 	nop
80011020:	14830009 	bne	a0,v1,80011048 <env_check+0x10c>
80011024:	00000000 	nop
80011028:	3c048001 	lui	a0,0x8001
8001102c:	24845d88 	addiu	a0,a0,23944
80011030:	2405022c 	li	a1,556
80011034:	3c068001 	lui	a2,0x8001
80011038:	24c65e50 	addiu	a2,a2,24144
8001103c:	3c078001 	lui	a3,0x8001
80011040:	0c004caa 	jal	800132a8 <_panic>
80011044:	24e75eb0 	addiu	a3,a3,24240
80011048:	8fa2001c 	lw	v0,28(sp)
8001104c:	00000000 	nop
80011050:	10400005 	beqz	v0,80011068 <env_check+0x12c>
80011054:	00000000 	nop
80011058:	10620003 	beq	v1,v0,80011068 <env_check+0x12c>
8001105c:	00000000 	nop
80011060:	14820009 	bne	a0,v0,80011088 <env_check+0x14c>
80011064:	3c028001 	lui	v0,0x8001
80011068:	3c048001 	lui	a0,0x8001
8001106c:	24845d88 	addiu	a0,a0,23944
80011070:	2405022d 	li	a1,557
80011074:	3c068001 	lui	a2,0x8001
80011078:	24c65e50 	addiu	a2,a2,24144
8001107c:	3c078001 	lui	a3,0x8001
80011080:	0c004caa 	jal	800132a8 <_panic>
80011084:	24e75ec4 	addiu	a3,a3,24260
80011088:	8c506ed0 	lw	s0,28368(v0)
8001108c:	ac406ed0 	sw	zero,28368(v0)
80011090:	27a40010 	addiu	a0,sp,16
80011094:	0c00419f 	jal	8001067c <env_alloc>
80011098:	00002821 	move	a1,zero
8001109c:	2403fffb 	li	v1,-5
800110a0:	10430009 	beq	v0,v1,800110c8 <env_check+0x18c>
800110a4:	3c028001 	lui	v0,0x8001
800110a8:	3c048001 	lui	a0,0x8001
800110ac:	24845d88 	addiu	a0,a0,23944
800110b0:	24050235 	li	a1,565
800110b4:	3c068001 	lui	a2,0x8001
800110b8:	24c65e50 	addiu	a2,a2,24144
800110bc:	3c078001 	lui	a3,0x8001
800110c0:	0c004caa 	jal	800132a8 <_panic>
800110c4:	24e75ee4 	addiu	a3,a3,24292
800110c8:	ac506ed0 	sw	s0,28368(v0)
800110cc:	3c048001 	lui	a0,0x8001
800110d0:	8fa20014 	lw	v0,20(sp)
800110d4:	00000000 	nop
800110d8:	8c4500a4 	lw	a1,164(v0)
800110dc:	0c004c9a 	jal	80013268 <printf>
800110e0:	24845f08 	addiu	a0,a0,24328
800110e4:	3c048001 	lui	a0,0x8001
800110e8:	8fa20018 	lw	v0,24(sp)
800110ec:	00000000 	nop
800110f0:	8c4500a4 	lw	a1,164(v0)
800110f4:	0c004c9a 	jal	80013268 <printf>
800110f8:	24845f18 	addiu	a0,a0,24344
800110fc:	3c048001 	lui	a0,0x8001
80011100:	8fa2001c 	lw	v0,28(sp)
80011104:	00000000 	nop
80011108:	8c4500a4 	lw	a1,164(v0)
8001110c:	0c004c9a 	jal	80013268 <printf>
80011110:	24845f28 	addiu	a0,a0,24360
80011114:	8fa20014 	lw	v0,20(sp)
80011118:	00000000 	nop
8001111c:	8c4300a4 	lw	v1,164(v0)
80011120:	24020400 	li	v0,1024
80011124:	10620008 	beq	v1,v0,80011148 <env_check+0x20c>
80011128:	3c048001 	lui	a0,0x8001
8001112c:	24845d88 	addiu	a0,a0,23944
80011130:	2405023e 	li	a1,574
80011134:	3c068001 	lui	a2,0x8001
80011138:	24c65e50 	addiu	a2,a2,24144
8001113c:	3c078001 	lui	a3,0x8001
80011140:	0c004caa 	jal	800132a8 <_panic>
80011144:	24e75f38 	addiu	a3,a3,24376
80011148:	8fa20018 	lw	v0,24(sp)
8001114c:	00000000 	nop
80011150:	8c4300a4 	lw	v1,164(v0)
80011154:	24020c01 	li	v0,3073
80011158:	10620007 	beq	v1,v0,80011178 <env_check+0x23c>
8001115c:	24845d88 	addiu	a0,a0,23944
80011160:	2405023f 	li	a1,575
80011164:	3c068001 	lui	a2,0x8001
80011168:	24c65e50 	addiu	a2,a2,24144
8001116c:	3c078001 	lui	a3,0x8001
80011170:	0c004caa 	jal	800132a8 <_panic>
80011174:	24e75f4c 	addiu	a3,a3,24396
80011178:	8fa2001c 	lw	v0,28(sp)
8001117c:	00000000 	nop
80011180:	8c4300a4 	lw	v1,164(v0)
80011184:	24021402 	li	v0,5122
80011188:	10620008 	beq	v1,v0,800111ac <env_check+0x270>
8001118c:	24050240 	li	a1,576
80011190:	3c048001 	lui	a0,0x8001
80011194:	24845d88 	addiu	a0,a0,23944
80011198:	3c068001 	lui	a2,0x8001
8001119c:	24c65e50 	addiu	a2,a2,24144
800111a0:	3c078001 	lui	a3,0x8001
800111a4:	0c004caa 	jal	800132a8 <_panic>
800111a8:	24e75f60 	addiu	a3,a3,24416
800111ac:	3c048001 	lui	a0,0x8001
800111b0:	0c004c9a 	jal	80013268 <printf>
800111b4:	24845f74 	addiu	a0,a0,24436
800111b8:	8fa2001c 	lw	v0,28(sp)
800111bc:	00000000 	nop
800111c0:	ac4000ac 	sw	zero,172(v0)
800111c4:	8fa2001c 	lw	v0,28(sp)
800111c8:	00000000 	nop
800111cc:	8c4400a4 	lw	a0,164(v0)
800111d0:	27a50010 	addiu	a1,sp,16
800111d4:	0c0040ed 	jal	800103b4 <envid2env>
800111d8:	00003021 	move	a2,zero
800111dc:	00401821 	move	v1,v0
800111e0:	8fa20010 	lw	v0,16(sp)
800111e4:	00000000 	nop
800111e8:	14400003 	bnez	v0,800111f8 <env_check+0x2bc>
800111ec:	2402fffe 	li	v0,-2
800111f0:	10620009 	beq	v1,v0,80011218 <env_check+0x2dc>
800111f4:	24030001 	li	v1,1
800111f8:	3c048001 	lui	a0,0x8001
800111fc:	24845d88 	addiu	a0,a0,23944
80011200:	24050247 	li	a1,583
80011204:	3c068001 	lui	a2,0x8001
80011208:	24c65e50 	addiu	a2,a2,24144
8001120c:	3c078001 	lui	a3,0x8001
80011210:	0c004caa 	jal	800132a8 <_panic>
80011214:	24e75f8c 	addiu	a3,a3,24460
80011218:	8fa2001c 	lw	v0,28(sp)
8001121c:	00000000 	nop
80011220:	ac4300ac 	sw	v1,172(v0)
80011224:	8fa2001c 	lw	v0,28(sp)
80011228:	00000000 	nop
8001122c:	8c4400a4 	lw	a0,164(v0)
80011230:	27a50010 	addiu	a1,sp,16
80011234:	0c0040ed 	jal	800103b4 <envid2env>
80011238:	00003021 	move	a2,zero
8001123c:	00402021 	move	a0,v0
80011240:	8fa5001c 	lw	a1,28(sp)
80011244:	8fa20010 	lw	v0,16(sp)
80011248:	00000000 	nop
8001124c:	8c4300a4 	lw	v1,164(v0)
80011250:	8ca200a4 	lw	v0,164(a1)
80011254:	00000000 	nop
80011258:	14620003 	bne	v1,v0,80011268 <env_check+0x32c>
8001125c:	00000000 	nop
80011260:	10800009 	beqz	a0,80011288 <env_check+0x34c>
80011264:	3c028001 	lui	v0,0x8001
80011268:	3c048001 	lui	a0,0x8001
8001126c:	24845d88 	addiu	a0,a0,23944
80011270:	2405024c 	li	a1,588
80011274:	3c068001 	lui	a2,0x8001
80011278:	24c65e50 	addiu	a2,a2,24144
8001127c:	3c078001 	lui	a3,0x8001
80011280:	0c004caa 	jal	800132a8 <_panic>
80011284:	24e75fa8 	addiu	a3,a3,24488
80011288:	8c506ec4 	lw	s0,28356(v0)
8001128c:	8fa30014 	lw	v1,20(sp)
80011290:	00000000 	nop
80011294:	ac436ec4 	sw	v1,28356(v0)
80011298:	8ca400a4 	lw	a0,164(a1)
8001129c:	27a50010 	addiu	a1,sp,16
800112a0:	0c0040ed 	jal	800103b4 <envid2env>
800112a4:	24060001 	li	a2,1
800112a8:	00401821 	move	v1,v0
800112ac:	8fa20010 	lw	v0,16(sp)
800112b0:	00000000 	nop
800112b4:	14400003 	bnez	v0,800112c4 <env_check+0x388>
800112b8:	2402fffe 	li	v0,-2
800112bc:	10620009 	beq	v1,v0,800112e4 <env_check+0x3a8>
800112c0:	3c028001 	lui	v0,0x8001
800112c4:	3c048001 	lui	a0,0x8001
800112c8:	24845d88 	addiu	a0,a0,23944
800112cc:	24050251 	li	a1,593
800112d0:	3c068001 	lui	a2,0x8001
800112d4:	24c65e50 	addiu	a2,a2,24144
800112d8:	3c078001 	lui	a3,0x8001
800112dc:	0c004caa 	jal	800132a8 <_panic>
800112e0:	24e75f8c 	addiu	a3,a3,24460
800112e4:	ac506ec4 	sw	s0,28356(v0)
800112e8:	3c048001 	lui	a0,0x8001
800112ec:	0c004c9a 	jal	80013268 <printf>
800112f0:	24845fcc 	addiu	a0,a0,24524
800112f4:	3c048001 	lui	a0,0x8001
800112f8:	8fa20018 	lw	v0,24(sp)
800112fc:	00000000 	nop
80011300:	8c4500b0 	lw	a1,176(v0)
80011304:	0c004c9a 	jal	80013268 <printf>
80011308:	24845fe4 	addiu	a0,a0,24548
8001130c:	3c048001 	lui	a0,0x8001
80011310:	8fa20018 	lw	v0,24(sp)
80011314:	00000000 	nop
80011318:	8c4500b4 	lw	a1,180(v0)
8001131c:	0c004c9a 	jal	80013268 <printf>
80011320:	24845ff8 	addiu	a0,a0,24568
80011324:	8fa2001c 	lw	v0,28(sp)
80011328:	00000000 	nop
8001132c:	8c4400b0 	lw	a0,176(v0)
80011330:	3c028001 	lui	v0,0x8001
80011334:	8c426f8c 	lw	v0,28556(v0)
80011338:	8c8307f4 	lw	v1,2036(a0)
8001133c:	8c4207f4 	lw	v0,2036(v0)
80011340:	00000000 	nop
80011344:	10620008 	beq	v1,v0,80011368 <env_check+0x42c>
80011348:	24050259 	li	a1,601
8001134c:	3c048001 	lui	a0,0x8001
80011350:	24845d88 	addiu	a0,a0,23944
80011354:	3c068001 	lui	a2,0x8001
80011358:	24c65e50 	addiu	a2,a2,24144
8001135c:	3c078001 	lui	a3,0x8001
80011360:	0c004caa 	jal	800132a8 <_panic>
80011364:	24e7600c 	addiu	a3,a3,24588
80011368:	8c8207f0 	lw	v0,2032(a0)
8001136c:	00000000 	nop
80011370:	10400008 	beqz	v0,80011394 <env_check+0x458>
80011374:	2405025a 	li	a1,602
80011378:	3c048001 	lui	a0,0x8001
8001137c:	24845d88 	addiu	a0,a0,23944
80011380:	3c068001 	lui	a2,0x8001
80011384:	24c65e50 	addiu	a2,a2,24144
80011388:	3c078001 	lui	a3,0x8001
8001138c:	0c004caa 	jal	800132a8 <_panic>
80011390:	24e76040 	addiu	a3,a3,24640
80011394:	3c048001 	lui	a0,0x8001
80011398:	0c004c9a 	jal	80013268 <printf>
8001139c:	24846064 	addiu	a0,a0,24676
800113a0:	8fa5001c 	lw	a1,28(sp)
800113a4:	00000000 	nop
800113a8:	8ca30080 	lw	v1,128(a1)
800113ac:	3c021000 	lui	v0,0x1000
800113b0:	34421004 	ori	v0,v0,0x1004
800113b4:	10620008 	beq	v1,v0,800113d8 <env_check+0x49c>
800113b8:	3c048001 	lui	a0,0x8001
800113bc:	24845d88 	addiu	a0,a0,23944
800113c0:	2405025d 	li	a1,605
800113c4:	3c068001 	lui	a2,0x8001
800113c8:	24c65e50 	addiu	a2,a2,24144
800113cc:	3c078001 	lui	a3,0x8001
800113d0:	0c004caa 	jal	800132a8 <_panic>
800113d4:	24e7607c 	addiu	a3,a3,24700
800113d8:	3c048001 	lui	a0,0x8001
800113dc:	8ca50074 	lw	a1,116(a1)
800113e0:	0c004c9a 	jal	80013268 <printf>
800113e4:	248460a4 	addiu	a0,a0,24740
800113e8:	3c048001 	lui	a0,0x8001
800113ec:	8c836f80 	lw	v1,28544(a0)
800113f0:	8fa20014 	lw	v0,20(sp)
800113f4:	10600006 	beqz	v1,80011410 <env_check+0x4d4>
800113f8:	ac4300b8 	sw	v1,184(v0)
800113fc:	8c836f80 	lw	v1,28544(a0)
80011400:	8fa20014 	lw	v0,20(sp)
80011404:	00000000 	nop
80011408:	244200b8 	addiu	v0,v0,184
8001140c:	ac6200bc 	sw	v0,188(v1)
80011410:	8fa30014 	lw	v1,20(sp)
80011414:	3c048001 	lui	a0,0x8001
80011418:	ac836f80 	sw	v1,28544(a0)
8001141c:	24826f80 	addiu	v0,a0,28544
80011420:	ac6200bc 	sw	v0,188(v1)
80011424:	8c836f80 	lw	v1,28544(a0)
80011428:	8fa20018 	lw	v0,24(sp)
8001142c:	10600006 	beqz	v1,80011448 <env_check+0x50c>
80011430:	ac4300b8 	sw	v1,184(v0)
80011434:	8c836f80 	lw	v1,28544(a0)
80011438:	8fa20018 	lw	v0,24(sp)
8001143c:	00000000 	nop
80011440:	244200b8 	addiu	v0,v0,184
80011444:	ac6200bc 	sw	v0,188(v1)
80011448:	8fa30018 	lw	v1,24(sp)
8001144c:	3c048001 	lui	a0,0x8001
80011450:	ac836f80 	sw	v1,28544(a0)
80011454:	24826f80 	addiu	v0,a0,28544
80011458:	ac6200bc 	sw	v0,188(v1)
8001145c:	8c836f80 	lw	v1,28544(a0)
80011460:	8fa2001c 	lw	v0,28(sp)
80011464:	10600006 	beqz	v1,80011480 <env_check+0x544>
80011468:	ac4300b8 	sw	v1,184(v0)
8001146c:	8c836f80 	lw	v1,28544(a0)
80011470:	8fa2001c 	lw	v0,28(sp)
80011474:	00000000 	nop
80011478:	244200b8 	addiu	v0,v0,184
8001147c:	ac6200bc 	sw	v0,188(v1)
80011480:	8fa2001c 	lw	v0,28(sp)
80011484:	3c038001 	lui	v1,0x8001
80011488:	ac626f80 	sw	v0,28544(v1)
8001148c:	24636f80 	addiu	v1,v1,28544
80011490:	ac4300bc 	sw	v1,188(v0)
80011494:	8fa4001c 	lw	a0,28(sp)
80011498:	0c0042fb 	jal	80010bec <env_free>
8001149c:	00000000 	nop
800114a0:	8fa40018 	lw	a0,24(sp)
800114a4:	0c0042fb 	jal	80010bec <env_free>
800114a8:	00000000 	nop
800114ac:	8fa40014 	lw	a0,20(sp)
800114b0:	0c0042fb 	jal	80010bec <env_free>
800114b4:	00000000 	nop
800114b8:	3c048001 	lui	a0,0x8001
800114bc:	0c004c9a 	jal	80013268 <printf>
800114c0:	248460bc 	addiu	a0,a0,24764
800114c4:	8fbf0024 	lw	ra,36(sp)
800114c8:	8fb00020 	lw	s0,32(sp)
800114cc:	03e00008 	jr	ra
800114d0:	27bd0028 	addiu	sp,sp,40

800114d4 <load_icode_check>:
800114d4:	27bdffe0 	addiu	sp,sp,-32
800114d8:	afbf0018 	sw	ra,24(sp)
800114dc:	3c048001 	lui	a0,0x8001
800114e0:	3c028002 	lui	v0,0x8002
800114e4:	8c4528d8 	lw	a1,10456(v0)
800114e8:	0c0042f3 	jal	80010bcc <env_create>
800114ec:	24846fb0 	addiu	a0,a0,28592
800114f0:	24040400 	li	a0,1024
800114f4:	27a50010 	addiu	a1,sp,16
800114f8:	0c0040ed 	jal	800103b4 <envid2env>
800114fc:	00003021 	move	a2,zero
80011500:	10400009 	beqz	v0,80011528 <load_icode_check+0x54>
80011504:	3c050040 	lui	a1,0x40
80011508:	3c048001 	lui	a0,0x8001
8001150c:	24845d88 	addiu	a0,a0,23944
80011510:	24050275 	li	a1,629
80011514:	3c068001 	lui	a2,0x8001
80011518:	24c65e50 	addiu	a2,a2,24144
8001151c:	3c078001 	lui	a3,0x8001
80011520:	0c004caa 	jal	800132a8 <_panic>
80011524:	24e760d4 	addiu	a3,a3,24788
80011528:	8fa20010 	lw	v0,16(sp)
8001152c:	00000000 	nop
80011530:	8c4400b0 	lw	a0,176(v0)
80011534:	34a51000 	ori	a1,a1,0x1000
80011538:	00003021 	move	a2,zero
8001153c:	0c00506c 	jal	800141b0 <pgdir_walk>
80011540:	27a70014 	addiu	a3,sp,20
80011544:	10400008 	beqz	v0,80011568 <load_icode_check+0x94>
80011548:	3c048001 	lui	a0,0x8001
8001154c:	24845d88 	addiu	a0,a0,23944
80011550:	24050278 	li	a1,632
80011554:	3c068001 	lui	a2,0x8001
80011558:	24c65e50 	addiu	a2,a2,24144
8001155c:	3c078001 	lui	a3,0x8001
80011560:	0c004caa 	jal	800132a8 <_panic>
80011564:	24e760f0 	addiu	a3,a3,24816
80011568:	8fa20014 	lw	v0,20(sp)
8001156c:	00000000 	nop
80011570:	8c430000 	lw	v1,0(v0)
80011574:	2402f000 	li	v0,-4096
80011578:	00623824 	and	a3,v1,v0
8001157c:	00071302 	srl	v0,a3,0xc
80011580:	3c038001 	lui	v1,0x8001
80011584:	8c636f88 	lw	v1,28552(v1)
80011588:	00000000 	nop
8001158c:	0043102b 	sltu	v0,v0,v1
80011590:	14400007 	bnez	v0,800115b0 <load_icode_check+0xdc>
80011594:	3c028000 	lui	v0,0x8000
80011598:	3c048001 	lui	a0,0x8001
8001159c:	24845d88 	addiu	a0,a0,23944
800115a0:	2405027b 	li	a1,635
800115a4:	3c068001 	lui	a2,0x8001
800115a8:	0c004caa 	jal	800132a8 <_panic>
800115ac:	24c65ddc 	addiu	a2,a2,24028
800115b0:	00e23821 	addu	a3,a3,v0
800115b4:	8ce30030 	lw	v1,48(a3)
800115b8:	3c028fa4 	lui	v0,0x8fa4
800115bc:	10620009 	beq	v1,v0,800115e4 <load_icode_check+0x110>
800115c0:	3c022630 	lui	v0,0x2630
800115c4:	3c048001 	lui	a0,0x8001
800115c8:	24845d88 	addiu	a0,a0,23944
800115cc:	2405027b 	li	a1,635
800115d0:	3c068001 	lui	a2,0x8001
800115d4:	24c65e50 	addiu	a2,a2,24144
800115d8:	3c078001 	lui	a3,0x8001
800115dc:	0c004caa 	jal	800132a8 <_panic>
800115e0:	24e76124 	addiu	a3,a3,24868
800115e4:	8ce30ffc 	lw	v1,4092(a3)
800115e8:	34420001 	ori	v0,v0,0x1
800115ec:	10620009 	beq	v1,v0,80011614 <load_icode_check+0x140>
800115f0:	3c050040 	lui	a1,0x40
800115f4:	3c048001 	lui	a0,0x8001
800115f8:	24845d88 	addiu	a0,a0,23944
800115fc:	2405027c 	li	a1,636
80011600:	3c068001 	lui	a2,0x8001
80011604:	24c65e50 	addiu	a2,a2,24144
80011608:	3c078001 	lui	a3,0x8001
8001160c:	0c004caa 	jal	800132a8 <_panic>
80011610:	24e76158 	addiu	a3,a3,24920
80011614:	8fa20010 	lw	v0,16(sp)
80011618:	00000000 	nop
8001161c:	8c4400b0 	lw	a0,176(v0)
80011620:	34a52000 	ori	a1,a1,0x2000
80011624:	00003021 	move	a2,zero
80011628:	0c00506c 	jal	800141b0 <pgdir_walk>
8001162c:	27a70014 	addiu	a3,sp,20
80011630:	10400008 	beqz	v0,80011654 <load_icode_check+0x180>
80011634:	3c048001 	lui	a0,0x8001
80011638:	24845d88 	addiu	a0,a0,23944
8001163c:	2405027d 	li	a1,637
80011640:	3c068001 	lui	a2,0x8001
80011644:	24c65e50 	addiu	a2,a2,24144
80011648:	3c078001 	lui	a3,0x8001
8001164c:	0c004caa 	jal	800132a8 <_panic>
80011650:	24e76190 	addiu	a3,a3,24976
80011654:	8fa20014 	lw	v0,20(sp)
80011658:	00000000 	nop
8001165c:	8c430000 	lw	v1,0(v0)
80011660:	2402f000 	li	v0,-4096
80011664:	00623824 	and	a3,v1,v0
80011668:	00071302 	srl	v0,a3,0xc
8001166c:	3c038001 	lui	v1,0x8001
80011670:	8c636f88 	lw	v1,28552(v1)
80011674:	00000000 	nop
80011678:	0043102b 	sltu	v0,v0,v1
8001167c:	14400007 	bnez	v0,8001169c <load_icode_check+0x1c8>
80011680:	3c028000 	lui	v0,0x8000
80011684:	3c048001 	lui	a0,0x8001
80011688:	24845d88 	addiu	a0,a0,23944
8001168c:	2405027e 	li	a1,638
80011690:	3c068001 	lui	a2,0x8001
80011694:	0c004caa 	jal	800132a8 <_panic>
80011698:	24c65ddc 	addiu	a2,a2,24028
8001169c:	00e23821 	addu	a3,a3,v0
800116a0:	8ce30000 	lw	v1,0(a3)
800116a4:	3c021080 	lui	v0,0x1080
800116a8:	34420004 	ori	v0,v0,0x4
800116ac:	10620009 	beq	v1,v0,800116d4 <load_icode_check+0x200>
800116b0:	3c020080 	lui	v0,0x80
800116b4:	3c048001 	lui	a0,0x8001
800116b8:	24845d88 	addiu	a0,a0,23944
800116bc:	2405027e 	li	a1,638
800116c0:	3c068001 	lui	a2,0x8001
800116c4:	24c65e50 	addiu	a2,a2,24144
800116c8:	3c078001 	lui	a3,0x8001
800116cc:	0c004caa 	jal	800132a8 <_panic>
800116d0:	24e761c4 	addiu	a3,a3,25028
800116d4:	8ce30ffc 	lw	v1,4092(a3)
800116d8:	34421821 	ori	v0,v0,0x1821
800116dc:	10620009 	beq	v1,v0,80011704 <load_icode_check+0x230>
800116e0:	3c050040 	lui	a1,0x40
800116e4:	3c048001 	lui	a0,0x8001
800116e8:	24845d88 	addiu	a0,a0,23944
800116ec:	2405027f 	li	a1,639
800116f0:	3c068001 	lui	a2,0x8001
800116f4:	24c65e50 	addiu	a2,a2,24144
800116f8:	3c078001 	lui	a3,0x8001
800116fc:	0c004caa 	jal	800132a8 <_panic>
80011700:	24e761f4 	addiu	a3,a3,25076
80011704:	8fa20010 	lw	v0,16(sp)
80011708:	00000000 	nop
8001170c:	8c4400b0 	lw	a0,176(v0)
80011710:	34a53000 	ori	a1,a1,0x3000
80011714:	00003021 	move	a2,zero
80011718:	0c00506c 	jal	800141b0 <pgdir_walk>
8001171c:	27a70014 	addiu	a3,sp,20
80011720:	10400008 	beqz	v0,80011744 <load_icode_check+0x270>
80011724:	3c048001 	lui	a0,0x8001
80011728:	24845d88 	addiu	a0,a0,23944
8001172c:	24050280 	li	a1,640
80011730:	3c068001 	lui	a2,0x8001
80011734:	24c65e50 	addiu	a2,a2,24144
80011738:	3c078001 	lui	a3,0x8001
8001173c:	0c004caa 	jal	800132a8 <_panic>
80011740:	24e7622c 	addiu	a3,a3,25132
80011744:	8fa20014 	lw	v0,20(sp)
80011748:	00000000 	nop
8001174c:	8c430000 	lw	v1,0(v0)
80011750:	2402f000 	li	v0,-4096
80011754:	00623824 	and	a3,v1,v0
80011758:	00071302 	srl	v0,a3,0xc
8001175c:	3c038001 	lui	v1,0x8001
80011760:	8c636f88 	lw	v1,28552(v1)
80011764:	00000000 	nop
80011768:	0043102b 	sltu	v0,v0,v1
8001176c:	14400007 	bnez	v0,8001178c <load_icode_check+0x2b8>
80011770:	3c028000 	lui	v0,0x8000
80011774:	3c048001 	lui	a0,0x8001
80011778:	24845d88 	addiu	a0,a0,23944
8001177c:	24050281 	li	a1,641
80011780:	3c068001 	lui	a2,0x8001
80011784:	0c004caa 	jal	800132a8 <_panic>
80011788:	24c65ddc 	addiu	a2,a2,24028
8001178c:	00e23821 	addu	a3,a3,v0
80011790:	8ce30000 	lw	v1,0(a3)
80011794:	3c0280a2 	lui	v0,0x80a2
80011798:	10620009 	beq	v1,v0,800117c0 <load_icode_check+0x2ec>
8001179c:	3c022406 	lui	v0,0x2406
800117a0:	3c048001 	lui	a0,0x8001
800117a4:	24845d88 	addiu	a0,a0,23944
800117a8:	24050281 	li	a1,641
800117ac:	3c068001 	lui	a2,0x8001
800117b0:	24c65e50 	addiu	a2,a2,24144
800117b4:	3c078001 	lui	a3,0x8001
800117b8:	0c004caa 	jal	800132a8 <_panic>
800117bc:	24e76260 	addiu	a3,a3,25184
800117c0:	8ce30ffc 	lw	v1,4092(a3)
800117c4:	34420604 	ori	v0,v0,0x604
800117c8:	10620009 	beq	v1,v0,800117f0 <load_icode_check+0x31c>
800117cc:	3c050040 	lui	a1,0x40
800117d0:	3c048001 	lui	a0,0x8001
800117d4:	24845d88 	addiu	a0,a0,23944
800117d8:	24050282 	li	a1,642
800117dc:	3c068001 	lui	a2,0x8001
800117e0:	24c65e50 	addiu	a2,a2,24144
800117e4:	3c078001 	lui	a3,0x8001
800117e8:	0c004caa 	jal	800132a8 <_panic>
800117ec:	24e76290 	addiu	a3,a3,25232
800117f0:	8fa20010 	lw	v0,16(sp)
800117f4:	00000000 	nop
800117f8:	8c4400b0 	lw	a0,176(v0)
800117fc:	34a54000 	ori	a1,a1,0x4000
80011800:	00003021 	move	a2,zero
80011804:	0c00506c 	jal	800141b0 <pgdir_walk>
80011808:	27a70014 	addiu	a3,sp,20
8001180c:	10400008 	beqz	v0,80011830 <load_icode_check+0x35c>
80011810:	3c048001 	lui	a0,0x8001
80011814:	24845d88 	addiu	a0,a0,23944
80011818:	24050283 	li	a1,643
8001181c:	3c068001 	lui	a2,0x8001
80011820:	24c65e50 	addiu	a2,a2,24144
80011824:	3c078001 	lui	a3,0x8001
80011828:	0c004caa 	jal	800132a8 <_panic>
8001182c:	24e762c8 	addiu	a3,a3,25288
80011830:	8fa20014 	lw	v0,20(sp)
80011834:	00000000 	nop
80011838:	8c430000 	lw	v1,0(v0)
8001183c:	2402f000 	li	v0,-4096
80011840:	00623824 	and	a3,v1,v0
80011844:	00071302 	srl	v0,a3,0xc
80011848:	3c038001 	lui	v1,0x8001
8001184c:	8c636f88 	lw	v1,28552(v1)
80011850:	00000000 	nop
80011854:	0043102b 	sltu	v0,v0,v1
80011858:	14400007 	bnez	v0,80011878 <load_icode_check+0x3a4>
8001185c:	3c028000 	lui	v0,0x8000
80011860:	3c048001 	lui	a0,0x8001
80011864:	24845d88 	addiu	a0,a0,23944
80011868:	24050284 	li	a1,644
8001186c:	3c068001 	lui	a2,0x8001
80011870:	0c004caa 	jal	800132a8 <_panic>
80011874:	24c65ddc 	addiu	a2,a2,24028
80011878:	00e23821 	addu	a3,a3,v0
8001187c:	8ce30000 	lw	v1,0(a3)
80011880:	3c020440 	lui	v0,0x440
80011884:	34420043 	ori	v0,v0,0x43
80011888:	10620008 	beq	v1,v0,800118ac <load_icode_check+0x3d8>
8001188c:	3c048001 	lui	a0,0x8001
80011890:	24845d88 	addiu	a0,a0,23944
80011894:	24050284 	li	a1,644
80011898:	3c068001 	lui	a2,0x8001
8001189c:	24c65e50 	addiu	a2,a2,24144
800118a0:	3c078001 	lui	a3,0x8001
800118a4:	0c004caa 	jal	800132a8 <_panic>
800118a8:	24e762fc 	addiu	a3,a3,25340
800118ac:	8ce20ffc 	lw	v0,4092(a3)
800118b0:	00000000 	nop
800118b4:	10400009 	beqz	v0,800118dc <load_icode_check+0x408>
800118b8:	3c050040 	lui	a1,0x40
800118bc:	3c048001 	lui	a0,0x8001
800118c0:	24845d88 	addiu	a0,a0,23944
800118c4:	24050285 	li	a1,645
800118c8:	3c068001 	lui	a2,0x8001
800118cc:	24c65e50 	addiu	a2,a2,24144
800118d0:	3c078001 	lui	a3,0x8001
800118d4:	0c004caa 	jal	800132a8 <_panic>
800118d8:	24e7632c 	addiu	a3,a3,25388
800118dc:	8fa20010 	lw	v0,16(sp)
800118e0:	00000000 	nop
800118e4:	8c4400b0 	lw	a0,176(v0)
800118e8:	34a55000 	ori	a1,a1,0x5000
800118ec:	00003021 	move	a2,zero
800118f0:	0c00506c 	jal	800141b0 <pgdir_walk>
800118f4:	27a70014 	addiu	a3,sp,20
800118f8:	10400008 	beqz	v0,8001191c <load_icode_check+0x448>
800118fc:	3c048001 	lui	a0,0x8001
80011900:	24845d88 	addiu	a0,a0,23944
80011904:	24050286 	li	a1,646
80011908:	3c068001 	lui	a2,0x8001
8001190c:	24c65e50 	addiu	a2,a2,24144
80011910:	3c078001 	lui	a3,0x8001
80011914:	0c004caa 	jal	800132a8 <_panic>
80011918:	24e76364 	addiu	a3,a3,25444
8001191c:	8fa20014 	lw	v0,20(sp)
80011920:	00000000 	nop
80011924:	8c430000 	lw	v1,0(v0)
80011928:	2402f000 	li	v0,-4096
8001192c:	00623824 	and	a3,v1,v0
80011930:	00071302 	srl	v0,a3,0xc
80011934:	3c038001 	lui	v1,0x8001
80011938:	8c636f88 	lw	v1,28552(v1)
8001193c:	00000000 	nop
80011940:	0043102b 	sltu	v0,v0,v1
80011944:	14400007 	bnez	v0,80011964 <load_icode_check+0x490>
80011948:	3c028000 	lui	v0,0x8000
8001194c:	3c048001 	lui	a0,0x8001
80011950:	24845d88 	addiu	a0,a0,23944
80011954:	24050287 	li	a1,647
80011958:	3c068001 	lui	a2,0x8001
8001195c:	0c004caa 	jal	800132a8 <_panic>
80011960:	24c65ddc 	addiu	a2,a2,24028
80011964:	00e21821 	addu	v1,a3,v0
80011968:	8c620000 	lw	v0,0(v1)
8001196c:	00000000 	nop
80011970:	10400008 	beqz	v0,80011994 <load_icode_check+0x4c0>
80011974:	3c048001 	lui	a0,0x8001
80011978:	24845d88 	addiu	a0,a0,23944
8001197c:	24050287 	li	a1,647
80011980:	3c068001 	lui	a2,0x8001
80011984:	24c65e50 	addiu	a2,a2,24144
80011988:	3c078001 	lui	a3,0x8001
8001198c:	0c004caa 	jal	800132a8 <_panic>
80011990:	24e76398 	addiu	a3,a3,25496
80011994:	8c620ffc 	lw	v0,4092(v1)
80011998:	00000000 	nop
8001199c:	10400009 	beqz	v0,800119c4 <load_icode_check+0x4f0>
800119a0:	3c050040 	lui	a1,0x40
800119a4:	3c048001 	lui	a0,0x8001
800119a8:	24845d88 	addiu	a0,a0,23944
800119ac:	24050288 	li	a1,648
800119b0:	3c068001 	lui	a2,0x8001
800119b4:	24c65e50 	addiu	a2,a2,24144
800119b8:	3c078001 	lui	a3,0x8001
800119bc:	0c004caa 	jal	800132a8 <_panic>
800119c0:	24e7632c 	addiu	a3,a3,25388
800119c4:	8fa20010 	lw	v0,16(sp)
800119c8:	00000000 	nop
800119cc:	8c4400b0 	lw	a0,176(v0)
800119d0:	34a56000 	ori	a1,a1,0x6000
800119d4:	00003021 	move	a2,zero
800119d8:	0c00506c 	jal	800141b0 <pgdir_walk>
800119dc:	27a70014 	addiu	a3,sp,20
800119e0:	10400008 	beqz	v0,80011a04 <load_icode_check+0x530>
800119e4:	3c048001 	lui	a0,0x8001
800119e8:	24845d88 	addiu	a0,a0,23944
800119ec:	24050289 	li	a1,649
800119f0:	3c068001 	lui	a2,0x8001
800119f4:	24c65e50 	addiu	a2,a2,24144
800119f8:	3c078001 	lui	a3,0x8001
800119fc:	0c004caa 	jal	800132a8 <_panic>
80011a00:	24e763c8 	addiu	a3,a3,25544
80011a04:	8fa20014 	lw	v0,20(sp)
80011a08:	00000000 	nop
80011a0c:	8c430000 	lw	v1,0(v0)
80011a10:	2402f000 	li	v0,-4096
80011a14:	00623824 	and	a3,v1,v0
80011a18:	00071302 	srl	v0,a3,0xc
80011a1c:	3c038001 	lui	v1,0x8001
80011a20:	8c636f88 	lw	v1,28552(v1)
80011a24:	00000000 	nop
80011a28:	0043102b 	sltu	v0,v0,v1
80011a2c:	14400007 	bnez	v0,80011a4c <load_icode_check+0x578>
80011a30:	3c028000 	lui	v0,0x8000
80011a34:	3c048001 	lui	a0,0x8001
80011a38:	24845d88 	addiu	a0,a0,23944
80011a3c:	2405028a 	li	a1,650
80011a40:	3c068001 	lui	a2,0x8001
80011a44:	0c004caa 	jal	800132a8 <_panic>
80011a48:	24c65ddc 	addiu	a2,a2,24028
80011a4c:	00e21821 	addu	v1,a3,v0
80011a50:	8c620000 	lw	v0,0(v1)
80011a54:	00000000 	nop
80011a58:	10400008 	beqz	v0,80011a7c <load_icode_check+0x5a8>
80011a5c:	3c048001 	lui	a0,0x8001
80011a60:	24845d88 	addiu	a0,a0,23944
80011a64:	2405028a 	li	a1,650
80011a68:	3c068001 	lui	a2,0x8001
80011a6c:	24c65e50 	addiu	a2,a2,24144
80011a70:	3c078001 	lui	a3,0x8001
80011a74:	0c004caa 	jal	800132a8 <_panic>
80011a78:	24e76398 	addiu	a3,a3,25496
80011a7c:	8c620ffc 	lw	v0,4092(v1)
80011a80:	00000000 	nop
80011a84:	10400009 	beqz	v0,80011aac <load_icode_check+0x5d8>
80011a88:	3c050040 	lui	a1,0x40
80011a8c:	3c048001 	lui	a0,0x8001
80011a90:	24845d88 	addiu	a0,a0,23944
80011a94:	2405028b 	li	a1,651
80011a98:	3c068001 	lui	a2,0x8001
80011a9c:	24c65e50 	addiu	a2,a2,24144
80011aa0:	3c078001 	lui	a3,0x8001
80011aa4:	0c004caa 	jal	800132a8 <_panic>
80011aa8:	24e7632c 	addiu	a3,a3,25388
80011aac:	8fa20010 	lw	v0,16(sp)
80011ab0:	00000000 	nop
80011ab4:	8c4400b0 	lw	a0,176(v0)
80011ab8:	34a57000 	ori	a1,a1,0x7000
80011abc:	00003021 	move	a2,zero
80011ac0:	0c00506c 	jal	800141b0 <pgdir_walk>
80011ac4:	27a70014 	addiu	a3,sp,20
80011ac8:	10400008 	beqz	v0,80011aec <load_icode_check+0x618>
80011acc:	3c048001 	lui	a0,0x8001
80011ad0:	24845d88 	addiu	a0,a0,23944
80011ad4:	2405028c 	li	a1,652
80011ad8:	3c068001 	lui	a2,0x8001
80011adc:	24c65e50 	addiu	a2,a2,24144
80011ae0:	3c078001 	lui	a3,0x8001
80011ae4:	0c004caa 	jal	800132a8 <_panic>
80011ae8:	24e763fc 	addiu	a3,a3,25596
80011aec:	8fa20014 	lw	v0,20(sp)
80011af0:	00000000 	nop
80011af4:	8c430000 	lw	v1,0(v0)
80011af8:	2402f000 	li	v0,-4096
80011afc:	00623824 	and	a3,v1,v0
80011b00:	00071302 	srl	v0,a3,0xc
80011b04:	3c038001 	lui	v1,0x8001
80011b08:	8c636f88 	lw	v1,28552(v1)
80011b0c:	00000000 	nop
80011b10:	0043102b 	sltu	v0,v0,v1
80011b14:	14400007 	bnez	v0,80011b34 <load_icode_check+0x660>
80011b18:	3c028000 	lui	v0,0x8000
80011b1c:	3c048001 	lui	a0,0x8001
80011b20:	24845d88 	addiu	a0,a0,23944
80011b24:	2405028d 	li	a1,653
80011b28:	3c068001 	lui	a2,0x8001
80011b2c:	0c004caa 	jal	800132a8 <_panic>
80011b30:	24c65ddc 	addiu	a2,a2,24028
80011b34:	00e23821 	addu	a3,a3,v0
80011b38:	8ce30000 	lw	v1,0(a3)
80011b3c:	3c027f40 	lui	v0,0x7f40
80011b40:	10620008 	beq	v1,v0,80011b64 <load_icode_check+0x690>
80011b44:	3c048001 	lui	a0,0x8001
80011b48:	24845d88 	addiu	a0,a0,23944
80011b4c:	2405028d 	li	a1,653
80011b50:	3c068001 	lui	a2,0x8001
80011b54:	24c65e50 	addiu	a2,a2,24144
80011b58:	3c078001 	lui	a3,0x8001
80011b5c:	0c004caa 	jal	800132a8 <_panic>
80011b60:	24e76430 	addiu	a3,a3,25648
80011b64:	8ce20ffc 	lw	v0,4092(a3)
80011b68:	00000000 	nop
80011b6c:	10400009 	beqz	v0,80011b94 <load_icode_check+0x6c0>
80011b70:	3c050040 	lui	a1,0x40
80011b74:	3c048001 	lui	a0,0x8001
80011b78:	24845d88 	addiu	a0,a0,23944
80011b7c:	2405028e 	li	a1,654
80011b80:	3c068001 	lui	a2,0x8001
80011b84:	24c65e50 	addiu	a2,a2,24144
80011b88:	3c078001 	lui	a3,0x8001
80011b8c:	0c004caa 	jal	800132a8 <_panic>
80011b90:	24e7632c 	addiu	a3,a3,25388
80011b94:	8fa20010 	lw	v0,16(sp)
80011b98:	00000000 	nop
80011b9c:	8c4400b0 	lw	a0,176(v0)
80011ba0:	34a58000 	ori	a1,a1,0x8000
80011ba4:	00003021 	move	a2,zero
80011ba8:	0c00506c 	jal	800141b0 <pgdir_walk>
80011bac:	27a70014 	addiu	a3,sp,20
80011bb0:	10400008 	beqz	v0,80011bd4 <load_icode_check+0x700>
80011bb4:	3c048001 	lui	a0,0x8001
80011bb8:	24845d88 	addiu	a0,a0,23944
80011bbc:	2405028f 	li	a1,655
80011bc0:	3c068001 	lui	a2,0x8001
80011bc4:	24c65e50 	addiu	a2,a2,24144
80011bc8:	3c078001 	lui	a3,0x8001
80011bcc:	0c004caa 	jal	800132a8 <_panic>
80011bd0:	24e76460 	addiu	a3,a3,25696
80011bd4:	8fa20014 	lw	v0,20(sp)
80011bd8:	00000000 	nop
80011bdc:	8c430000 	lw	v1,0(v0)
80011be0:	2402f000 	li	v0,-4096
80011be4:	00623824 	and	a3,v1,v0
80011be8:	00071302 	srl	v0,a3,0xc
80011bec:	3c038001 	lui	v1,0x8001
80011bf0:	8c636f88 	lw	v1,28552(v1)
80011bf4:	00000000 	nop
80011bf8:	0043102b 	sltu	v0,v0,v1
80011bfc:	14400007 	bnez	v0,80011c1c <load_icode_check+0x748>
80011c00:	3c028000 	lui	v0,0x8000
80011c04:	3c048001 	lui	a0,0x8001
80011c08:	24845d88 	addiu	a0,a0,23944
80011c0c:	24050290 	li	a1,656
80011c10:	3c068001 	lui	a2,0x8001
80011c14:	0c004caa 	jal	800132a8 <_panic>
80011c18:	24c65ddc 	addiu	a2,a2,24028
80011c1c:	00e23821 	addu	a3,a3,v0
80011c20:	8ce30000 	lw	v1,0(a3)
80011c24:	3402fffe 	li	v0,0xfffe
80011c28:	10620008 	beq	v1,v0,80011c4c <load_icode_check+0x778>
80011c2c:	3c048001 	lui	a0,0x8001
80011c30:	24845d88 	addiu	a0,a0,23944
80011c34:	24050290 	li	a1,656
80011c38:	3c068001 	lui	a2,0x8001
80011c3c:	24c65e50 	addiu	a2,a2,24144
80011c40:	3c078001 	lui	a3,0x8001
80011c44:	0c004caa 	jal	800132a8 <_panic>
80011c48:	24e76494 	addiu	a3,a3,25748
80011c4c:	8ce20ffc 	lw	v0,4092(a3)
80011c50:	00000000 	nop
80011c54:	10400009 	beqz	v0,80011c7c <load_icode_check+0x7a8>
80011c58:	3c050040 	lui	a1,0x40
80011c5c:	3c048001 	lui	a0,0x8001
80011c60:	24845d88 	addiu	a0,a0,23944
80011c64:	24050291 	li	a1,657
80011c68:	3c068001 	lui	a2,0x8001
80011c6c:	24c65e50 	addiu	a2,a2,24144
80011c70:	3c078001 	lui	a3,0x8001
80011c74:	0c004caa 	jal	800132a8 <_panic>
80011c78:	24e7632c 	addiu	a3,a3,25388
80011c7c:	8fa20010 	lw	v0,16(sp)
80011c80:	00000000 	nop
80011c84:	8c4400b0 	lw	a0,176(v0)
80011c88:	34a59000 	ori	a1,a1,0x9000
80011c8c:	00003021 	move	a2,zero
80011c90:	0c00506c 	jal	800141b0 <pgdir_walk>
80011c94:	27a70014 	addiu	a3,sp,20
80011c98:	10400008 	beqz	v0,80011cbc <load_icode_check+0x7e8>
80011c9c:	3c048001 	lui	a0,0x8001
80011ca0:	24845d88 	addiu	a0,a0,23944
80011ca4:	24050292 	li	a1,658
80011ca8:	3c068001 	lui	a2,0x8001
80011cac:	24c65e50 	addiu	a2,a2,24144
80011cb0:	3c078001 	lui	a3,0x8001
80011cb4:	0c004caa 	jal	800132a8 <_panic>
80011cb8:	24e764c4 	addiu	a3,a3,25796
80011cbc:	8fa20014 	lw	v0,20(sp)
80011cc0:	00000000 	nop
80011cc4:	8c430000 	lw	v1,0(v0)
80011cc8:	2402f000 	li	v0,-4096
80011ccc:	00623824 	and	a3,v1,v0
80011cd0:	00071302 	srl	v0,a3,0xc
80011cd4:	3c038001 	lui	v1,0x8001
80011cd8:	8c636f88 	lw	v1,28552(v1)
80011cdc:	00000000 	nop
80011ce0:	0043102b 	sltu	v0,v0,v1
80011ce4:	14400007 	bnez	v0,80011d04 <load_icode_check+0x830>
80011ce8:	3c028000 	lui	v0,0x8000
80011cec:	3c048001 	lui	a0,0x8001
80011cf0:	24845d88 	addiu	a0,a0,23944
80011cf4:	24050293 	li	a1,659
80011cf8:	3c068001 	lui	a2,0x8001
80011cfc:	0c004caa 	jal	800132a8 <_panic>
80011d00:	24c65ddc 	addiu	a2,a2,24028
80011d04:	00e21821 	addu	v1,a3,v0
80011d08:	8c620000 	lw	v0,0(v1)
80011d0c:	00000000 	nop
80011d10:	10400009 	beqz	v0,80011d38 <load_icode_check+0x864>
80011d14:	3c020040 	lui	v0,0x40
80011d18:	3c048001 	lui	a0,0x8001
80011d1c:	24845d88 	addiu	a0,a0,23944
80011d20:	24050293 	li	a1,659
80011d24:	3c068001 	lui	a2,0x8001
80011d28:	24c65e50 	addiu	a2,a2,24144
80011d2c:	3c078001 	lui	a3,0x8001
80011d30:	0c004caa 	jal	800132a8 <_panic>
80011d34:	24e76398 	addiu	a3,a3,25496
80011d38:	8c630aa8 	lw	v1,2728(v1)
80011d3c:	344299fc 	ori	v0,v0,0x99fc
80011d40:	10620008 	beq	v1,v0,80011d64 <load_icode_check+0x890>
80011d44:	24050294 	li	a1,660
80011d48:	3c048001 	lui	a0,0x8001
80011d4c:	24845d88 	addiu	a0,a0,23944
80011d50:	3c068001 	lui	a2,0x8001
80011d54:	24c65e50 	addiu	a2,a2,24144
80011d58:	3c078001 	lui	a3,0x8001
80011d5c:	0c004caa 	jal	800132a8 <_panic>
80011d60:	24e764f8 	addiu	a3,a3,25848
80011d64:	3c048001 	lui	a0,0x8001
80011d68:	0c004c9a 	jal	80013268 <printf>
80011d6c:	24846530 	addiu	a0,a0,25904
80011d70:	8fa20014 	lw	v0,20(sp)
80011d74:	00000000 	nop
80011d78:	8c430000 	lw	v1,0(v0)
80011d7c:	2402f000 	li	v0,-4096
80011d80:	00623824 	and	a3,v1,v0
80011d84:	00071302 	srl	v0,a3,0xc
80011d88:	3c038001 	lui	v1,0x8001
80011d8c:	8c636f88 	lw	v1,28552(v1)
80011d90:	00000000 	nop
80011d94:	0043102b 	sltu	v0,v0,v1
80011d98:	14400007 	bnez	v0,80011db8 <load_icode_check+0x8e4>
80011d9c:	3c028000 	lui	v0,0x8000
80011da0:	3c048001 	lui	a0,0x8001
80011da4:	24845d88 	addiu	a0,a0,23944
80011da8:	24050297 	li	a1,663
80011dac:	3c068001 	lui	a2,0x8001
80011db0:	0c004caa 	jal	800132a8 <_panic>
80011db4:	24c65ddc 	addiu	a2,a2,24028
80011db8:	00e21821 	addu	v1,a3,v0
80011dbc:	8c620adc 	lw	v0,2780(v1)
80011dc0:	00000000 	nop
80011dc4:	10400008 	beqz	v0,80011de8 <load_icode_check+0x914>
80011dc8:	3c048001 	lui	a0,0x8001
80011dcc:	24845d88 	addiu	a0,a0,23944
80011dd0:	24050297 	li	a1,663
80011dd4:	3c068001 	lui	a2,0x8001
80011dd8:	24c65e50 	addiu	a2,a2,24144
80011ddc:	3c078001 	lui	a3,0x8001
80011de0:	0c004caa 	jal	800132a8 <_panic>
80011de4:	24e76554 	addiu	a3,a3,25940
80011de8:	8c620ffc 	lw	v0,4092(v1)
80011dec:	00000000 	nop
80011df0:	10400009 	beqz	v0,80011e18 <load_icode_check+0x944>
80011df4:	3c050040 	lui	a1,0x40
80011df8:	3c048001 	lui	a0,0x8001
80011dfc:	24845d88 	addiu	a0,a0,23944
80011e00:	24050298 	li	a1,664
80011e04:	3c068001 	lui	a2,0x8001
80011e08:	24c65e50 	addiu	a2,a2,24144
80011e0c:	3c078001 	lui	a3,0x8001
80011e10:	0c004caa 	jal	800132a8 <_panic>
80011e14:	24e7632c 	addiu	a3,a3,25388
80011e18:	8fa20010 	lw	v0,16(sp)
80011e1c:	00000000 	nop
80011e20:	8c4400b0 	lw	a0,176(v0)
80011e24:	34a5a000 	ori	a1,a1,0xa000
80011e28:	00003021 	move	a2,zero
80011e2c:	0c00506c 	jal	800141b0 <pgdir_walk>
80011e30:	27a70014 	addiu	a3,sp,20
80011e34:	10400008 	beqz	v0,80011e58 <load_icode_check+0x984>
80011e38:	3c048001 	lui	a0,0x8001
80011e3c:	24845d88 	addiu	a0,a0,23944
80011e40:	24050299 	li	a1,665
80011e44:	3c068001 	lui	a2,0x8001
80011e48:	24c65e50 	addiu	a2,a2,24144
80011e4c:	3c078001 	lui	a3,0x8001
80011e50:	0c004caa 	jal	800132a8 <_panic>
80011e54:	24e7658c 	addiu	a3,a3,25996
80011e58:	8fa20014 	lw	v0,20(sp)
80011e5c:	00000000 	nop
80011e60:	8c430000 	lw	v1,0(v0)
80011e64:	2402f000 	li	v0,-4096
80011e68:	00623824 	and	a3,v1,v0
80011e6c:	00071302 	srl	v0,a3,0xc
80011e70:	3c038001 	lui	v1,0x8001
80011e74:	8c636f88 	lw	v1,28552(v1)
80011e78:	00000000 	nop
80011e7c:	0043102b 	sltu	v0,v0,v1
80011e80:	14400007 	bnez	v0,80011ea0 <load_icode_check+0x9cc>
80011e84:	3c028000 	lui	v0,0x8000
80011e88:	3c048001 	lui	a0,0x8001
80011e8c:	24845d88 	addiu	a0,a0,23944
80011e90:	2405029a 	li	a1,666
80011e94:	3c068001 	lui	a2,0x8001
80011e98:	0c004caa 	jal	800132a8 <_panic>
80011e9c:	24c65ddc 	addiu	a2,a2,24028
80011ea0:	00e21821 	addu	v1,a3,v0
80011ea4:	8c620000 	lw	v0,0(v1)
80011ea8:	00000000 	nop
80011eac:	10400008 	beqz	v0,80011ed0 <load_icode_check+0x9fc>
80011eb0:	3c048001 	lui	a0,0x8001
80011eb4:	24845d88 	addiu	a0,a0,23944
80011eb8:	2405029a 	li	a1,666
80011ebc:	3c068001 	lui	a2,0x8001
80011ec0:	24c65e50 	addiu	a2,a2,24144
80011ec4:	3c078001 	lui	a3,0x8001
80011ec8:	0c004caa 	jal	800132a8 <_panic>
80011ecc:	24e76398 	addiu	a3,a3,25496
80011ed0:	8c620ab0 	lw	v0,2736(v1)
80011ed4:	00000000 	nop
80011ed8:	10400007 	beqz	v0,80011ef8 <load_icode_check+0xa24>
80011edc:	24845d88 	addiu	a0,a0,23944
80011ee0:	2405029b 	li	a1,667
80011ee4:	3c068001 	lui	a2,0x8001
80011ee8:	24c65e50 	addiu	a2,a2,24144
80011eec:	3c078001 	lui	a3,0x8001
80011ef0:	0c004caa 	jal	800132a8 <_panic>
80011ef4:	24e765c0 	addiu	a3,a3,26048
80011ef8:	8c620ab4 	lw	v0,2740(v1)
80011efc:	00000000 	nop
80011f00:	10400008 	beqz	v0,80011f24 <load_icode_check+0xa50>
80011f04:	3c048001 	lui	a0,0x8001
80011f08:	24845d88 	addiu	a0,a0,23944
80011f0c:	2405029c 	li	a1,668
80011f10:	3c068001 	lui	a2,0x8001
80011f14:	24c65e50 	addiu	a2,a2,24144
80011f18:	3c078001 	lui	a3,0x8001
80011f1c:	0c004caa 	jal	800132a8 <_panic>
80011f20:	24e765f8 	addiu	a3,a3,26104
80011f24:	8c620ffc 	lw	v0,4092(v1)
80011f28:	00000000 	nop
80011f2c:	10400008 	beqz	v0,80011f50 <load_icode_check+0xa7c>
80011f30:	2405029d 	li	a1,669
80011f34:	3c048001 	lui	a0,0x8001
80011f38:	24845d88 	addiu	a0,a0,23944
80011f3c:	3c068001 	lui	a2,0x8001
80011f40:	24c65e50 	addiu	a2,a2,24144
80011f44:	3c078001 	lui	a3,0x8001
80011f48:	0c004caa 	jal	800132a8 <_panic>
80011f4c:	24e7632c 	addiu	a3,a3,25388
80011f50:	3c048001 	lui	a0,0x8001
80011f54:	0c004c9a 	jal	80013268 <printf>
80011f58:	24846630 	addiu	a0,a0,26160
80011f5c:	8fa40010 	lw	a0,16(sp)
80011f60:	0c0042fb 	jal	80010bec <env_free>
80011f64:	00000000 	nop
80011f68:	3c048001 	lui	a0,0x8001
80011f6c:	0c004c9a 	jal	80013268 <printf>
80011f70:	2484664c 	addiu	a0,a0,26188
80011f74:	8fbf0018 	lw	ra,24(sp)
80011f78:	00000000 	nop
80011f7c:	03e00008 	jr	ra
80011f80:	27bd0020 	addiu	sp,sp,32
	...

80011f90 <env_pop_tf>:
80011f90:	00000000 	nop
80011f94:	0080d021 	move	k0,a0
80011f98:	40855000 	mtc0	a1,$10
80011f9c:	40086000 	mfc0	t0,$12
80011fa0:	35080003 	ori	t0,t0,0x3
80011fa4:	39080003 	xori	t0,t0,0x3
80011fa8:	40886000 	mtc0	t0,$12
80011fac:	8f430088 	lw	v1,136(k0)
80011fb0:	00600013 	mtlo	v1
80011fb4:	8f420084 	lw	v0,132(k0)
80011fb8:	8f430094 	lw	v1,148(k0)
80011fbc:	00400011 	mthi	v0
80011fc0:	40837000 	mtc0	v1,$14
80011fc4:	8f5f007c 	lw	ra,124(k0)
80011fc8:	8f5e0078 	lw	s8,120(k0)
80011fcc:	8f5d0074 	lw	sp,116(k0)
80011fd0:	8f5c0070 	lw	gp,112(k0)
80011fd4:	8f590064 	lw	t9,100(k0)
80011fd8:	8f580060 	lw	t8,96(k0)
80011fdc:	8f57005c 	lw	s7,92(k0)
80011fe0:	8f560058 	lw	s6,88(k0)
80011fe4:	8f550054 	lw	s5,84(k0)
80011fe8:	8f540050 	lw	s4,80(k0)
80011fec:	8f53004c 	lw	s3,76(k0)
80011ff0:	8f520048 	lw	s2,72(k0)
80011ff4:	8f510044 	lw	s1,68(k0)
80011ff8:	8f500040 	lw	s0,64(k0)
80011ffc:	8f4f003c 	lw	t7,60(k0)
80012000:	8f4e0038 	lw	t6,56(k0)
80012004:	8f4d0034 	lw	t5,52(k0)
80012008:	8f4c0030 	lw	t4,48(k0)
8001200c:	8f4b002c 	lw	t3,44(k0)
80012010:	8f4a0028 	lw	t2,40(k0)
80012014:	8f490024 	lw	t1,36(k0)
80012018:	8f480020 	lw	t0,32(k0)
8001201c:	8f47001c 	lw	a3,28(k0)
80012020:	8f460018 	lw	a2,24(k0)
80012024:	8f450014 	lw	a1,20(k0)
80012028:	8f440010 	lw	a0,16(k0)
8001202c:	8f43000c 	lw	v1,12(k0)
80012030:	8f420008 	lw	v0,8(k0)
80012034:	8f410004 	lw	at,4(k0)
80012038:	8f5b0098 	lw	k1,152(k0)
8001203c:	8f5a0080 	lw	k0,128(k0)
80012040:	00000000 	nop
80012044:	409a6000 	mtc0	k0,$12
80012048:	03600008 	jr	k1
8001204c:	42000010 	rfe
80012050:	00000000 	nop

80012054 <lcontext>:
80012054:	3c018001 	lui	at,0x8001
80012058:	ac246fa0 	sw	a0,28576(at)
8001205c:	03e00008 	jr	ra
80012060:	00000000 	nop
	...

80012080 <ret_from_exception>:
80012080:	40086000 	mfc0	t0,$12
80012084:	35080003 	ori	t0,t0,0x3
80012088:	39080003 	xori	t0,t0,0x3
8001208c:	40886000 	mtc0	t0,$12
80012090:	8fa20080 	lw	v0,128(sp)
80012094:	3403ff00 	li	v1,0xff00
80012098:	01034024 	and	t0,t0,v1
8001209c:	00031827 	nor	v1,zero,v1
800120a0:	00431024 	and	v0,v0,v1
800120a4:	00481025 	or	v0,v0,t0
800120a8:	40826000 	mtc0	v0,$12
800120ac:	8fa30088 	lw	v1,136(sp)
800120b0:	00600013 	mtlo	v1
800120b4:	8fa20084 	lw	v0,132(sp)
800120b8:	8fa30094 	lw	v1,148(sp)
800120bc:	00400011 	mthi	v0
800120c0:	40837000 	mtc0	v1,$14
800120c4:	8fbf007c 	lw	ra,124(sp)
800120c8:	8fbe0078 	lw	s8,120(sp)
800120cc:	8fbc0070 	lw	gp,112(sp)
800120d0:	8fb90064 	lw	t9,100(sp)
800120d4:	8fb80060 	lw	t8,96(sp)
800120d8:	8fb7005c 	lw	s7,92(sp)
800120dc:	8fb60058 	lw	s6,88(sp)
800120e0:	8fb50054 	lw	s5,84(sp)
800120e4:	8fb40050 	lw	s4,80(sp)
800120e8:	8fb3004c 	lw	s3,76(sp)
800120ec:	8fb20048 	lw	s2,72(sp)
800120f0:	8fb10044 	lw	s1,68(sp)
800120f4:	8fb00040 	lw	s0,64(sp)
800120f8:	8faf003c 	lw	t7,60(sp)
800120fc:	8fae0038 	lw	t6,56(sp)
80012100:	8fad0034 	lw	t5,52(sp)
80012104:	8fac0030 	lw	t4,48(sp)
80012108:	8fab002c 	lw	t3,44(sp)
8001210c:	8faa0028 	lw	t2,40(sp)
80012110:	8fa90024 	lw	t1,36(sp)
80012114:	8fa80020 	lw	t0,32(sp)
80012118:	8fa7001c 	lw	a3,28(sp)
8001211c:	8fa60018 	lw	a2,24(sp)
80012120:	8fa50014 	lw	a1,20(sp)
80012124:	8fa40010 	lw	a0,16(sp)
80012128:	8fa3000c 	lw	v1,12(sp)
8001212c:	8fa20008 	lw	v0,8(sp)
80012130:	8fa10004 	lw	at,4(sp)
80012134:	8fba0094 	lw	k0,148(sp)
80012138:	8fbd0074 	lw	sp,116(sp)
8001213c:	00000000 	nop
80012140:	03400008 	jr	k0
80012144:	42000010 	rfe
	...

80012160 <handle_int>:
80012160:	00000000 	nop
80012164:	401a6000 	mfc0	k0,$12
80012168:	001ad0c0 	sll	k0,k0,0x3
8001216c:	07400001 	bltz	k0,80012174 <handle_int+0x14>
80012170:	00000000 	nop
80012174:	03a0d021 	move	k0,sp
80012178:	401b6800 	mfc0	k1,$13
8001217c:	337b107c 	andi	k1,k1,0x107c
80012180:	3b7b1000 	xori	k1,k1,0x1000
80012184:	17600004 	bnez	k1,80012198 <handle_int+0x38>
80012188:	00000000 	nop
8001218c:	3c1d8200 	lui	sp,0x8200
80012190:	0800486b 	j	800121ac <handle_int+0x4c>
80012194:	00000000 	nop
80012198:	07a00004 	bltz	sp,800121ac <handle_int+0x4c>
8001219c:	00000000 	nop
800121a0:	3c1d8002 	lui	sp,0x8002
800121a4:	8fbd5260 	lw	sp,21088(sp)
	...
800121b0:	03a0d821 	move	k1,sp
800121b4:	277dff64 	addiu	sp,k1,-156
800121b8:	afba0074 	sw	k0,116(sp)
800121bc:	afa20008 	sw	v0,8(sp)
800121c0:	40026000 	mfc0	v0,$12
800121c4:	afa20080 	sw	v0,128(sp)
800121c8:	40026800 	mfc0	v0,$13
800121cc:	afa20090 	sw	v0,144(sp)
800121d0:	40027000 	mfc0	v0,$14
800121d4:	afa20094 	sw	v0,148(sp)
800121d8:	40024000 	mfc0	v0,$8
800121dc:	afa2008c 	sw	v0,140(sp)
800121e0:	00001010 	mfhi	v0
800121e4:	afa20084 	sw	v0,132(sp)
800121e8:	00001012 	mflo	v0
800121ec:	afa20088 	sw	v0,136(sp)
800121f0:	afa00000 	sw	zero,0(sp)
800121f4:	afa10004 	sw	at,4(sp)
800121f8:	afa3000c 	sw	v1,12(sp)
800121fc:	afa40010 	sw	a0,16(sp)
80012200:	afa50014 	sw	a1,20(sp)
80012204:	afa60018 	sw	a2,24(sp)
80012208:	afa7001c 	sw	a3,28(sp)
8001220c:	afa80020 	sw	t0,32(sp)
80012210:	afa90024 	sw	t1,36(sp)
80012214:	afaa0028 	sw	t2,40(sp)
80012218:	afab002c 	sw	t3,44(sp)
8001221c:	afac0030 	sw	t4,48(sp)
80012220:	afad0034 	sw	t5,52(sp)
80012224:	afae0038 	sw	t6,56(sp)
80012228:	afaf003c 	sw	t7,60(sp)
8001222c:	afb00040 	sw	s0,64(sp)
80012230:	afb10044 	sw	s1,68(sp)
80012234:	afb20048 	sw	s2,72(sp)
80012238:	afb3004c 	sw	s3,76(sp)
8001223c:	afb40050 	sw	s4,80(sp)
80012240:	afb50054 	sw	s5,84(sp)
80012244:	afb60058 	sw	s6,88(sp)
80012248:	afb7005c 	sw	s7,92(sp)
8001224c:	afb80060 	sw	t8,96(sp)
80012250:	afb90064 	sw	t9,100(sp)
80012254:	afba0068 	sw	k0,104(sp)
80012258:	afbb006c 	sw	k1,108(sp)
8001225c:	afbc0070 	sw	gp,112(sp)
80012260:	afbe0078 	sw	s8,120(sp)
80012264:	afbf007c 	sw	ra,124(sp)
80012268:	40086000 	mfc0	t0,$12
8001226c:	3c091000 	lui	t1,0x1000
80012270:	35290001 	ori	t1,t1,0x1
80012274:	01094025 	or	t0,t0,t1
80012278:	39080001 	xori	t0,t0,0x1
8001227c:	40886000 	mtc0	t0,$12
80012280:	40086800 	mfc0	t0,$13
80012284:	400a6000 	mfc0	t2,$12
80012288:	010a4024 	and	t0,t0,t2
8001228c:	31091000 	andi	t1,t0,0x1000
80012290:	15200001 	bnez	t1,80012298 <timer_irq>
80012294:	00000000 	nop

80012298 <timer_irq>:
80012298:	3c01b500 	lui	at,0xb500
8001229c:	a0200110 	sb	zero,272(at)
800122a0:	08004cc4 	j	80013310 <sched_yield>
800122a4:	00000000 	nop
800122a8:	08004820 	j	80012080 <ret_from_exception>
800122ac:	00000000 	nop

800122b0 <do_refill>:
800122b0:	00000000 	nop
800122b4:	3c1b8001 	lui	k1,0x8001
800122b8:	8f7b6fa0 	lw	k1,28576(k1)
800122bc:	2401f000 	li	at,-4096
800122c0:	0361d824 	and	k1,k1,at
800122c4:	401a4000 	mfc0	k0,$8
800122c8:	001ad502 	srl	k0,k0,0x14
800122cc:	2401fffc 	li	at,-4
800122d0:	0341d024 	and	k0,k0,at
800122d4:	035bd021 	addu	k0,k0,k1
800122d8:	8f5b0000 	lw	k1,0(k0)
800122dc:	00000000 	nop
800122e0:	03604021 	move	t0,k1
800122e4:	31080200 	andi	t0,t0,0x200
800122e8:	1100001c 	beqz	t0,8001235c <NOPAGE>
800122ec:	00000000 	nop
800122f0:	2401f000 	li	at,-4096
800122f4:	0361d824 	and	k1,k1,at
800122f8:	401a4000 	mfc0	k0,$8
800122fc:	001ad282 	srl	k0,k0,0xa
80012300:	2401fffc 	li	at,-4
80012304:	0341d024 	and	k0,k0,at
80012308:	335a0fff 	andi	k0,k0,0xfff
8001230c:	035bd021 	addu	k0,k0,k1
80012310:	3c018000 	lui	at,0x8000
80012314:	0341d025 	or	k0,k0,at
80012318:	8f5b0000 	lw	k1,0(k0)
8001231c:	00000000 	nop
80012320:	03604021 	move	t0,k1
80012324:	31080200 	andi	t0,t0,0x200
80012328:	1100000c 	beqz	t0,8001235c <NOPAGE>
8001232c:	00000000 	nop
80012330:	0360d021 	move	k0,k1
80012334:	335a0001 	andi	k0,k0,0x1
80012338:	13400003 	beqz	k0,80012348 <NoCOW>
8001233c:	00000000 	nop
80012340:	2401fbff 	li	at,-1025
80012344:	0361d824 	and	k1,k1,at

80012348 <NoCOW>:
80012348:	409b1000 	mtc0	k1,$2
8001234c:	00000000 	nop
80012350:	42000006 	tlbwr
80012354:	080048e5 	j	80012394 <NOPAGE+0x38>
80012358:	00000000 	nop

8001235c <NOPAGE>:
8001235c:	00000000 	nop
80012360:	40044000 	mfc0	a0,$8
80012364:	3c058001 	lui	a1,0x8001
80012368:	8ca56fa0 	lw	a1,28576(a1)
8001236c:	00000000 	nop
80012370:	3c018001 	lui	at,0x8001
80012374:	ac3f6fa8 	sw	ra,28584(at)
80012378:	0c0056ca 	jal	80015b28 <pageout>
8001237c:	00000000 	nop
80012380:	00000000 	nop
80012384:	3c1f8001 	lui	ra,0x8001
80012388:	8fff6fa8 	lw	ra,28584(ra)
8001238c:	00000000 	nop
80012390:	080048ac 	j	800122b0 <do_refill>
80012394:	00000000 	nop
80012398:	03e00008 	jr	ra
8001239c:	00000000 	nop

800123a0 <handle_reserved>:
800123a0:	00000000 	nop
800123a4:	401a6000 	mfc0	k0,$12
800123a8:	001ad0c0 	sll	k0,k0,0x3
800123ac:	07400001 	bltz	k0,800123b4 <handle_reserved+0x14>
800123b0:	00000000 	nop
800123b4:	03a0d021 	move	k0,sp
800123b8:	401b6800 	mfc0	k1,$13
800123bc:	337b107c 	andi	k1,k1,0x107c
800123c0:	3b7b1000 	xori	k1,k1,0x1000
800123c4:	17600004 	bnez	k1,800123d8 <handle_reserved+0x38>
800123c8:	00000000 	nop
800123cc:	3c1d8200 	lui	sp,0x8200
800123d0:	080048fb 	j	800123ec <handle_reserved+0x4c>
800123d4:	00000000 	nop
800123d8:	07a00004 	bltz	sp,800123ec <handle_reserved+0x4c>
800123dc:	00000000 	nop
800123e0:	3c1d8002 	lui	sp,0x8002
800123e4:	8fbd5260 	lw	sp,21088(sp)
	...
800123f0:	03a0d821 	move	k1,sp
800123f4:	277dff64 	addiu	sp,k1,-156
800123f8:	afba0074 	sw	k0,116(sp)
800123fc:	afa20008 	sw	v0,8(sp)
80012400:	40026000 	mfc0	v0,$12
80012404:	afa20080 	sw	v0,128(sp)
80012408:	40026800 	mfc0	v0,$13
8001240c:	afa20090 	sw	v0,144(sp)
80012410:	40027000 	mfc0	v0,$14
80012414:	afa20094 	sw	v0,148(sp)
80012418:	40024000 	mfc0	v0,$8
8001241c:	afa2008c 	sw	v0,140(sp)
80012420:	00001010 	mfhi	v0
80012424:	afa20084 	sw	v0,132(sp)
80012428:	00001012 	mflo	v0
8001242c:	afa20088 	sw	v0,136(sp)
80012430:	afa00000 	sw	zero,0(sp)
80012434:	afa10004 	sw	at,4(sp)
80012438:	afa3000c 	sw	v1,12(sp)
8001243c:	afa40010 	sw	a0,16(sp)
80012440:	afa50014 	sw	a1,20(sp)
80012444:	afa60018 	sw	a2,24(sp)
80012448:	afa7001c 	sw	a3,28(sp)
8001244c:	afa80020 	sw	t0,32(sp)
80012450:	afa90024 	sw	t1,36(sp)
80012454:	afaa0028 	sw	t2,40(sp)
80012458:	afab002c 	sw	t3,44(sp)
8001245c:	afac0030 	sw	t4,48(sp)
80012460:	afad0034 	sw	t5,52(sp)
80012464:	afae0038 	sw	t6,56(sp)
80012468:	afaf003c 	sw	t7,60(sp)
8001246c:	afb00040 	sw	s0,64(sp)
80012470:	afb10044 	sw	s1,68(sp)
80012474:	afb20048 	sw	s2,72(sp)
80012478:	afb3004c 	sw	s3,76(sp)
8001247c:	afb40050 	sw	s4,80(sp)
80012480:	afb50054 	sw	s5,84(sp)
80012484:	afb60058 	sw	s6,88(sp)
80012488:	afb7005c 	sw	s7,92(sp)
8001248c:	afb80060 	sw	t8,96(sp)
80012490:	afb90064 	sw	t9,100(sp)
80012494:	afba0068 	sw	k0,104(sp)
80012498:	afbb006c 	sw	k1,108(sp)
8001249c:	afbc0070 	sw	gp,112(sp)
800124a0:	afbe0078 	sw	s8,120(sp)
800124a4:	afbf007c 	sw	ra,124(sp)
800124a8:	40086000 	mfc0	t0,$12
800124ac:	3c091000 	lui	t1,0x1000
800124b0:	35290001 	ori	t1,t1,0x1
800124b4:	01094025 	or	t0,t0,t1
800124b8:	39080001 	xori	t0,t0,0x1
800124bc:	40886000 	mtc0	t0,$12
800124c0:	03a02021 	move	a0,sp
800124c4:	0c0048ac 	jal	800122b0 <do_refill>
800124c8:	00000000 	nop
800124cc:	08004820 	j	80012080 <ret_from_exception>
800124d0:	00000000 	nop
	...

800124e0 <handle_tlb>:
800124e0:	00000000 	nop
800124e4:	401a6000 	mfc0	k0,$12
800124e8:	001ad0c0 	sll	k0,k0,0x3
800124ec:	07400001 	bltz	k0,800124f4 <handle_tlb+0x14>
800124f0:	00000000 	nop
800124f4:	03a0d021 	move	k0,sp
800124f8:	401b6800 	mfc0	k1,$13
800124fc:	337b107c 	andi	k1,k1,0x107c
80012500:	3b7b1000 	xori	k1,k1,0x1000
80012504:	17600004 	bnez	k1,80012518 <handle_tlb+0x38>
80012508:	00000000 	nop
8001250c:	3c1d8200 	lui	sp,0x8200
80012510:	0800494b 	j	8001252c <handle_tlb+0x4c>
80012514:	00000000 	nop
80012518:	07a00004 	bltz	sp,8001252c <handle_tlb+0x4c>
8001251c:	00000000 	nop
80012520:	3c1d8002 	lui	sp,0x8002
80012524:	8fbd5260 	lw	sp,21088(sp)
	...
80012530:	03a0d821 	move	k1,sp
80012534:	277dff64 	addiu	sp,k1,-156
80012538:	afba0074 	sw	k0,116(sp)
8001253c:	afa20008 	sw	v0,8(sp)
80012540:	40026000 	mfc0	v0,$12
80012544:	afa20080 	sw	v0,128(sp)
80012548:	40026800 	mfc0	v0,$13
8001254c:	afa20090 	sw	v0,144(sp)
80012550:	40027000 	mfc0	v0,$14
80012554:	afa20094 	sw	v0,148(sp)
80012558:	40024000 	mfc0	v0,$8
8001255c:	afa2008c 	sw	v0,140(sp)
80012560:	00001010 	mfhi	v0
80012564:	afa20084 	sw	v0,132(sp)
80012568:	00001012 	mflo	v0
8001256c:	afa20088 	sw	v0,136(sp)
80012570:	afa00000 	sw	zero,0(sp)
80012574:	afa10004 	sw	at,4(sp)
80012578:	afa3000c 	sw	v1,12(sp)
8001257c:	afa40010 	sw	a0,16(sp)
80012580:	afa50014 	sw	a1,20(sp)
80012584:	afa60018 	sw	a2,24(sp)
80012588:	afa7001c 	sw	a3,28(sp)
8001258c:	afa80020 	sw	t0,32(sp)
80012590:	afa90024 	sw	t1,36(sp)
80012594:	afaa0028 	sw	t2,40(sp)
80012598:	afab002c 	sw	t3,44(sp)
8001259c:	afac0030 	sw	t4,48(sp)
800125a0:	afad0034 	sw	t5,52(sp)
800125a4:	afae0038 	sw	t6,56(sp)
800125a8:	afaf003c 	sw	t7,60(sp)
800125ac:	afb00040 	sw	s0,64(sp)
800125b0:	afb10044 	sw	s1,68(sp)
800125b4:	afb20048 	sw	s2,72(sp)
800125b8:	afb3004c 	sw	s3,76(sp)
800125bc:	afb40050 	sw	s4,80(sp)
800125c0:	afb50054 	sw	s5,84(sp)
800125c4:	afb60058 	sw	s6,88(sp)
800125c8:	afb7005c 	sw	s7,92(sp)
800125cc:	afb80060 	sw	t8,96(sp)
800125d0:	afb90064 	sw	t9,100(sp)
800125d4:	afba0068 	sw	k0,104(sp)
800125d8:	afbb006c 	sw	k1,108(sp)
800125dc:	afbc0070 	sw	gp,112(sp)
800125e0:	afbe0078 	sw	s8,120(sp)
800125e4:	afbf007c 	sw	ra,124(sp)
800125e8:	40086000 	mfc0	t0,$12
800125ec:	3c091000 	lui	t1,0x1000
800125f0:	35290001 	ori	t1,t1,0x1
800125f4:	01094025 	or	t0,t0,t1
800125f8:	39080001 	xori	t0,t0,0x1
800125fc:	40886000 	mtc0	t0,$12
80012600:	03a02021 	move	a0,sp
80012604:	0c0048ac 	jal	800122b0 <do_refill>
80012608:	00000000 	nop
8001260c:	08004820 	j	80012080 <ret_from_exception>
80012610:	00000000 	nop
	...

80012620 <handle_mod>:
80012620:	00000000 	nop
80012624:	401a6000 	mfc0	k0,$12
80012628:	001ad0c0 	sll	k0,k0,0x3
8001262c:	07400001 	bltz	k0,80012634 <handle_mod+0x14>
80012630:	00000000 	nop
80012634:	03a0d021 	move	k0,sp
80012638:	401b6800 	mfc0	k1,$13
8001263c:	337b107c 	andi	k1,k1,0x107c
80012640:	3b7b1000 	xori	k1,k1,0x1000
80012644:	17600004 	bnez	k1,80012658 <handle_mod+0x38>
80012648:	00000000 	nop
8001264c:	3c1d8200 	lui	sp,0x8200
80012650:	0800499b 	j	8001266c <handle_mod+0x4c>
80012654:	00000000 	nop
80012658:	07a00004 	bltz	sp,8001266c <handle_mod+0x4c>
8001265c:	00000000 	nop
80012660:	3c1d8002 	lui	sp,0x8002
80012664:	8fbd5260 	lw	sp,21088(sp)
	...
80012670:	03a0d821 	move	k1,sp
80012674:	277dff64 	addiu	sp,k1,-156
80012678:	afba0074 	sw	k0,116(sp)
8001267c:	afa20008 	sw	v0,8(sp)
80012680:	40026000 	mfc0	v0,$12
80012684:	afa20080 	sw	v0,128(sp)
80012688:	40026800 	mfc0	v0,$13
8001268c:	afa20090 	sw	v0,144(sp)
80012690:	40027000 	mfc0	v0,$14
80012694:	afa20094 	sw	v0,148(sp)
80012698:	40024000 	mfc0	v0,$8
8001269c:	afa2008c 	sw	v0,140(sp)
800126a0:	00001010 	mfhi	v0
800126a4:	afa20084 	sw	v0,132(sp)
800126a8:	00001012 	mflo	v0
800126ac:	afa20088 	sw	v0,136(sp)
800126b0:	afa00000 	sw	zero,0(sp)
800126b4:	afa10004 	sw	at,4(sp)
800126b8:	afa3000c 	sw	v1,12(sp)
800126bc:	afa40010 	sw	a0,16(sp)
800126c0:	afa50014 	sw	a1,20(sp)
800126c4:	afa60018 	sw	a2,24(sp)
800126c8:	afa7001c 	sw	a3,28(sp)
800126cc:	afa80020 	sw	t0,32(sp)
800126d0:	afa90024 	sw	t1,36(sp)
800126d4:	afaa0028 	sw	t2,40(sp)
800126d8:	afab002c 	sw	t3,44(sp)
800126dc:	afac0030 	sw	t4,48(sp)
800126e0:	afad0034 	sw	t5,52(sp)
800126e4:	afae0038 	sw	t6,56(sp)
800126e8:	afaf003c 	sw	t7,60(sp)
800126ec:	afb00040 	sw	s0,64(sp)
800126f0:	afb10044 	sw	s1,68(sp)
800126f4:	afb20048 	sw	s2,72(sp)
800126f8:	afb3004c 	sw	s3,76(sp)
800126fc:	afb40050 	sw	s4,80(sp)
80012700:	afb50054 	sw	s5,84(sp)
80012704:	afb60058 	sw	s6,88(sp)
80012708:	afb7005c 	sw	s7,92(sp)
8001270c:	afb80060 	sw	t8,96(sp)
80012710:	afb90064 	sw	t9,100(sp)
80012714:	afba0068 	sw	k0,104(sp)
80012718:	afbb006c 	sw	k1,108(sp)
8001271c:	afbc0070 	sw	gp,112(sp)
80012720:	afbe0078 	sw	s8,120(sp)
80012724:	afbf007c 	sw	ra,124(sp)
80012728:	40086000 	mfc0	t0,$12
8001272c:	3c091000 	lui	t1,0x1000
80012730:	35290001 	ori	t1,t1,0x1
80012734:	01094025 	or	t0,t0,t1
80012738:	39080001 	xori	t0,t0,0x1
8001273c:	40886000 	mtc0	t0,$12
80012740:	03a02021 	move	a0,sp
80012744:	0c004e16 	jal	80013858 <page_fault_handler>
80012748:	00000000 	nop
8001274c:	08004820 	j	80012080 <ret_from_exception>
80012750:	00000000 	nop
	...

80012760 <sys_cgetc>:
80012760:	3c089000 	lui	t0,0x9000
80012764:	81080000 	lb	t0,0(t0)
80012768:	1100fffd 	beqz	t0,80012760 <sys_cgetc>
8001276c:	00000000 	nop
80012770:	01001021 	move	v0,t0
80012774:	03e00008 	jr	ra
80012778:	00000000 	nop
8001277c:	00000000 	nop

80012780 <kclock_init>:
80012780:	27bdffe8 	addiu	sp,sp,-24
80012784:	afbf0010 	sw	ra,16(sp)
80012788:	0c0049e8 	jal	800127a0 <set_timer>
8001278c:	00000000 	nop
80012790:	8fbf0010 	lw	ra,16(sp)
80012794:	00000000 	nop
80012798:	03e00008 	jr	ra
8001279c:	27bd0018 	addiu	sp,sp,24

800127a0 <set_timer>:
800127a0:	240800c8 	li	t0,200
800127a4:	3c01b500 	lui	at,0xb500
800127a8:	a0280100 	sb	t0,256(at)
800127ac:	3c018002 	lui	at,0x8002
800127b0:	ac3d5260 	sw	sp,21088(at)
800127b4:	40086000 	mfc0	t0,$12
800127b8:	3c011000 	lui	at,0x1000
800127bc:	34211001 	ori	at,at,0x1001
800127c0:	01014025 	or	t0,t0,at
800127c4:	39080000 	xori	t0,t0,0x0
800127c8:	40886000 	mtc0	t0,$12
800127cc:	03e00008 	jr	ra
800127d0:	00000000 	nop
	...

800127e0 <is_elf_format>:
800127e0:	8c820000 	lw	v0,0(a0)
800127e4:	3c03fffe 	lui	v1,0xfffe
800127e8:	3463fdfd 	ori	v1,v1,0xfdfd
800127ec:	00431021 	addu	v0,v0,v1
800127f0:	03e00008 	jr	ra
800127f4:	0002102b 	sltu	v0,zero,v0

800127f8 <load_elf>:
800127f8:	27bdffc0 	addiu	sp,sp,-64
800127fc:	afbf003c 	sw	ra,60(sp)
80012800:	afbe0038 	sw	s8,56(sp)
80012804:	afb70034 	sw	s7,52(sp)
80012808:	afb60030 	sw	s6,48(sp)
8001280c:	afb5002c 	sw	s5,44(sp)
80012810:	afb40028 	sw	s4,40(sp)
80012814:	afb30024 	sw	s3,36(sp)
80012818:	afb20020 	sw	s2,32(sp)
8001281c:	afb1001c 	sw	s1,28(sp)
80012820:	afb00018 	sw	s0,24(sp)
80012824:	00809021 	move	s2,a0
80012828:	00c0a821 	move	s5,a2
8001282c:	00e0a021 	move	s4,a3
80012830:	8fb30050 	lw	s3,80(sp)
80012834:	28a50004 	slti	a1,a1,4
80012838:	14a00027 	bnez	a1,800128d8 <load_elf+0xe0>
8001283c:	00808021 	move	s0,a0
80012840:	0c0049f8 	jal	800127e0 <is_elf_format>
80012844:	00000000 	nop
80012848:	10400024 	beqz	v0,800128dc <load_elf+0xe4>
8001284c:	2402ffff 	li	v0,-1
80012850:	8e42001c 	lw	v0,28(s2)
80012854:	00000000 	nop
80012858:	02428821 	addu	s1,s2,v0
8001285c:	9642002c 	lhu	v0,44(s2)
80012860:	965e002a 	lhu	s8,42(s2)
80012864:	2442ffff 	addiu	v0,v0,-1
80012868:	3043ffff 	andi	v1,v0,0xffff
8001286c:	3402ffff 	li	v0,0xffff
80012870:	10620014 	beq	v1,v0,800128c4 <load_elf+0xcc>
80012874:	0000b021 	move	s6,zero
80012878:	00031027 	nor	v0,zero,v1
8001287c:	3057ffff 	andi	s7,v0,0xffff
80012880:	8e220000 	lw	v0,0(s1)
80012884:	24030001 	li	v1,1
80012888:	1443000b 	bne	v0,v1,800128b8 <load_elf+0xc0>
8001288c:	26c2ffff 	addiu	v0,s6,-1
80012890:	8e240008 	lw	a0,8(s1)
80012894:	8e250014 	lw	a1,20(s1)
80012898:	8e260004 	lw	a2,4(s1)
8001289c:	8e270010 	lw	a3,16(s1)
800128a0:	afb40010 	sw	s4,16(sp)
800128a4:	0260f809 	jalr	s3
800128a8:	02463021 	addu	a2,s2,a2
800128ac:	0440000b 	bltz	v0,800128dc <load_elf+0xe4>
800128b0:	00000000 	nop
800128b4:	26c2ffff 	addiu	v0,s6,-1
800128b8:	3056ffff 	andi	s6,v0,0xffff
800128bc:	16d7fff0 	bne	s6,s7,80012880 <load_elf+0x88>
800128c0:	023e8821 	addu	s1,s1,s8
800128c4:	8e020018 	lw	v0,24(s0)
800128c8:	00000000 	nop
800128cc:	aea20000 	sw	v0,0(s5)
800128d0:	10000002 	b	800128dc <load_elf+0xe4>
800128d4:	00001021 	move	v0,zero
800128d8:	2402ffff 	li	v0,-1
800128dc:	8fbf003c 	lw	ra,60(sp)
800128e0:	8fbe0038 	lw	s8,56(sp)
800128e4:	8fb70034 	lw	s7,52(sp)
800128e8:	8fb60030 	lw	s6,48(sp)
800128ec:	8fb5002c 	lw	s5,44(sp)
800128f0:	8fb40028 	lw	s4,40(sp)
800128f4:	8fb30024 	lw	s3,36(sp)
800128f8:	8fb20020 	lw	s2,32(sp)
800128fc:	8fb1001c 	lw	s1,28(sp)
80012900:	8fb00018 	lw	s0,24(sp)
80012904:	03e00008 	jr	ra
80012908:	27bd0040 	addiu	sp,sp,64
8001290c:	00000000 	nop

80012910 <lp_Print>:
80012910:	27bdfbe0 	addiu	sp,sp,-1056
80012914:	afbf041c 	sw	ra,1052(sp)
80012918:	afb40418 	sw	s4,1048(sp)
8001291c:	afb30414 	sw	s3,1044(sp)
80012920:	afb20410 	sw	s2,1040(sp)
80012924:	afb1040c 	sw	s1,1036(sp)
80012928:	afb00408 	sw	s0,1032(sp)
8001292c:	00809021 	move	s2,a0
80012930:	00a08821 	move	s1,a1
80012934:	00c08021 	move	s0,a2
80012938:	00e09821 	move	s3,a3
8001293c:	82030000 	lb	v1,0(s0)
80012940:	24020025 	li	v0,37
80012944:	14620150 	bne	v1,v0,80012e88 <lp_Print+0x578>
80012948:	00000000 	nop
8001294c:	1000000c 	b	80012980 <lp_Print+0x70>
80012950:	00000000 	nop
80012954:	0240f809 	jalr	s2
80012958:	24060001 	li	a2,1
8001295c:	26100001 	addiu	s0,s0,1
80012960:	82030000 	lb	v1,0(s0)
80012964:	24020025 	li	v0,37
80012968:	10620007 	beq	v1,v0,80012988 <lp_Print+0x78>
8001296c:	00000000 	nop
80012970:	10600138 	beqz	v1,80012e54 <lp_Print+0x544>
80012974:	02202021 	move	a0,s1
80012978:	1000fff6 	b	80012954 <lp_Print+0x44>
8001297c:	02002821 	move	a1,s0
80012980:	10600134 	beqz	v1,80012e54 <lp_Print+0x544>
80012984:	00000000 	nop
80012988:	26100001 	addiu	s0,s0,1
8001298c:	24040020 	li	a0,32
80012990:	24050030 	li	a1,48
80012994:	10000005 	b	800129ac <lp_Print+0x9c>
80012998:	2406002d 	li	a2,45
8001299c:	14860002 	bne	a0,a2,800129a8 <lp_Print+0x98>
800129a0:	24040030 	li	a0,48
800129a4:	2404002d 	li	a0,45
800129a8:	26100001 	addiu	s0,s0,1
800129ac:	82020000 	lb	v0,0(s0)
800129b0:	00000000 	nop
800129b4:	1045fff9 	beq	v0,a1,8001299c <lp_Print+0x8c>
800129b8:	2403002d 	li	v1,45
800129bc:	1043fff9 	beq	v0,v1,800129a4 <lp_Print+0x94>
800129c0:	00000000 	nop
800129c4:	14830004 	bne	a0,v1,800129d8 <lp_Print+0xc8>
800129c8:	24020030 	li	v0,48
800129cc:	24070001 	li	a3,1
800129d0:	10000006 	b	800129ec <lp_Print+0xdc>
800129d4:	24090020 	li	t1,32
800129d8:	14820003 	bne	a0,v0,800129e8 <lp_Print+0xd8>
800129dc:	00003821 	move	a3,zero
800129e0:	10000002 	b	800129ec <lp_Print+0xdc>
800129e4:	24090030 	li	t1,48
800129e8:	24090020 	li	t1,32
800129ec:	82060000 	lb	a2,0(s0)
800129f0:	00000000 	nop
800129f4:	24c2ffd0 	addiu	v0,a2,-48
800129f8:	304200ff 	andi	v0,v0,0xff
800129fc:	2c42000a 	sltiu	v0,v0,10
80012a00:	1040000e 	beqz	v0,80012a3c <lp_Print+0x12c>
80012a04:	00004021 	move	t0,zero
80012a08:	00081040 	sll	v0,t0,0x1
80012a0c:	000818c0 	sll	v1,t0,0x3
80012a10:	00431021 	addu	v0,v0,v1
80012a14:	00461021 	addu	v0,v0,a2
80012a18:	2448ffd0 	addiu	t0,v0,-48
80012a1c:	26100001 	addiu	s0,s0,1
80012a20:	82060000 	lb	a2,0(s0)
80012a24:	00000000 	nop
80012a28:	24c2ffd0 	addiu	v0,a2,-48
80012a2c:	304200ff 	andi	v0,v0,0xff
80012a30:	2c42000a 	sltiu	v0,v0,10
80012a34:	1440fff5 	bnez	v0,80012a0c <lp_Print+0xfc>
80012a38:	00081040 	sll	v0,t0,0x1
80012a3c:	2402002e 	li	v0,46
80012a40:	14c20011 	bne	a2,v0,80012a88 <lp_Print+0x178>
80012a44:	00000000 	nop
80012a48:	26100001 	addiu	s0,s0,1
80012a4c:	92020000 	lbu	v0,0(s0)
80012a50:	00000000 	nop
80012a54:	2442ffd0 	addiu	v0,v0,-48
80012a58:	304200ff 	andi	v0,v0,0xff
80012a5c:	2c42000a 	sltiu	v0,v0,10
80012a60:	10400009 	beqz	v0,80012a88 <lp_Print+0x178>
80012a64:	00000000 	nop
80012a68:	26100001 	addiu	s0,s0,1
80012a6c:	92020000 	lbu	v0,0(s0)
80012a70:	00000000 	nop
80012a74:	2442ffd0 	addiu	v0,v0,-48
80012a78:	304200ff 	andi	v0,v0,0xff
80012a7c:	2c42000a 	sltiu	v0,v0,10
80012a80:	1440fff9 	bnez	v0,80012a68 <lp_Print+0x158>
80012a84:	00000000 	nop
80012a88:	82030000 	lb	v1,0(s0)
80012a8c:	2402006c 	li	v0,108
80012a90:	14620005 	bne	v1,v0,80012aa8 <lp_Print+0x198>
80012a94:	00002021 	move	a0,zero
80012a98:	26100001 	addiu	s0,s0,1
80012a9c:	24040001 	li	a0,1
80012aa0:	82030000 	lb	v1,0(s0)
80012aa4:	00000000 	nop
80012aa8:	2c620079 	sltiu	v0,v1,121
80012aac:	104000e3 	beqz	v0,80012e3c <lp_Print+0x52c>
80012ab0:	00031080 	sll	v0,v1,0x2
80012ab4:	3c038001 	lui	v1,0x8001
80012ab8:	24636c70 	addiu	v1,v1,27760
80012abc:	00431021 	addu	v0,v0,v1
80012ac0:	8c420000 	lw	v0,0(v0)
80012ac4:	00000000 	nop
80012ac8:	00400008 	jr	v0
80012acc:	00000000 	nop
80012ad0:	10800004 	beqz	a0,80012ae4 <lp_Print+0x1d4>
80012ad4:	00000000 	nop
80012ad8:	8e650000 	lw	a1,0(s3)
80012adc:	10000003 	b	80012aec <lp_Print+0x1dc>
80012ae0:	26730004 	addiu	s3,s3,4
80012ae4:	8e650000 	lw	a1,0(s3)
80012ae8:	26730004 	addiu	s3,s3,4
80012aec:	afa80010 	sw	t0,16(sp)
80012af0:	afa70014 	sw	a3,20(sp)
80012af4:	afa90018 	sw	t1,24(sp)
80012af8:	afa0001c 	sw	zero,28(sp)
80012afc:	27a40020 	addiu	a0,sp,32
80012b00:	24060002 	li	a2,2
80012b04:	0c004c0d 	jal	80013034 <PrintNum>
80012b08:	00003821 	move	a3,zero
80012b0c:	00403021 	move	a2,v0
80012b10:	2c4203e9 	sltiu	v0,v0,1001
80012b14:	14400007 	bnez	v0,80012b34 <lp_Print+0x224>
80012b18:	02202021 	move	a0,s1
80012b1c:	3c058001 	lui	a1,0x8001
80012b20:	24a56c50 	addiu	a1,a1,27728
80012b24:	0240f809 	jalr	s2
80012b28:	24060018 	li	a2,24
80012b2c:	1000ffff 	b	80012b2c <lp_Print+0x21c>
80012b30:	00000000 	nop
80012b34:	0240f809 	jalr	s2
80012b38:	27a50020 	addiu	a1,sp,32
80012b3c:	1000ff7f 	b	8001293c <lp_Print+0x2c>
80012b40:	26100001 	addiu	s0,s0,1
80012b44:	10800004 	beqz	a0,80012b58 <lp_Print+0x248>
80012b48:	00000000 	nop
80012b4c:	8e650000 	lw	a1,0(s3)
80012b50:	10000003 	b	80012b60 <lp_Print+0x250>
80012b54:	26730004 	addiu	s3,s3,4
80012b58:	8e650000 	lw	a1,0(s3)
80012b5c:	26730004 	addiu	s3,s3,4
80012b60:	04a10003 	bgez	a1,80012b70 <lp_Print+0x260>
80012b64:	00001021 	move	v0,zero
80012b68:	00052823 	negu	a1,a1
80012b6c:	24020001 	li	v0,1
80012b70:	afa80010 	sw	t0,16(sp)
80012b74:	afa70014 	sw	a3,20(sp)
80012b78:	afa90018 	sw	t1,24(sp)
80012b7c:	afa0001c 	sw	zero,28(sp)
80012b80:	27a40020 	addiu	a0,sp,32
80012b84:	2406000a 	li	a2,10
80012b88:	0c004c0d 	jal	80013034 <PrintNum>
80012b8c:	00403821 	move	a3,v0
80012b90:	00403021 	move	a2,v0
80012b94:	2c4203e9 	sltiu	v0,v0,1001
80012b98:	14400007 	bnez	v0,80012bb8 <lp_Print+0x2a8>
80012b9c:	02202021 	move	a0,s1
80012ba0:	3c058001 	lui	a1,0x8001
80012ba4:	24a56c50 	addiu	a1,a1,27728
80012ba8:	0240f809 	jalr	s2
80012bac:	24060018 	li	a2,24
80012bb0:	1000ffff 	b	80012bb0 <lp_Print+0x2a0>
80012bb4:	00000000 	nop
80012bb8:	0240f809 	jalr	s2
80012bbc:	27a50020 	addiu	a1,sp,32
80012bc0:	1000ff5e 	b	8001293c <lp_Print+0x2c>
80012bc4:	26100001 	addiu	s0,s0,1
80012bc8:	10800004 	beqz	a0,80012bdc <lp_Print+0x2cc>
80012bcc:	00000000 	nop
80012bd0:	8e650000 	lw	a1,0(s3)
80012bd4:	10000003 	b	80012be4 <lp_Print+0x2d4>
80012bd8:	26730004 	addiu	s3,s3,4
80012bdc:	8e650000 	lw	a1,0(s3)
80012be0:	26730004 	addiu	s3,s3,4
80012be4:	afa80010 	sw	t0,16(sp)
80012be8:	afa70014 	sw	a3,20(sp)
80012bec:	afa90018 	sw	t1,24(sp)
80012bf0:	afa0001c 	sw	zero,28(sp)
80012bf4:	27a40020 	addiu	a0,sp,32
80012bf8:	24060008 	li	a2,8
80012bfc:	0c004c0d 	jal	80013034 <PrintNum>
80012c00:	00003821 	move	a3,zero
80012c04:	00403021 	move	a2,v0
80012c08:	2c4203e9 	sltiu	v0,v0,1001
80012c0c:	14400007 	bnez	v0,80012c2c <lp_Print+0x31c>
80012c10:	02202021 	move	a0,s1
80012c14:	3c058001 	lui	a1,0x8001
80012c18:	24a56c50 	addiu	a1,a1,27728
80012c1c:	0240f809 	jalr	s2
80012c20:	24060018 	li	a2,24
80012c24:	1000ffff 	b	80012c24 <lp_Print+0x314>
80012c28:	00000000 	nop
80012c2c:	0240f809 	jalr	s2
80012c30:	27a50020 	addiu	a1,sp,32
80012c34:	1000ff41 	b	8001293c <lp_Print+0x2c>
80012c38:	26100001 	addiu	s0,s0,1
80012c3c:	10800004 	beqz	a0,80012c50 <lp_Print+0x340>
80012c40:	00000000 	nop
80012c44:	8e650000 	lw	a1,0(s3)
80012c48:	10000003 	b	80012c58 <lp_Print+0x348>
80012c4c:	26730004 	addiu	s3,s3,4
80012c50:	8e650000 	lw	a1,0(s3)
80012c54:	26730004 	addiu	s3,s3,4
80012c58:	afa80010 	sw	t0,16(sp)
80012c5c:	afa70014 	sw	a3,20(sp)
80012c60:	afa90018 	sw	t1,24(sp)
80012c64:	afa0001c 	sw	zero,28(sp)
80012c68:	27a40020 	addiu	a0,sp,32
80012c6c:	2406000a 	li	a2,10
80012c70:	0c004c0d 	jal	80013034 <PrintNum>
80012c74:	00003821 	move	a3,zero
80012c78:	00403021 	move	a2,v0
80012c7c:	2c4203e9 	sltiu	v0,v0,1001
80012c80:	14400007 	bnez	v0,80012ca0 <lp_Print+0x390>
80012c84:	02202021 	move	a0,s1
80012c88:	3c058001 	lui	a1,0x8001
80012c8c:	24a56c50 	addiu	a1,a1,27728
80012c90:	0240f809 	jalr	s2
80012c94:	24060018 	li	a2,24
80012c98:	1000ffff 	b	80012c98 <lp_Print+0x388>
80012c9c:	00000000 	nop
80012ca0:	0240f809 	jalr	s2
80012ca4:	27a50020 	addiu	a1,sp,32
80012ca8:	1000ff24 	b	8001293c <lp_Print+0x2c>
80012cac:	26100001 	addiu	s0,s0,1
80012cb0:	10800004 	beqz	a0,80012cc4 <lp_Print+0x3b4>
80012cb4:	00000000 	nop
80012cb8:	8e650000 	lw	a1,0(s3)
80012cbc:	10000003 	b	80012ccc <lp_Print+0x3bc>
80012cc0:	26730004 	addiu	s3,s3,4
80012cc4:	8e650000 	lw	a1,0(s3)
80012cc8:	26730004 	addiu	s3,s3,4
80012ccc:	afa80010 	sw	t0,16(sp)
80012cd0:	afa70014 	sw	a3,20(sp)
80012cd4:	afa90018 	sw	t1,24(sp)
80012cd8:	afa0001c 	sw	zero,28(sp)
80012cdc:	27a40020 	addiu	a0,sp,32
80012ce0:	24060010 	li	a2,16
80012ce4:	0c004c0d 	jal	80013034 <PrintNum>
80012ce8:	00003821 	move	a3,zero
80012cec:	00403021 	move	a2,v0
80012cf0:	2c4203e9 	sltiu	v0,v0,1001
80012cf4:	14400007 	bnez	v0,80012d14 <lp_Print+0x404>
80012cf8:	02202021 	move	a0,s1
80012cfc:	3c058001 	lui	a1,0x8001
80012d00:	24a56c50 	addiu	a1,a1,27728
80012d04:	0240f809 	jalr	s2
80012d08:	24060018 	li	a2,24
80012d0c:	1000ffff 	b	80012d0c <lp_Print+0x3fc>
80012d10:	00000000 	nop
80012d14:	0240f809 	jalr	s2
80012d18:	27a50020 	addiu	a1,sp,32
80012d1c:	1000ff07 	b	8001293c <lp_Print+0x2c>
80012d20:	26100001 	addiu	s0,s0,1
80012d24:	10800004 	beqz	a0,80012d38 <lp_Print+0x428>
80012d28:	00000000 	nop
80012d2c:	8e650000 	lw	a1,0(s3)
80012d30:	10000003 	b	80012d40 <lp_Print+0x430>
80012d34:	26730004 	addiu	s3,s3,4
80012d38:	8e650000 	lw	a1,0(s3)
80012d3c:	26730004 	addiu	s3,s3,4
80012d40:	afa80010 	sw	t0,16(sp)
80012d44:	afa70014 	sw	a3,20(sp)
80012d48:	afa90018 	sw	t1,24(sp)
80012d4c:	24020001 	li	v0,1
80012d50:	afa2001c 	sw	v0,28(sp)
80012d54:	27a40020 	addiu	a0,sp,32
80012d58:	24060010 	li	a2,16
80012d5c:	0c004c0d 	jal	80013034 <PrintNum>
80012d60:	00003821 	move	a3,zero
80012d64:	00403021 	move	a2,v0
80012d68:	2c4203e9 	sltiu	v0,v0,1001
80012d6c:	14400007 	bnez	v0,80012d8c <lp_Print+0x47c>
80012d70:	02202021 	move	a0,s1
80012d74:	3c058001 	lui	a1,0x8001
80012d78:	24a56c50 	addiu	a1,a1,27728
80012d7c:	0240f809 	jalr	s2
80012d80:	24060018 	li	a2,24
80012d84:	1000ffff 	b	80012d84 <lp_Print+0x474>
80012d88:	00000000 	nop
80012d8c:	0240f809 	jalr	s2
80012d90:	27a50020 	addiu	a1,sp,32
80012d94:	1000fee9 	b	8001293c <lp_Print+0x2c>
80012d98:	26100001 	addiu	s0,s0,1
80012d9c:	26740004 	addiu	s4,s3,4
80012da0:	27a40020 	addiu	a0,sp,32
80012da4:	82650003 	lb	a1,3(s3)
80012da8:	0c004ba6 	jal	80012e98 <PrintChar>
80012dac:	01003021 	move	a2,t0
80012db0:	00403021 	move	a2,v0
80012db4:	2c4203e9 	sltiu	v0,v0,1001
80012db8:	14400007 	bnez	v0,80012dd8 <lp_Print+0x4c8>
80012dbc:	02202021 	move	a0,s1
80012dc0:	3c058001 	lui	a1,0x8001
80012dc4:	24a56c50 	addiu	a1,a1,27728
80012dc8:	0240f809 	jalr	s2
80012dcc:	24060018 	li	a2,24
80012dd0:	1000ffff 	b	80012dd0 <lp_Print+0x4c0>
80012dd4:	00000000 	nop
80012dd8:	0240f809 	jalr	s2
80012ddc:	27a50020 	addiu	a1,sp,32
80012de0:	1000001a 	b	80012e4c <lp_Print+0x53c>
80012de4:	02809821 	move	s3,s4
80012de8:	26740004 	addiu	s4,s3,4
80012dec:	27a40020 	addiu	a0,sp,32
80012df0:	8e650000 	lw	a1,0(s3)
80012df4:	0c004bc5 	jal	80012f14 <PrintString>
80012df8:	01003021 	move	a2,t0
80012dfc:	00403021 	move	a2,v0
80012e00:	2c4203e9 	sltiu	v0,v0,1001
80012e04:	14400007 	bnez	v0,80012e24 <lp_Print+0x514>
80012e08:	02202021 	move	a0,s1
80012e0c:	3c058001 	lui	a1,0x8001
80012e10:	24a56c50 	addiu	a1,a1,27728
80012e14:	0240f809 	jalr	s2
80012e18:	24060018 	li	a2,24
80012e1c:	1000ffff 	b	80012e1c <lp_Print+0x50c>
80012e20:	00000000 	nop
80012e24:	0240f809 	jalr	s2
80012e28:	27a50020 	addiu	a1,sp,32
80012e2c:	10000007 	b	80012e4c <lp_Print+0x53c>
80012e30:	02809821 	move	s3,s4
80012e34:	10000005 	b	80012e4c <lp_Print+0x53c>
80012e38:	2610ffff 	addiu	s0,s0,-1
80012e3c:	02202021 	move	a0,s1
80012e40:	02002821 	move	a1,s0
80012e44:	0240f809 	jalr	s2
80012e48:	24060001 	li	a2,1
80012e4c:	1000febb 	b	8001293c <lp_Print+0x2c>
80012e50:	26100001 	addiu	s0,s0,1
80012e54:	02202021 	move	a0,s1
80012e58:	3c058001 	lui	a1,0x8001
80012e5c:	24a56c6c 	addiu	a1,a1,27756
80012e60:	0240f809 	jalr	s2
80012e64:	24060001 	li	a2,1
80012e68:	8fbf041c 	lw	ra,1052(sp)
80012e6c:	8fb40418 	lw	s4,1048(sp)
80012e70:	8fb30414 	lw	s3,1044(sp)
80012e74:	8fb20410 	lw	s2,1040(sp)
80012e78:	8fb1040c 	lw	s1,1036(sp)
80012e7c:	8fb00408 	lw	s0,1032(sp)
80012e80:	03e00008 	jr	ra
80012e84:	27bd0420 	addiu	sp,sp,1056
80012e88:	1060fff2 	beqz	v1,80012e54 <lp_Print+0x544>
80012e8c:	02202021 	move	a0,s1
80012e90:	1000feb0 	b	80012954 <lp_Print+0x44>
80012e94:	02002821 	move	a1,s0

80012e98 <PrintChar>:
80012e98:	00052e00 	sll	a1,a1,0x18
80012e9c:	1cc00002 	bgtz	a2,80012ea8 <PrintChar+0x10>
80012ea0:	00052e03 	sra	a1,a1,0x18
80012ea4:	24060001 	li	a2,1
80012ea8:	10e00014 	beqz	a3,80012efc <PrintChar+0x64>
80012eac:	28c20002 	slti	v0,a2,2
80012eb0:	14400016 	bnez	v0,80012f0c <PrintChar+0x74>
80012eb4:	a0850000 	sb	a1,0(a0)
80012eb8:	24030001 	li	v1,1
80012ebc:	24050020 	li	a1,32
80012ec0:	00831021 	addu	v0,a0,v1
80012ec4:	24630001 	addiu	v1,v1,1
80012ec8:	10c30010 	beq	a2,v1,80012f0c <PrintChar+0x74>
80012ecc:	a0450000 	sb	a1,0(v0)
80012ed0:	1000fffc 	b	80012ec4 <PrintChar+0x2c>
80012ed4:	00831021 	addu	v0,a0,v1
80012ed8:	00001821 	move	v1,zero
80012edc:	24080020 	li	t0,32
80012ee0:	00641021 	addu	v0,v1,a0
80012ee4:	24630001 	addiu	v1,v1,1
80012ee8:	1467fffd 	bne	v1,a3,80012ee0 <PrintChar+0x48>
80012eec:	a0480000 	sb	t0,0(v0)
80012ef0:	00c41021 	addu	v0,a2,a0
80012ef4:	10000005 	b	80012f0c <PrintChar+0x74>
80012ef8:	a045ffff 	sb	a1,-1(v0)
80012efc:	24c7ffff 	addiu	a3,a2,-1
80012f00:	1ce0fff5 	bgtz	a3,80012ed8 <PrintChar+0x40>
80012f04:	00c41021 	addu	v0,a2,a0
80012f08:	a045ffff 	sb	a1,-1(v0)
80012f0c:	03e00008 	jr	ra
80012f10:	00c01021 	move	v0,a2

80012f14 <PrintString>:
80012f14:	80a20000 	lb	v0,0(a1)
80012f18:	00000000 	nop
80012f1c:	14400003 	bnez	v0,80012f2c <PrintString+0x18>
80012f20:	24a30001 	addiu	v1,a1,1
80012f24:	10000007 	b	80012f44 <PrintString+0x30>
80012f28:	00004021 	move	t0,zero
80012f2c:	00004021 	move	t0,zero
80012f30:	25080001 	addiu	t0,t0,1
80012f34:	80620000 	lb	v0,0(v1)
80012f38:	00000000 	nop
80012f3c:	1440fffc 	bnez	v0,80012f30 <PrintString+0x1c>
80012f40:	24630001 	addiu	v1,v1,1
80012f44:	00c8102a 	slt	v0,a2,t0
80012f48:	10400002 	beqz	v0,80012f54 <PrintString+0x40>
80012f4c:	00000000 	nop
80012f50:	01003021 	move	a2,t0
80012f54:	14e00031 	bnez	a3,8001301c <PrintString+0x108>
80012f58:	00c83823 	subu	a3,a2,t0
80012f5c:	1000002b 	b	8001300c <PrintString+0xf8>
80012f60:	00000000 	nop
80012f64:	00003821 	move	a3,zero
80012f68:	00871021 	addu	v0,a0,a3
80012f6c:	00a71821 	addu	v1,a1,a3
80012f70:	90630000 	lbu	v1,0(v1)
80012f74:	24e70001 	addiu	a3,a3,1
80012f78:	1507fffb 	bne	t0,a3,80012f68 <PrintString+0x54>
80012f7c:	a0430000 	sb	v1,0(v0)
80012f80:	0106102a 	slt	v0,t0,a2
80012f84:	10400029 	beqz	v0,8001302c <PrintString+0x118>
80012f88:	00001821 	move	v1,zero
80012f8c:	00881021 	addu	v0,a0,t0
80012f90:	24050020 	li	a1,32
80012f94:	00c82023 	subu	a0,a2,t0
80012f98:	a0450000 	sb	a1,0(v0)
80012f9c:	24630001 	addiu	v1,v1,1
80012fa0:	10640022 	beq	v1,a0,8001302c <PrintString+0x118>
80012fa4:	24420001 	addiu	v0,v0,1
80012fa8:	1000fffc 	b	80012f9c <PrintString+0x88>
80012fac:	a0450000 	sb	a1,0(v0)
80012fb0:	00001821 	move	v1,zero
80012fb4:	24090020 	li	t1,32
80012fb8:	00831021 	addu	v0,a0,v1
80012fbc:	24630001 	addiu	v1,v1,1
80012fc0:	1467fffd 	bne	v1,a3,80012fb8 <PrintString+0xa4>
80012fc4:	a0490000 	sb	t1,0(v0)
80012fc8:	00e6102a 	slt	v0,a3,a2
80012fcc:	10400017 	beqz	v0,8001302c <PrintString+0x118>
80012fd0:	00872021 	addu	a0,a0,a3
80012fd4:	00e61023 	subu	v0,a3,a2
80012fd8:	01021021 	addu	v0,t0,v0
80012fdc:	00a21821 	addu	v1,a1,v0
80012fe0:	00002821 	move	a1,zero
80012fe4:	00c73823 	subu	a3,a2,a3
80012fe8:	90620000 	lbu	v0,0(v1)
80012fec:	00000000 	nop
80012ff0:	a0820000 	sb	v0,0(a0)
80012ff4:	24a50001 	addiu	a1,a1,1
80012ff8:	24630001 	addiu	v1,v1,1
80012ffc:	10a7000b 	beq	a1,a3,8001302c <PrintString+0x118>
80013000:	24840001 	addiu	a0,a0,1
80013004:	1000fff8 	b	80012fe8 <PrintString+0xd4>
80013008:	00000000 	nop
8001300c:	1ce0ffe8 	bgtz	a3,80012fb0 <PrintString+0x9c>
80013010:	00e6102a 	slt	v0,a3,a2
80013014:	1000ffed 	b	80012fcc <PrintString+0xb8>
80013018:	00000000 	nop
8001301c:	1d00ffd1 	bgtz	t0,80012f64 <PrintString+0x50>
80013020:	0106102a 	slt	v0,t0,a2
80013024:	1000ffd7 	b	80012f84 <PrintString+0x70>
80013028:	00000000 	nop
8001302c:	03e00008 	jr	ra
80013030:	00c01021 	move	v0,a2

80013034 <PrintNum>:
80013034:	8fa90010 	lw	t1,16(sp)
80013038:	8fac0014 	lw	t4,20(sp)
8001303c:	8fab001c 	lw	t3,28(sp)
80013040:	83aa001b 	lb	t2,27(sp)
80013044:	00804021 	move	t0,a0
80013048:	14c00002 	bnez	a2,80013054 <PrintNum+0x20>
8001304c:	00a6001b 	divu	zero,a1,a2
80013050:	0007000d 	break	0x7
80013054:	00001810 	mfhi	v1
80013058:	2862000a 	slti	v0,v1,10
8001305c:	10400004 	beqz	v0,80013070 <PrintNum+0x3c>
80013060:	24620030 	addiu	v0,v1,48
80013064:	a1020000 	sb	v0,0(t0)
80013068:	1000000c 	b	8001309c <PrintNum+0x68>
8001306c:	25080001 	addiu	t0,t0,1
80013070:	11600005 	beqz	t3,80013088 <PrintNum+0x54>
80013074:	24620057 	addiu	v0,v1,87
80013078:	24620037 	addiu	v0,v1,55
8001307c:	a1020000 	sb	v0,0(t0)
80013080:	10000003 	b	80013090 <PrintNum+0x5c>
80013084:	25080001 	addiu	t0,t0,1
80013088:	a1020000 	sb	v0,0(t0)
8001308c:	25080001 	addiu	t0,t0,1
80013090:	14c00002 	bnez	a2,8001309c <PrintNum+0x68>
80013094:	00a6001b 	divu	zero,a1,a2
80013098:	0007000d 	break	0x7
8001309c:	00002812 	mflo	a1
800130a0:	14a0ffe9 	bnez	a1,80013048 <PrintNum+0x14>
800130a4:	00000000 	nop
800130a8:	10e00005 	beqz	a3,800130c0 <PrintNum+0x8c>
800130ac:	01043023 	subu	a2,t0,a0
800130b0:	2402002d 	li	v0,45
800130b4:	a1020000 	sb	v0,0(t0)
800130b8:	25080001 	addiu	t0,t0,1
800130bc:	01043023 	subu	a2,t0,a0
800130c0:	0126102a 	slt	v0,t1,a2
800130c4:	10400002 	beqz	v0,800130d0 <PrintNum+0x9c>
800130c8:	00000000 	nop
800130cc:	00c04821 	move	t1,a2
800130d0:	11800002 	beqz	t4,800130dc <PrintNum+0xa8>
800130d4:	00000000 	nop
800130d8:	240a0020 	li	t2,32
800130dc:	10e00033 	beqz	a3,800131ac <PrintNum+0x178>
800130e0:	00c9102a 	slt	v0,a2,t1
800130e4:	15800031 	bnez	t4,800131ac <PrintNum+0x178>
800130e8:	00000000 	nop
800130ec:	24020030 	li	v0,48
800130f0:	1542002e 	bne	t2,v0,800131ac <PrintNum+0x178>
800130f4:	00c9102a 	slt	v0,a2,t1
800130f8:	24c6ffff 	addiu	a2,a2,-1
800130fc:	2528ffff 	addiu	t0,t1,-1
80013100:	00c8102a 	slt	v0,a2,t0
80013104:	10400008 	beqz	v0,80013128 <PrintNum+0xf4>
80013108:	01061023 	subu	v0,t0,a2
8001310c:	00861821 	addu	v1,a0,a2
80013110:	00002821 	move	a1,zero
80013114:	24070030 	li	a3,48
80013118:	a0670000 	sb	a3,0(v1)
8001311c:	24a50001 	addiu	a1,a1,1
80013120:	14a2fffd 	bne	a1,v0,80013118 <PrintNum+0xe4>
80013124:	24630001 	addiu	v1,v1,1
80013128:	00891821 	addu	v1,a0,t1
8001312c:	2402002d 	li	v0,45
80013130:	1000000d 	b	80013168 <PrintNum+0x134>
80013134:	a062ffff 	sb	v0,-1(v1)
80013138:	a0aa0000 	sb	t2,0(a1)
8001313c:	24630001 	addiu	v1,v1,1
80013140:	01261023 	subu	v0,t1,a2
80013144:	1462fffc 	bne	v1,v0,80013138 <PrintNum+0x104>
80013148:	24a50001 	addiu	a1,a1,1
8001314c:	11800006 	beqz	t4,80013168 <PrintNum+0x134>
80013150:	00000000 	nop
80013154:	24c6ffff 	addiu	a2,a2,-1
80013158:	1cc00005 	bgtz	a2,80013170 <PrintNum+0x13c>
8001315c:	00003821 	move	a3,zero
80013160:	03e00008 	jr	ra
80013164:	01201021 	move	v0,t1
80013168:	1000fffb 	b	80013158 <PrintNum+0x124>
8001316c:	2526ffff 	addiu	a2,t1,-1
80013170:	00802821 	move	a1,a0
80013174:	00862021 	addu	a0,a0,a2
80013178:	80a20000 	lb	v0,0(a1)
8001317c:	90830000 	lbu	v1,0(a0)
80013180:	00000000 	nop
80013184:	a0a30000 	sb	v1,0(a1)
80013188:	a0820000 	sb	v0,0(a0)
8001318c:	24e70001 	addiu	a3,a3,1
80013190:	24c6ffff 	addiu	a2,a2,-1
80013194:	24a50001 	addiu	a1,a1,1
80013198:	00e6102a 	slt	v0,a3,a2
8001319c:	10400008 	beqz	v0,800131c0 <PrintNum+0x18c>
800131a0:	2484ffff 	addiu	a0,a0,-1
800131a4:	1000fff4 	b	80013178 <PrintNum+0x144>
800131a8:	00000000 	nop
800131ac:	1040ffe7 	beqz	v0,8001314c <PrintNum+0x118>
800131b0:	00000000 	nop
800131b4:	00862821 	addu	a1,a0,a2
800131b8:	1000ffdf 	b	80013138 <PrintNum+0x104>
800131bc:	00001821 	move	v1,zero
800131c0:	01201021 	move	v0,t1
800131c4:	03e00008 	jr	ra
800131c8:	00000000 	nop
800131cc:	00000000 	nop

800131d0 <myoutput>:
800131d0:	27bdffe0 	addiu	sp,sp,-32
800131d4:	afbf001c 	sw	ra,28(sp)
800131d8:	afb20018 	sw	s2,24(sp)
800131dc:	afb10014 	sw	s1,20(sp)
800131e0:	afb00010 	sw	s0,16(sp)
800131e4:	24020001 	li	v0,1
800131e8:	14c20015 	bne	a2,v0,80013240 <myoutput+0x70>
800131ec:	00c09021 	move	s2,a2
800131f0:	80a20000 	lb	v0,0(a1)
800131f4:	00000000 	nop
800131f8:	14400013 	bnez	v0,80013248 <myoutput+0x78>
800131fc:	00a08021 	move	s0,a1
80013200:	10000013 	b	80013250 <myoutput+0x80>
80013204:	00000000 	nop
80013208:	82040000 	lb	a0,0(s0)
8001320c:	0c004088 	jal	80010220 <printcharc>
80013210:	00000000 	nop
80013214:	82030000 	lb	v1,0(s0)
80013218:	2402000a 	li	v0,10
8001321c:	14620003 	bne	v1,v0,8001322c <myoutput+0x5c>
80013220:	00000000 	nop
80013224:	0c004088 	jal	80010220 <printcharc>
80013228:	2404000a 	li	a0,10
8001322c:	26310001 	addiu	s1,s1,1
80013230:	12510007 	beq	s2,s1,80013250 <myoutput+0x80>
80013234:	26100001 	addiu	s0,s0,1
80013238:	1000fff3 	b	80013208 <myoutput+0x38>
8001323c:	00000000 	nop
80013240:	18c00003 	blez	a2,80013250 <myoutput+0x80>
80013244:	00a08021 	move	s0,a1
80013248:	1000ffef 	b	80013208 <myoutput+0x38>
8001324c:	00008821 	move	s1,zero
80013250:	8fbf001c 	lw	ra,28(sp)
80013254:	8fb20018 	lw	s2,24(sp)
80013258:	8fb10014 	lw	s1,20(sp)
8001325c:	8fb00010 	lw	s0,16(sp)
80013260:	03e00008 	jr	ra
80013264:	27bd0020 	addiu	sp,sp,32

80013268 <printf>:
80013268:	27bdffe0 	addiu	sp,sp,-32
8001326c:	afbf0018 	sw	ra,24(sp)
80013270:	afa50024 	sw	a1,36(sp)
80013274:	afa60028 	sw	a2,40(sp)
80013278:	afa7002c 	sw	a3,44(sp)
8001327c:	00803021 	move	a2,a0
80013280:	27a70024 	addiu	a3,sp,36
80013284:	afa70010 	sw	a3,16(sp)
80013288:	3c048001 	lui	a0,0x8001
8001328c:	248431d0 	addiu	a0,a0,12752
80013290:	0c004a44 	jal	80012910 <lp_Print>
80013294:	00002821 	move	a1,zero
80013298:	8fbf0018 	lw	ra,24(sp)
8001329c:	00000000 	nop
800132a0:	03e00008 	jr	ra
800132a4:	27bd0020 	addiu	sp,sp,32

800132a8 <_panic>:
800132a8:	27bdffe0 	addiu	sp,sp,-32
800132ac:	afbf001c 	sw	ra,28(sp)
800132b0:	afb00018 	sw	s0,24(sp)
800132b4:	00801821 	move	v1,a0
800132b8:	00a04021 	move	t0,a1
800132bc:	afa7002c 	sw	a3,44(sp)
800132c0:	00c08021 	move	s0,a2
800132c4:	27a2002c 	addiu	v0,sp,44
800132c8:	afa20010 	sw	v0,16(sp)
800132cc:	3c048001 	lui	a0,0x8001
800132d0:	2484666c 	addiu	a0,a0,26220
800132d4:	00602821 	move	a1,v1
800132d8:	0c004c9a 	jal	80013268 <printf>
800132dc:	01003021 	move	a2,t0
800132e0:	3c048001 	lui	a0,0x8001
800132e4:	248431d0 	addiu	a0,a0,12752
800132e8:	00002821 	move	a1,zero
800132ec:	8fa70010 	lw	a3,16(sp)
800132f0:	0c004a44 	jal	80012910 <lp_Print>
800132f4:	02003021 	move	a2,s0
800132f8:	3c048001 	lui	a0,0x8001
800132fc:	0c004c9a 	jal	80013268 <printf>
80013300:	24845e4c 	addiu	a0,a0,24140
80013304:	1000ffff 	b	80013304 <_panic+0x5c>
80013308:	00000000 	nop
8001330c:	00000000 	nop

80013310 <sched_yield>:
80013310:	27bdffe8 	addiu	sp,sp,-24
80013314:	afbf0010 	sw	ra,16(sp)
80013318:	3c028001 	lui	v0,0x8001
8001331c:	8c436ee4 	lw	v1,28388(v0)
80013320:	00000000 	nop
80013324:	1460005e 	bnez	v1,800134a0 <sched_yield+0x190>
80013328:	2463ffff 	addiu	v1,v1,-1
8001332c:	3c028001 	lui	v0,0x8001
80013330:	8c446ee8 	lw	a0,28392(v0)
80013334:	00000000 	nop
80013338:	1080002b 	beqz	a0,800133e8 <sched_yield+0xd8>
8001333c:	3c058001 	lui	a1,0x8001
80013340:	8c8300b8 	lw	v1,184(a0)
80013344:	00000000 	nop
80013348:	10600004 	beqz	v1,8001335c <sched_yield+0x4c>
8001334c:	00000000 	nop
80013350:	8c8200bc 	lw	v0,188(a0)
80013354:	00000000 	nop
80013358:	ac6200bc 	sw	v0,188(v1)
8001335c:	8c8300bc 	lw	v1,188(a0)
80013360:	8c8200b8 	lw	v0,184(a0)
80013364:	00000000 	nop
80013368:	ac620000 	sw	v0,0(v1)
8001336c:	3c028001 	lui	v0,0x8001
80013370:	8c426ee0 	lw	v0,28384(v0)
80013374:	24030001 	li	v1,1
80013378:	00621823 	subu	v1,v1,v0
8001337c:	00031880 	sll	v1,v1,0x2
80013380:	3c028001 	lui	v0,0x8001
80013384:	24426f80 	addiu	v0,v0,28544
80013388:	00621821 	addu	v1,v1,v0
8001338c:	8c650000 	lw	a1,0(v1)
80013390:	00000000 	nop
80013394:	ac8500b8 	sw	a1,184(a0)
80013398:	8c620000 	lw	v0,0(v1)
8001339c:	00000000 	nop
800133a0:	14400041 	bnez	v0,800134a8 <sched_yield+0x198>
800133a4:	00000000 	nop
800133a8:	ac640000 	sw	a0,0(v1)
800133ac:	1000000d 	b	800133e4 <sched_yield+0xd4>
800133b0:	ac8300bc 	sw	v1,188(a0)
800133b4:	00401821 	move	v1,v0
800133b8:	ac8300b8 	sw	v1,184(a0)
800133bc:	8c6200b8 	lw	v0,184(v1)
800133c0:	00000000 	nop
800133c4:	1440fffb 	bnez	v0,800133b4 <sched_yield+0xa4>
800133c8:	00602821 	move	a1,v1
800133cc:	aca400b8 	sw	a0,184(a1)
800133d0:	8c8200b8 	lw	v0,184(a0)
800133d4:	00000000 	nop
800133d8:	244200b8 	addiu	v0,v0,184
800133dc:	ac8200bc 	sw	v0,188(a0)
800133e0:	ac8000b8 	sw	zero,184(a0)
800133e4:	3c058001 	lui	a1,0x8001
800133e8:	8ca46ee0 	lw	a0,28384(a1)
800133ec:	00000000 	nop
800133f0:	00041080 	sll	v0,a0,0x2
800133f4:	3c038001 	lui	v1,0x8001
800133f8:	24636f80 	addiu	v1,v1,28544
800133fc:	00431021 	addu	v0,v0,v1
80013400:	8c420000 	lw	v0,0(v0)
80013404:	00000000 	nop
80013408:	14400005 	bnez	v0,80013420 <sched_yield+0x110>
8001340c:	3c028001 	lui	v0,0x8001
80013410:	24020001 	li	v0,1
80013414:	00441023 	subu	v0,v0,a0
80013418:	aca26ee0 	sw	v0,28384(a1)
8001341c:	3c028001 	lui	v0,0x8001
80013420:	8c436ee0 	lw	v1,28384(v0)
80013424:	00000000 	nop
80013428:	00031880 	sll	v1,v1,0x2
8001342c:	3c028001 	lui	v0,0x8001
80013430:	24426f80 	addiu	v0,v0,28544
80013434:	00621821 	addu	v1,v1,v0
80013438:	8c640000 	lw	a0,0(v1)
8001343c:	3c028001 	lui	v0,0x8001
80013440:	1480001f 	bnez	a0,800134c0 <sched_yield+0x1b0>
80013444:	ac446ee8 	sw	a0,28392(v0)
80013448:	10000023 	b	800134d8 <sched_yield+0x1c8>
8001344c:	00000000 	nop
80013450:	8c8300ac 	lw	v1,172(a0)
80013454:	00000000 	nop
80013458:	1462000a 	bne	v1,v0,80013484 <sched_yield+0x174>
8001345c:	3c028001 	lui	v0,0x8001
80013460:	ac446ee8 	sw	a0,28392(v0)
80013464:	8c8200c0 	lw	v0,192(a0)
80013468:	00000000 	nop
8001346c:	2442ffff 	addiu	v0,v0,-1
80013470:	3c038001 	lui	v1,0x8001
80013474:	0c0043ad 	jal	80010eb4 <env_run>
80013478:	ac626ee4 	sw	v0,28388(v1)
8001347c:	10000016 	b	800134d8 <sched_yield+0x1c8>
80013480:	00000000 	nop
80013484:	8c8400b8 	lw	a0,184(a0)
80013488:	00000000 	nop
8001348c:	1480fff0 	bnez	a0,80013450 <sched_yield+0x140>
80013490:	24020001 	li	v0,1
80013494:	3c028001 	lui	v0,0x8001
80013498:	1000000f 	b	800134d8 <sched_yield+0x1c8>
8001349c:	ac406ee8 	sw	zero,28392(v0)
800134a0:	1000000d 	b	800134d8 <sched_yield+0x1c8>
800134a4:	ac436ee4 	sw	v1,28388(v0)
800134a8:	8ca300b8 	lw	v1,184(a1)
800134ac:	00000000 	nop
800134b0:	1460ffc1 	bnez	v1,800133b8 <sched_yield+0xa8>
800134b4:	00000000 	nop
800134b8:	1000ffc5 	b	800133d0 <sched_yield+0xc0>
800134bc:	aca400b8 	sw	a0,184(a1)
800134c0:	8c8300ac 	lw	v1,172(a0)
800134c4:	24020001 	li	v0,1
800134c8:	1462ffee 	bne	v1,v0,80013484 <sched_yield+0x174>
800134cc:	00000000 	nop
800134d0:	1000ffe4 	b	80013464 <sched_yield+0x154>
800134d4:	00000000 	nop
800134d8:	8fbf0010 	lw	ra,16(sp)
800134dc:	00000000 	nop
800134e0:	03e00008 	jr	ra
800134e4:	27bd0018 	addiu	sp,sp,24
	...

800134f0 <handle_sys>:
800134f0:	401a6000 	mfc0	k0,$12
800134f4:	001ad0c0 	sll	k0,k0,0x3
800134f8:	07400001 	bltz	k0,80013500 <handle_sys+0x10>
800134fc:	00000000 	nop
80013500:	03a0d021 	move	k0,sp
80013504:	401b6800 	mfc0	k1,$13
80013508:	337b107c 	andi	k1,k1,0x107c
8001350c:	3b7b1000 	xori	k1,k1,0x1000
80013510:	17600004 	bnez	k1,80013524 <handle_sys+0x34>
80013514:	00000000 	nop
80013518:	3c1d8200 	lui	sp,0x8200
8001351c:	08004d4e 	j	80013538 <handle_sys+0x48>
80013520:	00000000 	nop
80013524:	07a00004 	bltz	sp,80013538 <handle_sys+0x48>
80013528:	00000000 	nop
8001352c:	3c1d8002 	lui	sp,0x8002
80013530:	8fbd5260 	lw	sp,21088(sp)
	...
8001353c:	03a0d821 	move	k1,sp
80013540:	277dff64 	addiu	sp,k1,-156
80013544:	afba0074 	sw	k0,116(sp)
80013548:	afa20008 	sw	v0,8(sp)
8001354c:	40026000 	mfc0	v0,$12
80013550:	afa20080 	sw	v0,128(sp)
80013554:	40026800 	mfc0	v0,$13
80013558:	afa20090 	sw	v0,144(sp)
8001355c:	40027000 	mfc0	v0,$14
80013560:	afa20094 	sw	v0,148(sp)
80013564:	40024000 	mfc0	v0,$8
80013568:	afa2008c 	sw	v0,140(sp)
8001356c:	00001010 	mfhi	v0
80013570:	afa20084 	sw	v0,132(sp)
80013574:	00001012 	mflo	v0
80013578:	afa20088 	sw	v0,136(sp)
8001357c:	afa00000 	sw	zero,0(sp)
80013580:	afa10004 	sw	at,4(sp)
80013584:	afa3000c 	sw	v1,12(sp)
80013588:	afa40010 	sw	a0,16(sp)
8001358c:	afa50014 	sw	a1,20(sp)
80013590:	afa60018 	sw	a2,24(sp)
80013594:	afa7001c 	sw	a3,28(sp)
80013598:	afa80020 	sw	t0,32(sp)
8001359c:	afa90024 	sw	t1,36(sp)
800135a0:	afaa0028 	sw	t2,40(sp)
800135a4:	afab002c 	sw	t3,44(sp)
800135a8:	afac0030 	sw	t4,48(sp)
800135ac:	afad0034 	sw	t5,52(sp)
800135b0:	afae0038 	sw	t6,56(sp)
800135b4:	afaf003c 	sw	t7,60(sp)
800135b8:	afb00040 	sw	s0,64(sp)
800135bc:	afb10044 	sw	s1,68(sp)
800135c0:	afb20048 	sw	s2,72(sp)
800135c4:	afb3004c 	sw	s3,76(sp)
800135c8:	afb40050 	sw	s4,80(sp)
800135cc:	afb50054 	sw	s5,84(sp)
800135d0:	afb60058 	sw	s6,88(sp)
800135d4:	afb7005c 	sw	s7,92(sp)
800135d8:	afb80060 	sw	t8,96(sp)
800135dc:	afb90064 	sw	t9,100(sp)
800135e0:	afba0068 	sw	k0,104(sp)
800135e4:	afbb006c 	sw	k1,108(sp)
800135e8:	afbc0070 	sw	gp,112(sp)
800135ec:	afbe0078 	sw	s8,120(sp)
800135f0:	afbf007c 	sw	ra,124(sp)
800135f4:	40086000 	mfc0	t0,$12
800135f8:	3c091000 	lui	t1,0x1000
800135fc:	35290001 	ori	t1,t1,0x1
80013600:	01094025 	or	t0,t0,t1
80013604:	39080001 	xori	t0,t0,0x1
80013608:	40886000 	mtc0	t0,$12
8001360c:	00000000 	nop
80013610:	8fa90094 	lw	t1,148(sp)
80013614:	afa90094 	sw	t1,148(sp)
80013618:	3c098001 	lui	t1,0x8001
8001361c:	2529368c 	addiu	t1,t1,13964
80013620:	8d2a0000 	lw	t2,0(t1)
80013624:	8fa80074 	lw	t0,116(sp)
80013628:	8d090000 	lw	t1,0(t0)
8001362c:	8d0b0004 	lw	t3,4(t0)
80013630:	8d0c0008 	lw	t4,8(t0)
80013634:	8d0d000c 	lw	t5,12(t0)
80013638:	8d0e0010 	lw	t6,16(t0)
8001363c:	8d0f0014 	lw	t7,20(t0)
80013640:	27bdffec 	addiu	sp,sp,-20
80013644:	afa90000 	sw	t1,0(sp)
80013648:	afab0004 	sw	t3,4(sp)
8001364c:	afac0008 	sw	t4,8(sp)
80013650:	afad000c 	sw	t5,12(sp)
80013654:	afae0010 	sw	t6,16(sp)
80013658:	afaf0014 	sw	t7,20(sp)
8001365c:	01202021 	move	a0,t1
80013660:	01602821 	move	a1,t3
80013664:	01803021 	move	a2,t4
80013668:	01a03821 	move	a3,t5
8001366c:	0140f809 	jalr	t2
80013670:	00000000 	nop
80013674:	27bd0014 	addiu	sp,sp,20
80013678:	afa20008 	sw	v0,8(sp)
8001367c:	08004820 	j	80012080 <ret_from_exception>
80013680:	00000000 	nop

80013684 <illegal_syscall>:
80013684:	08004da1 	j	80013684 <illegal_syscall>
80013688:	00000000 	nop

8001368c <sys_call_table>:
8001368c:	800136d0 	lb	at,14032(zero)
80013690:	80013728 	lb	at,14120(zero)
80013694:	80013740 	lb	at,14144(zero)
80013698:	80013748 	lb	at,14152(zero)
8001369c:	80013750 	lb	at,14160(zero)
800136a0:	80013758 	lb	at,14168(zero)
800136a4:	80013760 	lb	at,14176(zero)
800136a8:	80013768 	lb	at,14184(zero)
800136ac:	80013770 	lb	at,14192(zero)
800136b0:	80013778 	lb	at,14200(zero)
800136b4:	80013780 	lb	at,14208(zero)
800136b8:	80013788 	lb	at,14216(zero)
800136bc:	80013798 	lb	at,14232(zero)
800136c0:	80013790 	lb	at,14224(zero)
800136c4:	80012760 	lb	at,10080(zero)
	...

800136d0 <sys_putchar>:
800136d0:	27bdffe8 	addiu	sp,sp,-24
800136d4:	afbf0010 	sw	ra,16(sp)
800136d8:	00052600 	sll	a0,a1,0x18
800136dc:	0c004088 	jal	80010220 <printcharc>
800136e0:	00042603 	sra	a0,a0,0x18
800136e4:	8fbf0010 	lw	ra,16(sp)
800136e8:	00000000 	nop
800136ec:	03e00008 	jr	ra
800136f0:	27bd0018 	addiu	sp,sp,24

800136f4 <memcpy>:
800136f4:	10c0000a 	beqz	a2,80013720 <memcpy+0x2c>
800136f8:	24c2ffff 	addiu	v0,a2,-1
800136fc:	00801821 	move	v1,a0
80013700:	00821021 	addu	v0,a0,v0
80013704:	24460001 	addiu	a2,v0,1
80013708:	90a20000 	lbu	v0,0(a1)
8001370c:	00000000 	nop
80013710:	a0620000 	sb	v0,0(v1)
80013714:	24630001 	addiu	v1,v1,1
80013718:	1466fffb 	bne	v1,a2,80013708 <memcpy+0x14>
8001371c:	24a50001 	addiu	a1,a1,1
80013720:	03e00008 	jr	ra
80013724:	00801021 	move	v0,a0

80013728 <sys_getenvid>:
80013728:	3c028001 	lui	v0,0x8001
8001372c:	8c426ec4 	lw	v0,28356(v0)
80013730:	00000000 	nop
80013734:	8c4200a4 	lw	v0,164(v0)
80013738:	03e00008 	jr	ra
8001373c:	00000000 	nop

80013740 <sys_yield>:
80013740:	03e00008 	jr	ra
80013744:	00000000 	nop

80013748 <sys_env_destroy>:
80013748:	03e00008 	jr	ra
8001374c:	00001021 	move	v0,zero

80013750 <sys_set_pgfault_handler>:
80013750:	03e00008 	jr	ra
80013754:	00001021 	move	v0,zero

80013758 <sys_mem_alloc>:
80013758:	03e00008 	jr	ra
8001375c:	00001021 	move	v0,zero

80013760 <sys_mem_map>:
80013760:	03e00008 	jr	ra
80013764:	00001021 	move	v0,zero

80013768 <sys_mem_unmap>:
80013768:	03e00008 	jr	ra
8001376c:	00001021 	move	v0,zero

80013770 <sys_env_alloc>:
80013770:	03e00008 	jr	ra
80013774:	00001021 	move	v0,zero

80013778 <sys_set_env_status>:
80013778:	03e00008 	jr	ra
8001377c:	00001021 	move	v0,zero

80013780 <sys_set_trapframe>:
80013780:	03e00008 	jr	ra
80013784:	00001021 	move	v0,zero

80013788 <sys_panic>:
80013788:	03e00008 	jr	ra
8001378c:	00000000 	nop

80013790 <sys_ipc_recv>:
80013790:	03e00008 	jr	ra
80013794:	00000000 	nop

80013798 <sys_ipc_can_send>:
80013798:	03e00008 	jr	ra
8001379c:	00001021 	move	v0,zero

800137a0 <trap_init>:
800137a0:	27bdffe0 	addiu	sp,sp,-32
800137a4:	afbf001c 	sw	ra,28(sp)
800137a8:	afb20018 	sw	s2,24(sp)
800137ac:	afb10014 	sw	s1,20(sp)
800137b0:	afb00010 	sw	s0,16(sp)
800137b4:	00008021 	move	s0,zero
800137b8:	3c128001 	lui	s2,0x8001
800137bc:	24110020 	li	s1,32
800137c0:	02002021 	move	a0,s0
800137c4:	0c004e0f 	jal	8001383c <set_except_vector>
800137c8:	264523a0 	addiu	a1,s2,9120
800137cc:	26100001 	addiu	s0,s0,1
800137d0:	1611fffc 	bne	s0,s1,800137c4 <trap_init+0x24>
800137d4:	02002021 	move	a0,s0
800137d8:	00002021 	move	a0,zero
800137dc:	3c058001 	lui	a1,0x8001
800137e0:	0c004e0f 	jal	8001383c <set_except_vector>
800137e4:	24a52160 	addiu	a1,a1,8544
800137e8:	24040001 	li	a0,1
800137ec:	3c058001 	lui	a1,0x8001
800137f0:	0c004e0f 	jal	8001383c <set_except_vector>
800137f4:	24a52620 	addiu	a1,a1,9760
800137f8:	24040002 	li	a0,2
800137fc:	3c108001 	lui	s0,0x8001
80013800:	0c004e0f 	jal	8001383c <set_except_vector>
80013804:	260524e0 	addiu	a1,s0,9440
80013808:	24040003 	li	a0,3
8001380c:	0c004e0f 	jal	8001383c <set_except_vector>
80013810:	260524e0 	addiu	a1,s0,9440
80013814:	24040008 	li	a0,8
80013818:	3c058001 	lui	a1,0x8001
8001381c:	0c004e0f 	jal	8001383c <set_except_vector>
80013820:	24a534f0 	addiu	a1,a1,13552
80013824:	8fbf001c 	lw	ra,28(sp)
80013828:	8fb20018 	lw	s2,24(sp)
8001382c:	8fb10014 	lw	s1,20(sp)
80013830:	8fb00010 	lw	s0,16(sp)
80013834:	03e00008 	jr	ra
80013838:	27bd0020 	addiu	sp,sp,32

8001383c <set_except_vector>:
8001383c:	00042080 	sll	a0,a0,0x2
80013840:	3c028001 	lui	v0,0x8001
80013844:	24426f00 	addiu	v0,v0,28416
80013848:	00822021 	addu	a0,a0,v0
8001384c:	8c820000 	lw	v0,0(a0)
80013850:	03e00008 	jr	ra
80013854:	ac850000 	sw	a1,0(a0)

80013858 <page_fault_handler>:
80013858:	27bdff48 	addiu	sp,sp,-184
8001385c:	afbf00b4 	sw	ra,180(sp)
80013860:	afb000b0 	sw	s0,176(sp)
80013864:	00808021 	move	s0,a0
80013868:	27a50010 	addiu	a1,sp,16
8001386c:	0c004044 	jal	80010110 <bcopy>
80013870:	2406009c 	li	a2,156
80013874:	8e050074 	lw	a1,116(s0)
80013878:	3c028001 	lui	v0,0x8001
8001387c:	8c426ec4 	lw	v0,28356(v0)
80013880:	00000000 	nop
80013884:	8c4300dc 	lw	v1,220(v0)
80013888:	00000000 	nop
8001388c:	2462f000 	addiu	v0,v1,-4096
80013890:	00a2102b 	sltu	v0,a1,v0
80013894:	1440000a 	bnez	v0,800138c0 <page_fault_handler+0x68>
80013898:	2462ffff 	addiu	v0,v1,-1
8001389c:	0045102b 	sltu	v0,v0,a1
800138a0:	14400007 	bnez	v0,800138c0 <page_fault_handler+0x68>
800138a4:	24a5ff64 	addiu	a1,a1,-156
800138a8:	ae050074 	sw	a1,116(s0)
800138ac:	27a40010 	addiu	a0,sp,16
800138b0:	0c004044 	jal	80010110 <bcopy>
800138b4:	2406009c 	li	a2,156
800138b8:	1000000c 	b	800138ec <page_fault_handler+0x94>
800138bc:	3c028001 	lui	v0,0x8001
800138c0:	2462ff64 	addiu	v0,v1,-156
800138c4:	ae020074 	sw	v0,116(s0)
800138c8:	3c028001 	lui	v0,0x8001
800138cc:	8c426ec4 	lw	v0,28356(v0)
800138d0:	00000000 	nop
800138d4:	8c4500dc 	lw	a1,220(v0)
800138d8:	27a40010 	addiu	a0,sp,16
800138dc:	24a5ff64 	addiu	a1,a1,-156
800138e0:	0c004044 	jal	80010110 <bcopy>
800138e4:	2406009c 	li	a2,156
800138e8:	3c028001 	lui	v0,0x8001
800138ec:	8c426ec4 	lw	v0,28356(v0)
800138f0:	00000000 	nop
800138f4:	8c4200d8 	lw	v0,216(v0)
800138f8:	00000000 	nop
800138fc:	ae020094 	sw	v0,148(s0)
80013900:	8fbf00b4 	lw	ra,180(sp)
80013904:	8fb000b0 	lw	s0,176(sp)
80013908:	03e00008 	jr	ra
8001390c:	27bd00b8 	addiu	sp,sp,184

80013910 <mips_detect_memory>:
80013910:	27bdffe0 	addiu	sp,sp,-32
80013914:	afbf0018 	sw	ra,24(sp)
80013918:	afb10014 	sw	s1,20(sp)
8001391c:	afb00010 	sw	s0,16(sp)
80013920:	3c118001 	lui	s1,0x8001
80013924:	3c040400 	lui	a0,0x400
80013928:	ae246f94 	sw	a0,28564(s1)
8001392c:	24034000 	li	v1,16384
80013930:	3c028001 	lui	v0,0x8001
80013934:	ac436f88 	sw	v1,28552(v0)
80013938:	3c028001 	lui	v0,0x8001
8001393c:	ac446f90 	sw	a0,28560(v0)
80013940:	3c108001 	lui	s0,0x8001
80013944:	ae006f98 	sw	zero,28568(s0)
80013948:	3c048001 	lui	a0,0x8001
8001394c:	24846680 	addiu	a0,a0,26240
80013950:	0c004c9a 	jal	80013268 <printf>
80013954:	3c050001 	lui	a1,0x1
80013958:	8e256f94 	lw	a1,28564(s1)
8001395c:	8e066f98 	lw	a2,28568(s0)
80013960:	3c048001 	lui	a0,0x8001
80013964:	248466a4 	addiu	a0,a0,26276
80013968:	00052a82 	srl	a1,a1,0xa
8001396c:	0c004c9a 	jal	80013268 <printf>
80013970:	00063282 	srl	a2,a2,0xa
80013974:	8fbf0018 	lw	ra,24(sp)
80013978:	8fb10014 	lw	s1,20(sp)
8001397c:	8fb00010 	lw	s0,16(sp)
80013980:	03e00008 	jr	ra
80013984:	27bd0020 	addiu	sp,sp,32

80013988 <alloc>:
80013988:	27bdffe8 	addiu	sp,sp,-24
8001398c:	afbf0014 	sw	ra,20(sp)
80013990:	afb00010 	sw	s0,16(sp)
80013994:	3c038001 	lui	v1,0x8001
80013998:	8c626ef0 	lw	v0,28400(v1)
8001399c:	00000000 	nop
800139a0:	14400004 	bnez	v0,800139b4 <alloc+0x2c>
800139a4:	00804021 	move	t0,a0
800139a8:	3c028040 	lui	v0,0x8040
800139ac:	24420000 	addiu	v0,v0,0
800139b0:	ac626ef0 	sw	v0,28400(v1)
800139b4:	3c028001 	lui	v0,0x8001
800139b8:	8c436ef0 	lw	v1,28400(v0)
800139bc:	00000000 	nop
800139c0:	00a31821 	addu	v1,a1,v1
800139c4:	2463ffff 	addiu	v1,v1,-1
800139c8:	00052023 	negu	a0,a1
800139cc:	00648024 	and	s0,v1,a0
800139d0:	02083821 	addu	a3,s0,t0
800139d4:	04e00007 	bltz	a3,800139f4 <alloc+0x6c>
800139d8:	ac476ef0 	sw	a3,28400(v0)
800139dc:	3c048001 	lui	a0,0x8001
800139e0:	248466c0 	addiu	a0,a0,26304
800139e4:	24050045 	li	a1,69
800139e8:	3c068001 	lui	a2,0x8001
800139ec:	0c004caa 	jal	800132a8 <_panic>
800139f0:	24c666c8 	addiu	a2,a2,26312
800139f4:	3c028000 	lui	v0,0x8000
800139f8:	00e21021 	addu	v0,a3,v0
800139fc:	3c038001 	lui	v1,0x8001
80013a00:	8c636f90 	lw	v1,28560(v1)
80013a04:	00000000 	nop
80013a08:	0043102b 	sltu	v0,v0,v1
80013a0c:	14400006 	bnez	v0,80013a28 <alloc+0xa0>
80013a10:	3c048001 	lui	a0,0x8001
80013a14:	248466c0 	addiu	a0,a0,26304
80013a18:	24050046 	li	a1,70
80013a1c:	3c068001 	lui	a2,0x8001
80013a20:	0c004caa 	jal	800132a8 <_panic>
80013a24:	24c666ec 	addiu	a2,a2,26348
80013a28:	10c00005 	beqz	a2,80013a40 <alloc+0xb8>
80013a2c:	02001021 	move	v0,s0
80013a30:	02002021 	move	a0,s0
80013a34:	0c00405d 	jal	80010174 <bzero>
80013a38:	01002821 	move	a1,t0
80013a3c:	02001021 	move	v0,s0
80013a40:	8fbf0014 	lw	ra,20(sp)
80013a44:	8fb00010 	lw	s0,16(sp)
80013a48:	03e00008 	jr	ra
80013a4c:	27bd0018 	addiu	sp,sp,24

80013a50 <boot_pgdir_walk>:
80013a50:	27bdffe0 	addiu	sp,sp,-32
80013a54:	afbf0018 	sw	ra,24(sp)
80013a58:	afb10014 	sw	s1,20(sp)
80013a5c:	afb00010 	sw	s0,16(sp)
80013a60:	00051582 	srl	v0,a1,0x16
80013a64:	00021080 	sll	v0,v0,0x2
80013a68:	00448021 	addu	s0,v0,a0
80013a6c:	8e040000 	lw	a0,0(s0)
80013a70:	2402f000 	li	v0,-4096
80013a74:	00823824 	and	a3,a0,v0
80013a78:	00071302 	srl	v0,a3,0xc
80013a7c:	3c038001 	lui	v1,0x8001
80013a80:	8c636f88 	lw	v1,28552(v1)
80013a84:	00000000 	nop
80013a88:	0043102b 	sltu	v0,v0,v1
80013a8c:	14400007 	bnez	v0,80013aac <boot_pgdir_walk+0x5c>
80013a90:	00a08821 	move	s1,a1
80013a94:	3c048001 	lui	a0,0x8001
80013a98:	248466c0 	addiu	a0,a0,26304
80013a9c:	24050065 	li	a1,101
80013aa0:	3c068001 	lui	a2,0x8001
80013aa4:	0c004caa 	jal	800132a8 <_panic>
80013aa8:	24c65ddc 	addiu	a2,a2,24028
80013aac:	3c028000 	lui	v0,0x8000
80013ab0:	00e23821 	addu	a3,a3,v0
80013ab4:	30820200 	andi	v0,a0,0x200
80013ab8:	14400012 	bnez	v0,80013b04 <boot_pgdir_walk+0xb4>
80013abc:	00000000 	nop
80013ac0:	10c00013 	beqz	a2,80013b10 <boot_pgdir_walk+0xc0>
80013ac4:	24041000 	li	a0,4096
80013ac8:	24051000 	li	a1,4096
80013acc:	0c004e62 	jal	80013988 <alloc>
80013ad0:	24060001 	li	a2,1
80013ad4:	04400007 	bltz	v0,80013af4 <boot_pgdir_walk+0xa4>
80013ad8:	00403821 	move	a3,v0
80013adc:	3c048001 	lui	a0,0x8001
80013ae0:	248466c0 	addiu	a0,a0,26304
80013ae4:	2405006f 	li	a1,111
80013ae8:	3c068001 	lui	a2,0x8001
80013aec:	0c004caa 	jal	800132a8 <_panic>
80013af0:	24c666c8 	addiu	a2,a2,26312
80013af4:	3c028000 	lui	v0,0x8000
80013af8:	00e21021 	addu	v0,a3,v0
80013afc:	34420600 	ori	v0,v0,0x600
80013b00:	ae020000 	sw	v0,0(s0)
80013b04:	00111282 	srl	v0,s1,0xa
80013b08:	30420ffc 	andi	v0,v0,0xffc
80013b0c:	00e21021 	addu	v0,a3,v0
80013b10:	8fbf0018 	lw	ra,24(sp)
80013b14:	8fb10014 	lw	s1,20(sp)
80013b18:	8fb00010 	lw	s0,16(sp)
80013b1c:	03e00008 	jr	ra
80013b20:	27bd0020 	addiu	sp,sp,32

80013b24 <boot_map_segment>:
80013b24:	27bdffc8 	addiu	sp,sp,-56
80013b28:	afbf0030 	sw	ra,48(sp)
80013b2c:	afb7002c 	sw	s7,44(sp)
80013b30:	afb60028 	sw	s6,40(sp)
80013b34:	afb50024 	sw	s5,36(sp)
80013b38:	afb40020 	sw	s4,32(sp)
80013b3c:	afb3001c 	sw	s3,28(sp)
80013b40:	afb20018 	sw	s2,24(sp)
80013b44:	afb10014 	sw	s1,20(sp)
80013b48:	afb00010 	sw	s0,16(sp)
80013b4c:	0080b821 	move	s7,a0
80013b50:	00a0b021 	move	s6,a1
80013b54:	8fb40048 	lw	s4,72(sp)
80013b58:	30c20fff 	andi	v0,a2,0xfff
80013b5c:	14400015 	bnez	v0,80013bb4 <boot_map_segment+0x90>
80013b60:	00e0a821 	move	s5,a3
80013b64:	24c30fff 	addiu	v1,a2,4095
80013b68:	2402f000 	li	v0,-4096
80013b6c:	00628824 	and	s1,v1,v0
80013b70:	12200010 	beqz	s1,80013bb4 <boot_map_segment+0x90>
80013b74:	00009021 	move	s2,zero
80013b78:	00008021 	move	s0,zero
80013b7c:	2413f000 	li	s3,-4096
80013b80:	02e02021 	move	a0,s7
80013b84:	02162821 	addu	a1,s0,s6
80013b88:	0c004e94 	jal	80013a50 <boot_pgdir_walk>
80013b8c:	24060001 	li	a2,1
80013b90:	02151821 	addu	v1,s0,s5
80013b94:	00731824 	and	v1,v1,s3
80013b98:	00741825 	or	v1,v1,s4
80013b9c:	34630200 	ori	v1,v1,0x200
80013ba0:	ac430000 	sw	v1,0(v0)
80013ba4:	26501000 	addiu	s0,s2,4096
80013ba8:	0211102b 	sltu	v0,s0,s1
80013bac:	1440fff4 	bnez	v0,80013b80 <boot_map_segment+0x5c>
80013bb0:	02009021 	move	s2,s0
80013bb4:	8fbf0030 	lw	ra,48(sp)
80013bb8:	8fb7002c 	lw	s7,44(sp)
80013bbc:	8fb60028 	lw	s6,40(sp)
80013bc0:	8fb50024 	lw	s5,36(sp)
80013bc4:	8fb40020 	lw	s4,32(sp)
80013bc8:	8fb3001c 	lw	s3,28(sp)
80013bcc:	8fb20018 	lw	s2,24(sp)
80013bd0:	8fb10014 	lw	s1,20(sp)
80013bd4:	8fb00010 	lw	s0,16(sp)
80013bd8:	03e00008 	jr	ra
80013bdc:	27bd0038 	addiu	sp,sp,56

80013be0 <mips_vm_init>:
80013be0:	27bdffd0 	addiu	sp,sp,-48
80013be4:	afbf0028 	sw	ra,40(sp)
80013be8:	afb30024 	sw	s3,36(sp)
80013bec:	afb20020 	sw	s2,32(sp)
80013bf0:	afb1001c 	sw	s1,28(sp)
80013bf4:	afb00018 	sw	s0,24(sp)
80013bf8:	24041000 	li	a0,4096
80013bfc:	24051000 	li	a1,4096
80013c00:	0c004e62 	jal	80013988 <alloc>
80013c04:	24060001 	li	a2,1
80013c08:	00409821 	move	s3,v0
80013c0c:	3c128001 	lui	s2,0x8001
80013c10:	3c048001 	lui	a0,0x8001
80013c14:	8e456ef0 	lw	a1,28400(s2)
80013c18:	0c004c9a 	jal	80013268 <printf>
80013c1c:	248466fc 	addiu	a0,a0,26364
80013c20:	3c028001 	lui	v0,0x8001
80013c24:	ac536fa0 	sw	s3,28576(v0)
80013c28:	3c028001 	lui	v0,0x8001
80013c2c:	ac536f8c 	sw	s3,28556(v0)
80013c30:	3c118001 	lui	s1,0x8001
80013c34:	8e246f88 	lw	a0,28552(s1)
80013c38:	00000000 	nop
80013c3c:	00041080 	sll	v0,a0,0x2
80013c40:	00042100 	sll	a0,a0,0x4
80013c44:	00822023 	subu	a0,a0,v0
80013c48:	24051000 	li	a1,4096
80013c4c:	0c004e62 	jal	80013988 <alloc>
80013c50:	24060001 	li	a2,1
80013c54:	3c108001 	lui	s0,0x8001
80013c58:	ae026f9c 	sw	v0,28572(s0)
80013c5c:	3c048001 	lui	a0,0x8001
80013c60:	8e456ef0 	lw	a1,28400(s2)
80013c64:	0c004c9a 	jal	80013268 <printf>
80013c68:	24846728 	addiu	a0,a0,26408
80013c6c:	8e226f88 	lw	v0,28552(s1)
80013c70:	00000000 	nop
80013c74:	00021880 	sll	v1,v0,0x2
80013c78:	00021100 	sll	v0,v0,0x4
80013c7c:	00431023 	subu	v0,v0,v1
80013c80:	24420fff 	addiu	v0,v0,4095
80013c84:	2403f000 	li	v1,-4096
80013c88:	00433024 	and	a2,v0,v1
80013c8c:	8e036f9c 	lw	v1,28572(s0)
80013c90:	00000000 	nop
80013c94:	04600008 	bltz	v1,80013cb8 <mips_vm_init+0xd8>
80013c98:	24020400 	li	v0,1024
80013c9c:	3c048001 	lui	a0,0x8001
80013ca0:	248466c0 	addiu	a0,a0,26304
80013ca4:	240500b5 	li	a1,181
80013ca8:	3c068001 	lui	a2,0x8001
80013cac:	24c666c8 	addiu	a2,a2,26312
80013cb0:	0c004caa 	jal	800132a8 <_panic>
80013cb4:	00603821 	move	a3,v1
80013cb8:	afa20010 	sw	v0,16(sp)
80013cbc:	02602021 	move	a0,s3
80013cc0:	3c057f80 	lui	a1,0x7f80
80013cc4:	3c078000 	lui	a3,0x8000
80013cc8:	0c004ec9 	jal	80013b24 <boot_map_segment>
80013ccc:	00673821 	addu	a3,v1,a3
80013cd0:	3c040003 	lui	a0,0x3
80013cd4:	3484a000 	ori	a0,a0,0xa000
80013cd8:	24051000 	li	a1,4096
80013cdc:	0c004e62 	jal	80013988 <alloc>
80013ce0:	24060001 	li	a2,1
80013ce4:	3c038001 	lui	v1,0x8001
80013ce8:	ac626ec0 	sw	v0,28352(v1)
80013cec:	04400008 	bltz	v0,80013d10 <mips_vm_init+0x130>
80013cf0:	00401821 	move	v1,v0
80013cf4:	3c048001 	lui	a0,0x8001
80013cf8:	248466c0 	addiu	a0,a0,26304
80013cfc:	240500bb 	li	a1,187
80013d00:	3c068001 	lui	a2,0x8001
80013d04:	24c666c8 	addiu	a2,a2,26312
80013d08:	0c004caa 	jal	800132a8 <_panic>
80013d0c:	00403821 	move	a3,v0
80013d10:	24020400 	li	v0,1024
80013d14:	afa20010 	sw	v0,16(sp)
80013d18:	02602021 	move	a0,s3
80013d1c:	3c057f40 	lui	a1,0x7f40
80013d20:	3c060003 	lui	a2,0x3
80013d24:	34c6a000 	ori	a2,a2,0xa000
80013d28:	3c078000 	lui	a3,0x8000
80013d2c:	0c004ec9 	jal	80013b24 <boot_map_segment>
80013d30:	00673821 	addu	a3,v1,a3
80013d34:	3c048001 	lui	a0,0x8001
80013d38:	0c004c9a 	jal	80013268 <printf>
80013d3c:	24846748 	addiu	a0,a0,26440
80013d40:	8fbf0028 	lw	ra,40(sp)
80013d44:	8fb30024 	lw	s3,36(sp)
80013d48:	8fb20020 	lw	s2,32(sp)
80013d4c:	8fb1001c 	lw	s1,28(sp)
80013d50:	8fb00018 	lw	s0,24(sp)
80013d54:	03e00008 	jr	ra
80013d58:	27bd0030 	addiu	sp,sp,48

80013d5c <page_init>:
80013d5c:	27bdffe8 	addiu	sp,sp,-24
80013d60:	afbf0010 	sw	ra,16(sp)
80013d64:	3c028001 	lui	v0,0x8001
80013d68:	ac406ef4 	sw	zero,28404(v0)
80013d6c:	3c048001 	lui	a0,0x8001
80013d70:	8c826ef0 	lw	v0,28400(a0)
80013d74:	00000000 	nop
80013d78:	24420fff 	addiu	v0,v0,4095
80013d7c:	2403f000 	li	v1,-4096
80013d80:	00433824 	and	a3,v0,v1
80013d84:	04e0009a 	bltz	a3,80013ff0 <page_init+0x294>
80013d88:	ac876ef0 	sw	a3,28400(a0)
80013d8c:	1000001d 	b	80013e04 <page_init+0xa8>
80013d90:	3c048001 	lui	a0,0x8001
80013d94:	3c028001 	lui	v0,0x8001
80013d98:	8c426f88 	lw	v0,28552(v0)
80013d9c:	00000000 	nop
80013da0:	00a2102b 	sltu	v0,a1,v0
80013da4:	1440000a 	bnez	v0,80013dd0 <page_init+0x74>
80013da8:	3c028001 	lui	v0,0x8001
80013dac:	3c048001 	lui	a0,0x8001
80013db0:	24845dc8 	addiu	a0,a0,24008
80013db4:	24050029 	li	a1,41
80013db8:	3c068001 	lui	a2,0x8001
80013dbc:	24c65e18 	addiu	a2,a2,24088
80013dc0:	0c004caa 	jal	800132a8 <_panic>
80013dc4:	01003821 	move	a3,t0
80013dc8:	00004021 	move	t0,zero
80013dcc:	3c028001 	lui	v0,0x8001
80013dd0:	8c446f9c 	lw	a0,28572(v0)
80013dd4:	00051880 	sll	v1,a1,0x2
80013dd8:	00051100 	sll	v0,a1,0x4
80013ddc:	00431023 	subu	v0,v0,v1
80013de0:	00441021 	addu	v0,v0,a0
80013de4:	24030001 	li	v1,1
80013de8:	a4430008 	sh	v1,8(v0)
80013dec:	3c028001 	lui	v0,0x8001
80013df0:	8c476ef0 	lw	a3,28400(v0)
80013df4:	00000000 	nop
80013df8:	04e00007 	bltz	a3,80013e18 <page_init+0xbc>
80013dfc:	25081000 	addiu	t0,t0,4096
80013e00:	3c048001 	lui	a0,0x8001
80013e04:	248466c0 	addiu	a0,a0,26304
80013e08:	240500d3 	li	a1,211
80013e0c:	3c068001 	lui	a2,0x8001
80013e10:	0c004caa 	jal	800132a8 <_panic>
80013e14:	24c666c8 	addiu	a2,a2,26312
80013e18:	3c028000 	lui	v0,0x8000
80013e1c:	00e21021 	addu	v0,a3,v0
80013e20:	0102102b 	sltu	v0,t0,v0
80013e24:	1440ffdb 	bnez	v0,80013d94 <page_init+0x38>
80013e28:	00082b02 	srl	a1,t0,0xc
80013e2c:	3c028001 	lui	v0,0x8001
80013e30:	8c426f88 	lw	v0,28552(v0)
80013e34:	00000000 	nop
80013e38:	2c422001 	sltiu	v0,v0,8193
80013e3c:	10400008 	beqz	v0,80013e60 <page_init+0x104>
80013e40:	3c028001 	lui	v0,0x8001
80013e44:	3c048001 	lui	a0,0x8001
80013e48:	24845dc8 	addiu	a0,a0,24008
80013e4c:	24050029 	li	a1,41
80013e50:	3c068001 	lui	a2,0x8001
80013e54:	24c65e18 	addiu	a2,a2,24088
80013e58:	0c004caa 	jal	800132a8 <_panic>
80013e5c:	3c070200 	lui	a3,0x200
80013e60:	8c426f9c 	lw	v0,28572(v0)
80013e64:	3c030002 	lui	v1,0x2
80013e68:	00431021 	addu	v0,v0,v1
80013e6c:	24030001 	li	v1,1
80013e70:	a4438008 	sh	v1,-32760(v0)
80013e74:	3c028001 	lui	v0,0x8001
80013e78:	8c426f90 	lw	v0,28560(v0)
80013e7c:	00000000 	nop
80013e80:	0102102b 	sltu	v0,t0,v0
80013e84:	14400065 	bnez	v0,8001401c <page_init+0x2c0>
80013e88:	00082302 	srl	a0,t0,0xc
80013e8c:	10000077 	b	8001406c <page_init+0x310>
80013e90:	00000000 	nop
80013e94:	3c028001 	lui	v0,0x8001
80013e98:	8c426f88 	lw	v0,28552(v0)
80013e9c:	00000000 	nop
80013ea0:	0082102b 	sltu	v0,a0,v0
80013ea4:	14400008 	bnez	v0,80013ec8 <page_init+0x16c>
80013ea8:	00041880 	sll	v1,a0,0x2
80013eac:	3c048001 	lui	a0,0x8001
80013eb0:	24845dc8 	addiu	a0,a0,24008
80013eb4:	24050029 	li	a1,41
80013eb8:	3c068001 	lui	a2,0x8001
80013ebc:	24c65e18 	addiu	a2,a2,24088
80013ec0:	0c004caa 	jal	800132a8 <_panic>
80013ec4:	01003821 	move	a3,t0
80013ec8:	00041100 	sll	v0,a0,0x4
80013ecc:	00432823 	subu	a1,v0,v1
80013ed0:	3c028001 	lui	v0,0x8001
80013ed4:	8c426f9c 	lw	v0,28572(v0)
80013ed8:	00000000 	nop
80013edc:	00451021 	addu	v0,v0,a1
80013ee0:	a4400008 	sh	zero,8(v0)
80013ee4:	3c028001 	lui	v0,0x8001
80013ee8:	8c426f88 	lw	v0,28552(v0)
80013eec:	00000000 	nop
80013ef0:	0082102b 	sltu	v0,a0,v0
80013ef4:	14400008 	bnez	v0,80013f18 <page_init+0x1bc>
80013ef8:	3c068001 	lui	a2,0x8001
80013efc:	3c048001 	lui	a0,0x8001
80013f00:	24845dc8 	addiu	a0,a0,24008
80013f04:	24050029 	li	a1,41
80013f08:	3c068001 	lui	a2,0x8001
80013f0c:	24c65e18 	addiu	a2,a2,24088
80013f10:	0c004caa 	jal	800132a8 <_panic>
80013f14:	01003821 	move	a3,t0
80013f18:	8cc36ef4 	lw	v1,28404(a2)
80013f1c:	3c028001 	lui	v0,0x8001
80013f20:	8c426f9c 	lw	v0,28572(v0)
80013f24:	00000000 	nop
80013f28:	00a21021 	addu	v0,a1,v0
80013f2c:	10600013 	beqz	v1,80013f7c <page_init+0x220>
80013f30:	ac430000 	sw	v1,0(v0)
80013f34:	8cc36ef4 	lw	v1,28404(a2)
80013f38:	3c028001 	lui	v0,0x8001
80013f3c:	8c426f88 	lw	v0,28552(v0)
80013f40:	00000000 	nop
80013f44:	0082102b 	sltu	v0,a0,v0
80013f48:	14400008 	bnez	v0,80013f6c <page_init+0x210>
80013f4c:	3c028001 	lui	v0,0x8001
80013f50:	3c048001 	lui	a0,0x8001
80013f54:	24845dc8 	addiu	a0,a0,24008
80013f58:	24050029 	li	a1,41
80013f5c:	3c068001 	lui	a2,0x8001
80013f60:	24c65e18 	addiu	a2,a2,24088
80013f64:	0c004caa 	jal	800132a8 <_panic>
80013f68:	01003821 	move	a3,t0
80013f6c:	8c426f9c 	lw	v0,28572(v0)
80013f70:	00000000 	nop
80013f74:	00a21021 	addu	v0,a1,v0
80013f78:	ac620004 	sw	v0,4(v1)
80013f7c:	3c028001 	lui	v0,0x8001
80013f80:	8c426f88 	lw	v0,28552(v0)
80013f84:	00000000 	nop
80013f88:	0082102b 	sltu	v0,a0,v0
80013f8c:	14400008 	bnez	v0,80013fb0 <page_init+0x254>
80013f90:	3c028001 	lui	v0,0x8001
80013f94:	3c048001 	lui	a0,0x8001
80013f98:	24845dc8 	addiu	a0,a0,24008
80013f9c:	24050029 	li	a1,41
80013fa0:	3c068001 	lui	a2,0x8001
80013fa4:	24c65e18 	addiu	a2,a2,24088
80013fa8:	0c004caa 	jal	800132a8 <_panic>
80013fac:	01003821 	move	a3,t0
80013fb0:	8c436f9c 	lw	v1,28572(v0)
80013fb4:	00000000 	nop
80013fb8:	00a31821 	addu	v1,a1,v1
80013fbc:	3c028001 	lui	v0,0x8001
80013fc0:	ac436ef4 	sw	v1,28404(v0)
80013fc4:	24426ef4 	addiu	v0,v0,28404
80013fc8:	ac620004 	sw	v0,4(v1)
80013fcc:	25081000 	addiu	t0,t0,4096
80013fd0:	3c028001 	lui	v0,0x8001
80013fd4:	8c426f90 	lw	v0,28560(v0)
80013fd8:	00000000 	nop
80013fdc:	0102102b 	sltu	v0,t0,v0
80013fe0:	1440ffac 	bnez	v0,80013e94 <page_init+0x138>
80013fe4:	00082302 	srl	a0,t0,0xc
80013fe8:	10000020 	b	8001406c <page_init+0x310>
80013fec:	00000000 	nop
80013ff0:	3c028000 	lui	v0,0x8000
80013ff4:	14e20003 	bne	a3,v0,80014004 <page_init+0x2a8>
80013ff8:	3c028001 	lui	v0,0x8001
80013ffc:	1000ff8c 	b	80013e30 <page_init+0xd4>
80014000:	00004021 	move	t0,zero
80014004:	8c426f88 	lw	v0,28552(v0)
80014008:	00000000 	nop
8001400c:	1440ff6e 	bnez	v0,80013dc8 <page_init+0x6c>
80014010:	00002821 	move	a1,zero
80014014:	1000ff65 	b	80013dac <page_init+0x50>
80014018:	00004021 	move	t0,zero
8001401c:	3c068001 	lui	a2,0x8001
80014020:	8cc26f88 	lw	v0,28552(a2)
80014024:	00000000 	nop
80014028:	0082102b 	sltu	v0,a0,v0
8001402c:	1040ff9f 	beqz	v0,80013eac <page_init+0x150>
80014030:	00041880 	sll	v1,a0,0x2
80014034:	00041100 	sll	v0,a0,0x4
80014038:	00432823 	subu	a1,v0,v1
8001403c:	3c028001 	lui	v0,0x8001
80014040:	8c426f9c 	lw	v0,28572(v0)
80014044:	00000000 	nop
80014048:	00a21021 	addu	v0,a1,v0
8001404c:	a4400008 	sh	zero,8(v0)
80014050:	8cc26f88 	lw	v0,28552(a2)
80014054:	00000000 	nop
80014058:	0082102b 	sltu	v0,a0,v0
8001405c:	1440ffae 	bnez	v0,80013f18 <page_init+0x1bc>
80014060:	3c068001 	lui	a2,0x8001
80014064:	1000ffa6 	b	80013f00 <page_init+0x1a4>
80014068:	3c048001 	lui	a0,0x8001
8001406c:	8fbf0010 	lw	ra,16(sp)
80014070:	00000000 	nop
80014074:	03e00008 	jr	ra
80014078:	27bd0018 	addiu	sp,sp,24

8001407c <page_alloc>:
8001407c:	27bdffe0 	addiu	sp,sp,-32
80014080:	afbf0018 	sw	ra,24(sp)
80014084:	afb10014 	sw	s1,20(sp)
80014088:	afb00010 	sw	s0,16(sp)
8001408c:	3c028001 	lui	v0,0x8001
80014090:	8c506ef4 	lw	s0,28404(v0)
80014094:	00000000 	nop
80014098:	16000003 	bnez	s0,800140a8 <page_alloc+0x2c>
8001409c:	00808821 	move	s1,a0
800140a0:	1000002d 	b	80014158 <page_alloc+0xdc>
800140a4:	2402fffc 	li	v0,-4
800140a8:	8e030000 	lw	v1,0(s0)
800140ac:	00000000 	nop
800140b0:	10600004 	beqz	v1,800140c4 <page_alloc+0x48>
800140b4:	00000000 	nop
800140b8:	8e020004 	lw	v0,4(s0)
800140bc:	00000000 	nop
800140c0:	ac620004 	sw	v0,4(v1)
800140c4:	8e030004 	lw	v1,4(s0)
800140c8:	8e020000 	lw	v0,0(s0)
800140cc:	00000000 	nop
800140d0:	ac620000 	sw	v0,0(v1)
800140d4:	3c028001 	lui	v0,0x8001
800140d8:	8c436f9c 	lw	v1,28572(v0)
800140dc:	00000000 	nop
800140e0:	02031823 	subu	v1,s0,v1
800140e4:	00031883 	sra	v1,v1,0x2
800140e8:	00031080 	sll	v0,v1,0x2
800140ec:	00431021 	addu	v0,v0,v1
800140f0:	00021900 	sll	v1,v0,0x4
800140f4:	00431021 	addu	v0,v0,v1
800140f8:	00021a00 	sll	v1,v0,0x8
800140fc:	00431021 	addu	v0,v0,v1
80014100:	00021c00 	sll	v1,v0,0x10
80014104:	00431021 	addu	v0,v0,v1
80014108:	00021023 	negu	v0,v0
8001410c:	00023b00 	sll	a3,v0,0xc
80014110:	00071302 	srl	v0,a3,0xc
80014114:	3c038001 	lui	v1,0x8001
80014118:	8c636f88 	lw	v1,28552(v1)
8001411c:	00000000 	nop
80014120:	0043102b 	sltu	v0,v0,v1
80014124:	14400007 	bnez	v0,80014144 <page_alloc+0xc8>
80014128:	3c048000 	lui	a0,0x8000
8001412c:	3c048001 	lui	a0,0x8001
80014130:	24845dc8 	addiu	a0,a0,24008
80014134:	24050030 	li	a1,48
80014138:	3c068001 	lui	a2,0x8001
8001413c:	0c004caa 	jal	800132a8 <_panic>
80014140:	24c65ddc 	addiu	a2,a2,24028
80014144:	00e42021 	addu	a0,a3,a0
80014148:	0c00405d 	jal	80010174 <bzero>
8001414c:	24051000 	li	a1,4096
80014150:	ae300000 	sw	s0,0(s1)
80014154:	00001021 	move	v0,zero
80014158:	8fbf0018 	lw	ra,24(sp)
8001415c:	8fb10014 	lw	s1,20(sp)
80014160:	8fb00010 	lw	s0,16(sp)
80014164:	03e00008 	jr	ra
80014168:	27bd0020 	addiu	sp,sp,32

8001416c <page_free>:
8001416c:	94820008 	lhu	v0,8(a0)
80014170:	00000000 	nop
80014174:	1440000c 	bnez	v0,800141a8 <page_free+0x3c>
80014178:	3c038001 	lui	v1,0x8001
8001417c:	8c626ef4 	lw	v0,28404(v1)
80014180:	00000000 	nop
80014184:	10400004 	beqz	v0,80014198 <page_free+0x2c>
80014188:	ac820000 	sw	v0,0(a0)
8001418c:	8c626ef4 	lw	v0,28404(v1)
80014190:	00000000 	nop
80014194:	ac440004 	sw	a0,4(v0)
80014198:	3c028001 	lui	v0,0x8001
8001419c:	ac446ef4 	sw	a0,28404(v0)
800141a0:	24426ef4 	addiu	v0,v0,28404
800141a4:	ac820004 	sw	v0,4(a0)
800141a8:	03e00008 	jr	ra
800141ac:	00000000 	nop

800141b0 <pgdir_walk>:
800141b0:	27bdffd8 	addiu	sp,sp,-40
800141b4:	afbf0024 	sw	ra,36(sp)
800141b8:	afb20020 	sw	s2,32(sp)
800141bc:	afb1001c 	sw	s1,28(sp)
800141c0:	afb00018 	sw	s0,24(sp)
800141c4:	00e09021 	move	s2,a3
800141c8:	00051582 	srl	v0,a1,0x16
800141cc:	00021080 	sll	v0,v0,0x2
800141d0:	00448021 	addu	s0,v0,a0
800141d4:	8e020000 	lw	v0,0(s0)
800141d8:	2403f000 	li	v1,-4096
800141dc:	00433824 	and	a3,v0,v1
800141e0:	30420200 	andi	v0,v0,0x200
800141e4:	14400030 	bnez	v0,800142a8 <pgdir_walk+0xf8>
800141e8:	00a08821 	move	s1,a1
800141ec:	10c0002b 	beqz	a2,8001429c <pgdir_walk+0xec>
800141f0:	00000000 	nop
800141f4:	0c00501f 	jal	8001407c <page_alloc>
800141f8:	27a40010 	addiu	a0,sp,16
800141fc:	0440003d 	bltz	v0,800142f4 <pgdir_walk+0x144>
80014200:	3c058001 	lui	a1,0x8001
80014204:	8fa30010 	lw	v1,16(sp)
80014208:	00000000 	nop
8001420c:	94620008 	lhu	v0,8(v1)
80014210:	00000000 	nop
80014214:	24420001 	addiu	v0,v0,1
80014218:	a4620008 	sh	v0,8(v1)
8001421c:	8fa40010 	lw	a0,16(sp)
80014220:	8ca36f9c 	lw	v1,28572(a1)
80014224:	00000000 	nop
80014228:	00831823 	subu	v1,a0,v1
8001422c:	00031883 	sra	v1,v1,0x2
80014230:	00031080 	sll	v0,v1,0x2
80014234:	00431021 	addu	v0,v0,v1
80014238:	00021900 	sll	v1,v0,0x4
8001423c:	00431021 	addu	v0,v0,v1
80014240:	00021a00 	sll	v1,v0,0x8
80014244:	00431021 	addu	v0,v0,v1
80014248:	00021c00 	sll	v1,v0,0x10
8001424c:	00431021 	addu	v0,v0,v1
80014250:	00021023 	negu	v0,v0
80014254:	00021300 	sll	v0,v0,0xc
80014258:	34420600 	ori	v0,v0,0x600
8001425c:	ae020000 	sw	v0,0(s0)
80014260:	8ca26f9c 	lw	v0,28572(a1)
80014264:	00000000 	nop
80014268:	00822023 	subu	a0,a0,v0
8001426c:	00042083 	sra	a0,a0,0x2
80014270:	00041080 	sll	v0,a0,0x2
80014274:	00441021 	addu	v0,v0,a0
80014278:	00021900 	sll	v1,v0,0x4
8001427c:	00431021 	addu	v0,v0,v1
80014280:	00021a00 	sll	v1,v0,0x8
80014284:	00431021 	addu	v0,v0,v1
80014288:	00021c00 	sll	v1,v0,0x10
8001428c:	00431021 	addu	v0,v0,v1
80014290:	00021023 	negu	v0,v0
80014294:	10000004 	b	800142a8 <pgdir_walk+0xf8>
80014298:	00023b00 	sll	a3,v0,0xc
8001429c:	ae400000 	sw	zero,0(s2)
800142a0:	10000014 	b	800142f4 <pgdir_walk+0x144>
800142a4:	00001021 	move	v0,zero
800142a8:	00071302 	srl	v0,a3,0xc
800142ac:	3c038001 	lui	v1,0x8001
800142b0:	8c636f88 	lw	v1,28552(v1)
800142b4:	00000000 	nop
800142b8:	0043102b 	sltu	v0,v0,v1
800142bc:	14400007 	bnez	v0,800142dc <pgdir_walk+0x12c>
800142c0:	3c038000 	lui	v1,0x8000
800142c4:	3c048001 	lui	a0,0x8001
800142c8:	248466c0 	addiu	a0,a0,26304
800142cc:	24050145 	li	a1,325
800142d0:	3c068001 	lui	a2,0x8001
800142d4:	0c004caa 	jal	800132a8 <_panic>
800142d8:	24c65ddc 	addiu	a2,a2,24028
800142dc:	00e31821 	addu	v1,a3,v1
800142e0:	00111282 	srl	v0,s1,0xa
800142e4:	30420ffc 	andi	v0,v0,0xffc
800142e8:	00621821 	addu	v1,v1,v0
800142ec:	ae430000 	sw	v1,0(s2)
800142f0:	00001021 	move	v0,zero
800142f4:	8fbf0024 	lw	ra,36(sp)
800142f8:	8fb20020 	lw	s2,32(sp)
800142fc:	8fb1001c 	lw	s1,28(sp)
80014300:	8fb00018 	lw	s0,24(sp)
80014304:	03e00008 	jr	ra
80014308:	27bd0028 	addiu	sp,sp,40

8001430c <page_insert>:
8001430c:	27bdffd0 	addiu	sp,sp,-48
80014310:	afbf0028 	sw	ra,40(sp)
80014314:	afb30024 	sw	s3,36(sp)
80014318:	afb20020 	sw	s2,32(sp)
8001431c:	afb1001c 	sw	s1,28(sp)
80014320:	afb00018 	sw	s0,24(sp)
80014324:	00808821 	move	s1,a0
80014328:	00a09021 	move	s2,a1
8001432c:	00c08021 	move	s0,a2
80014330:	34f30200 	ori	s3,a3,0x200
80014334:	00c02821 	move	a1,a2
80014338:	00003021 	move	a2,zero
8001433c:	0c00506c 	jal	800141b0 <pgdir_walk>
80014340:	27a70010 	addiu	a3,sp,16
80014344:	8fa20010 	lw	v0,16(sp)
80014348:	00000000 	nop
8001434c:	10400035 	beqz	v0,80014424 <page_insert+0x118>
80014350:	02202021 	move	a0,s1
80014354:	8c470000 	lw	a3,0(v0)
80014358:	00000000 	nop
8001435c:	30e20200 	andi	v0,a3,0x200
80014360:	10400030 	beqz	v0,80014424 <page_insert+0x118>
80014364:	3c028001 	lui	v0,0x8001
80014368:	00072302 	srl	a0,a3,0xc
8001436c:	8c426f88 	lw	v0,28552(v0)
80014370:	00000000 	nop
80014374:	0082102b 	sltu	v0,a0,v0
80014378:	14400007 	bnez	v0,80014398 <page_insert+0x8c>
8001437c:	00041880 	sll	v1,a0,0x2
80014380:	3c048001 	lui	a0,0x8001
80014384:	24845dc8 	addiu	a0,a0,24008
80014388:	24050029 	li	a1,41
8001438c:	3c068001 	lui	a2,0x8001
80014390:	0c004caa 	jal	800132a8 <_panic>
80014394:	24c65e18 	addiu	a2,a2,24088
80014398:	00041100 	sll	v0,a0,0x4
8001439c:	00431023 	subu	v0,v0,v1
800143a0:	3c038001 	lui	v1,0x8001
800143a4:	8c636f9c 	lw	v1,28572(v1)
800143a8:	00000000 	nop
800143ac:	00431021 	addu	v0,v0,v1
800143b0:	12420005 	beq	s2,v0,800143c8 <page_insert+0xbc>
800143b4:	02202021 	move	a0,s1
800143b8:	0c005168 	jal	800145a0 <page_remove>
800143bc:	02002821 	move	a1,s0
800143c0:	10000018 	b	80014424 <page_insert+0x118>
800143c4:	02202021 	move	a0,s1
800143c8:	0c005185 	jal	80014614 <tlb_invalidate>
800143cc:	02002821 	move	a1,s0
800143d0:	3c028001 	lui	v0,0x8001
800143d4:	8c436f9c 	lw	v1,28572(v0)
800143d8:	00000000 	nop
800143dc:	02431823 	subu	v1,s2,v1
800143e0:	00031883 	sra	v1,v1,0x2
800143e4:	00031080 	sll	v0,v1,0x2
800143e8:	00431021 	addu	v0,v0,v1
800143ec:	00021900 	sll	v1,v0,0x4
800143f0:	00431021 	addu	v0,v0,v1
800143f4:	00021a00 	sll	v1,v0,0x8
800143f8:	00431021 	addu	v0,v0,v1
800143fc:	00021c00 	sll	v1,v0,0x10
80014400:	00431021 	addu	v0,v0,v1
80014404:	00021023 	negu	v0,v0
80014408:	00021300 	sll	v0,v0,0xc
8001440c:	02621025 	or	v0,s3,v0
80014410:	8fa30010 	lw	v1,16(sp)
80014414:	00000000 	nop
80014418:	ac620000 	sw	v0,0(v1)
8001441c:	10000022 	b	800144a8 <page_insert+0x19c>
80014420:	00001021 	move	v0,zero
80014424:	0c005185 	jal	80014614 <tlb_invalidate>
80014428:	02002821 	move	a1,s0
8001442c:	02202021 	move	a0,s1
80014430:	02002821 	move	a1,s0
80014434:	24060001 	li	a2,1
80014438:	0c00506c 	jal	800141b0 <pgdir_walk>
8001443c:	27a70010 	addiu	a3,sp,16
80014440:	04400019 	bltz	v0,800144a8 <page_insert+0x19c>
80014444:	00000000 	nop
80014448:	3c028001 	lui	v0,0x8001
8001444c:	8c436f9c 	lw	v1,28572(v0)
80014450:	00000000 	nop
80014454:	02431823 	subu	v1,s2,v1
80014458:	00031883 	sra	v1,v1,0x2
8001445c:	00031080 	sll	v0,v1,0x2
80014460:	00431021 	addu	v0,v0,v1
80014464:	00021900 	sll	v1,v0,0x4
80014468:	00431021 	addu	v0,v0,v1
8001446c:	00021a00 	sll	v1,v0,0x8
80014470:	00431021 	addu	v0,v0,v1
80014474:	00021c00 	sll	v1,v0,0x10
80014478:	00431021 	addu	v0,v0,v1
8001447c:	00021023 	negu	v0,v0
80014480:	00021300 	sll	v0,v0,0xc
80014484:	02621025 	or	v0,s3,v0
80014488:	8fa30010 	lw	v1,16(sp)
8001448c:	00000000 	nop
80014490:	ac620000 	sw	v0,0(v1)
80014494:	96420008 	lhu	v0,8(s2)
80014498:	00000000 	nop
8001449c:	24420001 	addiu	v0,v0,1
800144a0:	a6420008 	sh	v0,8(s2)
800144a4:	00001021 	move	v0,zero
800144a8:	8fbf0028 	lw	ra,40(sp)
800144ac:	8fb30024 	lw	s3,36(sp)
800144b0:	8fb20020 	lw	s2,32(sp)
800144b4:	8fb1001c 	lw	s1,28(sp)
800144b8:	8fb00018 	lw	s0,24(sp)
800144bc:	03e00008 	jr	ra
800144c0:	27bd0030 	addiu	sp,sp,48

800144c4 <page_lookup>:
800144c4:	27bdffe0 	addiu	sp,sp,-32
800144c8:	afbf001c 	sw	ra,28(sp)
800144cc:	afb00018 	sw	s0,24(sp)
800144d0:	00c08021 	move	s0,a2
800144d4:	00003021 	move	a2,zero
800144d8:	0c00506c 	jal	800141b0 <pgdir_walk>
800144dc:	27a70010 	addiu	a3,sp,16
800144e0:	8fa40010 	lw	a0,16(sp)
800144e4:	00000000 	nop
800144e8:	1080001b 	beqz	a0,80014558 <page_lookup+0x94>
800144ec:	00001021 	move	v0,zero
800144f0:	8c870000 	lw	a3,0(a0)
800144f4:	00000000 	nop
800144f8:	30e20200 	andi	v0,a3,0x200
800144fc:	10400015 	beqz	v0,80014554 <page_lookup+0x90>
80014500:	00072b02 	srl	a1,a3,0xc
80014504:	3c028001 	lui	v0,0x8001
80014508:	8c426f88 	lw	v0,28552(v0)
8001450c:	00000000 	nop
80014510:	00a2102b 	sltu	v0,a1,v0
80014514:	14400007 	bnez	v0,80014534 <page_lookup+0x70>
80014518:	00051880 	sll	v1,a1,0x2
8001451c:	3c048001 	lui	a0,0x8001
80014520:	24845dc8 	addiu	a0,a0,24008
80014524:	24050029 	li	a1,41
80014528:	3c068001 	lui	a2,0x8001
8001452c:	0c004caa 	jal	800132a8 <_panic>
80014530:	24c65e18 	addiu	a2,a2,24088
80014534:	00051100 	sll	v0,a1,0x4
80014538:	00431023 	subu	v0,v0,v1
8001453c:	3c038001 	lui	v1,0x8001
80014540:	8c636f9c 	lw	v1,28572(v1)
80014544:	12000004 	beqz	s0,80014558 <page_lookup+0x94>
80014548:	00431021 	addu	v0,v0,v1
8001454c:	10000002 	b	80014558 <page_lookup+0x94>
80014550:	ae040000 	sw	a0,0(s0)
80014554:	00001021 	move	v0,zero
80014558:	8fbf001c 	lw	ra,28(sp)
8001455c:	8fb00018 	lw	s0,24(sp)
80014560:	03e00008 	jr	ra
80014564:	27bd0020 	addiu	sp,sp,32

80014568 <page_decref>:
80014568:	27bdffe8 	addiu	sp,sp,-24
8001456c:	afbf0010 	sw	ra,16(sp)
80014570:	94820008 	lhu	v0,8(a0)
80014574:	00000000 	nop
80014578:	2442ffff 	addiu	v0,v0,-1
8001457c:	3042ffff 	andi	v0,v0,0xffff
80014580:	14400003 	bnez	v0,80014590 <page_decref+0x28>
80014584:	a4820008 	sh	v0,8(a0)
80014588:	0c00505b 	jal	8001416c <page_free>
8001458c:	00000000 	nop
80014590:	8fbf0010 	lw	ra,16(sp)
80014594:	00000000 	nop
80014598:	03e00008 	jr	ra
8001459c:	27bd0018 	addiu	sp,sp,24

800145a0 <page_remove>:
800145a0:	27bdffd8 	addiu	sp,sp,-40
800145a4:	afbf0020 	sw	ra,32(sp)
800145a8:	afb1001c 	sw	s1,28(sp)
800145ac:	afb00018 	sw	s0,24(sp)
800145b0:	00808021 	move	s0,a0
800145b4:	00a08821 	move	s1,a1
800145b8:	0c005131 	jal	800144c4 <page_lookup>
800145bc:	27a60010 	addiu	a2,sp,16
800145c0:	1040000f 	beqz	v0,80014600 <page_remove+0x60>
800145c4:	00402021 	move	a0,v0
800145c8:	94420008 	lhu	v0,8(v0)
800145cc:	00000000 	nop
800145d0:	2442ffff 	addiu	v0,v0,-1
800145d4:	3042ffff 	andi	v0,v0,0xffff
800145d8:	14400003 	bnez	v0,800145e8 <page_remove+0x48>
800145dc:	a4820008 	sh	v0,8(a0)
800145e0:	0c00505b 	jal	8001416c <page_free>
800145e4:	00000000 	nop
800145e8:	8fa20010 	lw	v0,16(sp)
800145ec:	00000000 	nop
800145f0:	ac400000 	sw	zero,0(v0)
800145f4:	02002021 	move	a0,s0
800145f8:	0c005185 	jal	80014614 <tlb_invalidate>
800145fc:	02202821 	move	a1,s1
80014600:	8fbf0020 	lw	ra,32(sp)
80014604:	8fb1001c 	lw	s1,28(sp)
80014608:	8fb00018 	lw	s0,24(sp)
8001460c:	03e00008 	jr	ra
80014610:	27bd0028 	addiu	sp,sp,40

80014614 <tlb_invalidate>:
80014614:	27bdffe8 	addiu	sp,sp,-24
80014618:	afbf0010 	sw	ra,16(sp)
8001461c:	3c028001 	lui	v0,0x8001
80014620:	8c436ec4 	lw	v1,28356(v0)
80014624:	00000000 	nop
80014628:	1060000a 	beqz	v1,80014654 <tlb_invalidate+0x40>
8001462c:	2402f000 	li	v0,-4096
80014630:	00a21024 	and	v0,a1,v0
80014634:	8c6400a4 	lw	a0,164(v1)
80014638:	00000000 	nop
8001463c:	000422c2 	srl	a0,a0,0xb
80014640:	00042180 	sll	a0,a0,0x6
80014644:	0c005708 	jal	80015c20 <tlb_out>
80014648:	00442025 	or	a0,v0,a0
8001464c:	10000004 	b	80014660 <tlb_invalidate+0x4c>
80014650:	00000000 	nop
80014654:	2404f000 	li	a0,-4096
80014658:	0c005708 	jal	80015c20 <tlb_out>
8001465c:	00a42024 	and	a0,a1,a0
80014660:	8fbf0010 	lw	ra,16(sp)
80014664:	00000000 	nop
80014668:	03e00008 	jr	ra
8001466c:	27bd0018 	addiu	sp,sp,24

80014670 <physical_memory_manage_check>:
80014670:	27bdff78 	addiu	sp,sp,-136
80014674:	afbf0080 	sw	ra,128(sp)
80014678:	afb1007c 	sw	s1,124(sp)
8001467c:	afb00078 	sw	s0,120(sp)
80014680:	afa0001c 	sw	zero,28(sp)
80014684:	afa00018 	sw	zero,24(sp)
80014688:	afa00014 	sw	zero,20(sp)
8001468c:	0c00501f 	jal	8001407c <page_alloc>
80014690:	27a40014 	addiu	a0,sp,20
80014694:	10400008 	beqz	v0,800146b8 <physical_memory_manage_check+0x48>
80014698:	3c048001 	lui	a0,0x8001
8001469c:	248466c0 	addiu	a0,a0,26304
800146a0:	240501d5 	li	a1,469
800146a4:	3c068001 	lui	a2,0x8001
800146a8:	24c65e50 	addiu	a2,a2,24144
800146ac:	3c078001 	lui	a3,0x8001
800146b0:	0c004caa 	jal	800132a8 <_panic>
800146b4:	24e76768 	addiu	a3,a3,26472
800146b8:	0c00501f 	jal	8001407c <page_alloc>
800146bc:	27a40018 	addiu	a0,sp,24
800146c0:	10400008 	beqz	v0,800146e4 <physical_memory_manage_check+0x74>
800146c4:	3c048001 	lui	a0,0x8001
800146c8:	248466c0 	addiu	a0,a0,26304
800146cc:	240501d6 	li	a1,470
800146d0:	3c068001 	lui	a2,0x8001
800146d4:	24c65e50 	addiu	a2,a2,24144
800146d8:	3c078001 	lui	a3,0x8001
800146dc:	0c004caa 	jal	800132a8 <_panic>
800146e0:	24e76780 	addiu	a3,a3,26496
800146e4:	0c00501f 	jal	8001407c <page_alloc>
800146e8:	27a4001c 	addiu	a0,sp,28
800146ec:	10400008 	beqz	v0,80014710 <physical_memory_manage_check+0xa0>
800146f0:	3c048001 	lui	a0,0x8001
800146f4:	248466c0 	addiu	a0,a0,26304
800146f8:	240501d7 	li	a1,471
800146fc:	3c068001 	lui	a2,0x8001
80014700:	24c65e50 	addiu	a2,a2,24144
80014704:	3c078001 	lui	a3,0x8001
80014708:	0c004caa 	jal	800132a8 <_panic>
8001470c:	24e76798 	addiu	a3,a3,26520
80014710:	8fa40014 	lw	a0,20(sp)
80014714:	00000000 	nop
80014718:	14800008 	bnez	a0,8001473c <physical_memory_manage_check+0xcc>
8001471c:	240501d9 	li	a1,473
80014720:	3c048001 	lui	a0,0x8001
80014724:	248466c0 	addiu	a0,a0,26304
80014728:	3c068001 	lui	a2,0x8001
8001472c:	24c65e50 	addiu	a2,a2,24144
80014730:	3c078001 	lui	a3,0x8001
80014734:	0c004caa 	jal	800132a8 <_panic>
80014738:	24e767e0 	addiu	a3,a3,26592
8001473c:	8fa30018 	lw	v1,24(sp)
80014740:	00000000 	nop
80014744:	10600003 	beqz	v1,80014754 <physical_memory_manage_check+0xe4>
80014748:	00000000 	nop
8001474c:	14830009 	bne	a0,v1,80014774 <physical_memory_manage_check+0x104>
80014750:	00000000 	nop
80014754:	3c048001 	lui	a0,0x8001
80014758:	248466c0 	addiu	a0,a0,26304
8001475c:	240501da 	li	a1,474
80014760:	3c068001 	lui	a2,0x8001
80014764:	24c65e50 	addiu	a2,a2,24144
80014768:	3c078001 	lui	a3,0x8001
8001476c:	0c004caa 	jal	800132a8 <_panic>
80014770:	24e767b0 	addiu	a3,a3,26544
80014774:	8fa2001c 	lw	v0,28(sp)
80014778:	00000000 	nop
8001477c:	10400005 	beqz	v0,80014794 <physical_memory_manage_check+0x124>
80014780:	00000000 	nop
80014784:	10620003 	beq	v1,v0,80014794 <physical_memory_manage_check+0x124>
80014788:	00000000 	nop
8001478c:	14820009 	bne	a0,v0,800147b4 <physical_memory_manage_check+0x144>
80014790:	3c028001 	lui	v0,0x8001
80014794:	3c048001 	lui	a0,0x8001
80014798:	248466c0 	addiu	a0,a0,26304
8001479c:	240501db 	li	a1,475
800147a0:	3c068001 	lui	a2,0x8001
800147a4:	24c65e50 	addiu	a2,a2,24144
800147a8:	3c078001 	lui	a3,0x8001
800147ac:	0c004caa 	jal	800132a8 <_panic>
800147b0:	24e767c4 	addiu	a3,a3,26564
800147b4:	8c516ef4 	lw	s1,28404(v0)
800147b8:	ac406ef4 	sw	zero,28404(v0)
800147bc:	0c00501f 	jal	8001407c <page_alloc>
800147c0:	27a40010 	addiu	a0,sp,16
800147c4:	2403fffc 	li	v1,-4
800147c8:	10430009 	beq	v0,v1,800147f0 <physical_memory_manage_check+0x180>
800147cc:	3c028001 	lui	v0,0x8001
800147d0:	3c048001 	lui	a0,0x8001
800147d4:	248466c0 	addiu	a0,a0,26304
800147d8:	240501e4 	li	a1,484
800147dc:	3c068001 	lui	a2,0x8001
800147e0:	24c65e50 	addiu	a2,a2,24144
800147e4:	3c078001 	lui	a3,0x8001
800147e8:	0c004caa 	jal	800132a8 <_panic>
800147ec:	24e767e4 	addiu	a3,a3,26596
800147f0:	8c426f9c 	lw	v0,28572(v0)
800147f4:	8fa30014 	lw	v1,20(sp)
800147f8:	00000000 	nop
800147fc:	00621823 	subu	v1,v1,v0
80014800:	00031883 	sra	v1,v1,0x2
80014804:	00031080 	sll	v0,v1,0x2
80014808:	00431021 	addu	v0,v0,v1
8001480c:	00021900 	sll	v1,v0,0x4
80014810:	00431021 	addu	v0,v0,v1
80014814:	00021a00 	sll	v1,v0,0x8
80014818:	00431021 	addu	v0,v0,v1
8001481c:	00021c00 	sll	v1,v0,0x10
80014820:	00431021 	addu	v0,v0,v1
80014824:	00021023 	negu	v0,v0
80014828:	00023b00 	sll	a3,v0,0xc
8001482c:	00071302 	srl	v0,a3,0xc
80014830:	3c038001 	lui	v1,0x8001
80014834:	8c636f88 	lw	v1,28552(v1)
80014838:	00000000 	nop
8001483c:	0043102b 	sltu	v0,v0,v1
80014840:	14400007 	bnez	v0,80014860 <physical_memory_manage_check+0x1f0>
80014844:	3c028000 	lui	v0,0x8000
80014848:	3c048001 	lui	a0,0x8001
8001484c:	24845dc8 	addiu	a0,a0,24008
80014850:	24050030 	li	a1,48
80014854:	3c068001 	lui	a2,0x8001
80014858:	0c004caa 	jal	800132a8 <_panic>
8001485c:	24c65ddc 	addiu	a2,a2,24028
80014860:	00e28021 	addu	s0,a3,v0
80014864:	240203e8 	li	v0,1000
80014868:	ae020000 	sw	v0,0(s0)
8001486c:	8fa40014 	lw	a0,20(sp)
80014870:	0c00505b 	jal	8001416c <page_free>
80014874:	00000000 	nop
80014878:	3c048001 	lui	a0,0x8001
8001487c:	8e050000 	lw	a1,0(s0)
80014880:	0c004c9a 	jal	80013268 <printf>
80014884:	24846804 	addiu	a0,a0,26628
80014888:	0c00501f 	jal	8001407c <page_alloc>
8001488c:	27a40014 	addiu	a0,sp,20
80014890:	10400008 	beqz	v0,800148b4 <physical_memory_manage_check+0x244>
80014894:	3c048001 	lui	a0,0x8001
80014898:	248466c0 	addiu	a0,a0,26304
8001489c:	240501ee 	li	a1,494
800148a0:	3c068001 	lui	a2,0x8001
800148a4:	24c65e50 	addiu	a2,a2,24144
800148a8:	3c078001 	lui	a3,0x8001
800148ac:	0c004caa 	jal	800132a8 <_panic>
800148b0:	24e76768 	addiu	a3,a3,26472
800148b4:	8fa40014 	lw	a0,20(sp)
800148b8:	00000000 	nop
800148bc:	14800009 	bnez	a0,800148e4 <physical_memory_manage_check+0x274>
800148c0:	3c028001 	lui	v0,0x8001
800148c4:	3c048001 	lui	a0,0x8001
800148c8:	248466c0 	addiu	a0,a0,26304
800148cc:	240501ef 	li	a1,495
800148d0:	3c068001 	lui	a2,0x8001
800148d4:	24c65e50 	addiu	a2,a2,24144
800148d8:	3c078001 	lui	a3,0x8001
800148dc:	0c004caa 	jal	800132a8 <_panic>
800148e0:	24e767e0 	addiu	a3,a3,26592
800148e4:	8c436f9c 	lw	v1,28572(v0)
800148e8:	00000000 	nop
800148ec:	00831823 	subu	v1,a0,v1
800148f0:	00031883 	sra	v1,v1,0x2
800148f4:	00031080 	sll	v0,v1,0x2
800148f8:	00431021 	addu	v0,v0,v1
800148fc:	00021900 	sll	v1,v0,0x4
80014900:	00431021 	addu	v0,v0,v1
80014904:	00021a00 	sll	v1,v0,0x8
80014908:	00431021 	addu	v0,v0,v1
8001490c:	00021c00 	sll	v1,v0,0x10
80014910:	00431021 	addu	v0,v0,v1
80014914:	00021023 	negu	v0,v0
80014918:	00023b00 	sll	a3,v0,0xc
8001491c:	00071302 	srl	v0,a3,0xc
80014920:	3c038001 	lui	v1,0x8001
80014924:	8c636f88 	lw	v1,28552(v1)
80014928:	00000000 	nop
8001492c:	0043102b 	sltu	v0,v0,v1
80014930:	14400007 	bnez	v0,80014950 <physical_memory_manage_check+0x2e0>
80014934:	3c028000 	lui	v0,0x8000
80014938:	3c048001 	lui	a0,0x8001
8001493c:	24845dc8 	addiu	a0,a0,24008
80014940:	24050030 	li	a1,48
80014944:	3c068001 	lui	a2,0x8001
80014948:	0c004caa 	jal	800132a8 <_panic>
8001494c:	24c65ddc 	addiu	a2,a2,24028
80014950:	00e21021 	addu	v0,a3,v0
80014954:	12020008 	beq	s0,v0,80014978 <physical_memory_manage_check+0x308>
80014958:	240501f2 	li	a1,498
8001495c:	3c048001 	lui	a0,0x8001
80014960:	248466c0 	addiu	a0,a0,26304
80014964:	3c068001 	lui	a2,0x8001
80014968:	24c65e50 	addiu	a2,a2,24144
8001496c:	3c078001 	lui	a3,0x8001
80014970:	0c004caa 	jal	800132a8 <_panic>
80014974:	24e76828 	addiu	a3,a3,26664
80014978:	8e020000 	lw	v0,0(s0)
8001497c:	00000000 	nop
80014980:	10400009 	beqz	v0,800149a8 <physical_memory_manage_check+0x338>
80014984:	3c028001 	lui	v0,0x8001
80014988:	3c048001 	lui	a0,0x8001
8001498c:	248466c0 	addiu	a0,a0,26304
80014990:	240501f4 	li	a1,500
80014994:	3c068001 	lui	a2,0x8001
80014998:	24c65e50 	addiu	a2,a2,24144
8001499c:	3c078001 	lui	a3,0x8001
800149a0:	0c004caa 	jal	800132a8 <_panic>
800149a4:	24e76844 	addiu	a3,a3,26692
800149a8:	0c00505b 	jal	8001416c <page_free>
800149ac:	ac516ef4 	sw	s1,28404(v0)
800149b0:	8fa40018 	lw	a0,24(sp)
800149b4:	0c00505b 	jal	8001416c <page_free>
800149b8:	00000000 	nop
800149bc:	8fa4001c 	lw	a0,28(sp)
800149c0:	0c00505b 	jal	8001416c <page_free>
800149c4:	00000000 	nop
800149c8:	24040078 	li	a0,120
800149cc:	24051000 	li	a1,4096
800149d0:	0c004e62 	jal	80013988 <alloc>
800149d4:	24060001 	li	a2,1
800149d8:	00408021 	move	s0,v0
800149dc:	afa00020 	sw	zero,32(sp)
800149e0:	00402821 	move	a1,v0
800149e4:	00003021 	move	a2,zero
800149e8:	00a03821 	move	a3,a1
800149ec:	a4a60008 	sh	a2,8(a1)
800149f0:	8fa30020 	lw	v1,32(sp)
800149f4:	00000000 	nop
800149f8:	aca30000 	sw	v1,0(a1)
800149fc:	8fa20020 	lw	v0,32(sp)
80014a00:	00000000 	nop
80014a04:	14400088 	bnez	v0,80014c28 <physical_memory_manage_check+0x5b8>
80014a08:	00a02021 	move	a0,a1
80014a0c:	afa50020 	sw	a1,32(sp)
80014a10:	27a20020 	addiu	v0,sp,32
80014a14:	1000000c 	b	80014a48 <physical_memory_manage_check+0x3d8>
80014a18:	aca20004 	sw	v0,4(a1)
80014a1c:	00401821 	move	v1,v0
80014a20:	ac830000 	sw	v1,0(a0)
80014a24:	8c620000 	lw	v0,0(v1)
80014a28:	00000000 	nop
80014a2c:	1440fffb 	bnez	v0,80014a1c <physical_memory_manage_check+0x3ac>
80014a30:	00000000 	nop
80014a34:	ac670000 	sw	a3,0(v1)
80014a38:	8c820000 	lw	v0,0(a0)
80014a3c:	00000000 	nop
80014a40:	aca20004 	sw	v0,4(a1)
80014a44:	ac800000 	sw	zero,0(a0)
80014a48:	24c60001 	addiu	a2,a2,1
80014a4c:	2402000a 	li	v0,10
80014a50:	14c2ffe5 	bne	a2,v0,800149e8 <physical_memory_manage_check+0x378>
80014a54:	24a5000c 	addiu	a1,a1,12
80014a58:	8fa70020 	lw	a3,32(sp)
80014a5c:	3c028001 	lui	v0,0x8001
80014a60:	24466e8c 	addiu	a2,v0,28300
80014a64:	27a80024 	addiu	t0,sp,36
80014a68:	24c90020 	addiu	t1,a2,32
80014a6c:	8cc20000 	lw	v0,0(a2)
80014a70:	8cc30004 	lw	v1,4(a2)
80014a74:	8cc40008 	lw	a0,8(a2)
80014a78:	8cc5000c 	lw	a1,12(a2)
80014a7c:	ad020000 	sw	v0,0(t0)
80014a80:	ad030004 	sw	v1,4(t0)
80014a84:	ad040008 	sw	a0,8(t0)
80014a88:	ad05000c 	sw	a1,12(t0)
80014a8c:	24c60010 	addiu	a2,a2,16
80014a90:	14c9fff6 	bne	a2,t1,80014a6c <physical_memory_manage_check+0x3fc>
80014a94:	25080010 	addiu	t0,t0,16
80014a98:	8cc20000 	lw	v0,0(a2)
80014a9c:	8cc30004 	lw	v1,4(a2)
80014aa0:	ad020000 	sw	v0,0(t0)
80014aa4:	14e00009 	bnez	a3,80014acc <physical_memory_manage_check+0x45c>
80014aa8:	ad030004 	sw	v1,4(t0)
80014aac:	3c048001 	lui	a0,0x8001
80014ab0:	248466c0 	addiu	a0,a0,26304
80014ab4:	2405020c 	li	a1,524
80014ab8:	3c068001 	lui	a2,0x8001
80014abc:	24c65e50 	addiu	a2,a2,24144
80014ac0:	3c078001 	lui	a3,0x8001
80014ac4:	0c004caa 	jal	800132a8 <_panic>
80014ac8:	24e76850 	addiu	a3,a3,26704
80014acc:	27a40024 	addiu	a0,sp,36
80014ad0:	94e30008 	lhu	v1,8(a3)
80014ad4:	8c820000 	lw	v0,0(a0)
80014ad8:	00000000 	nop
80014adc:	10620008 	beq	v1,v0,80014b00 <physical_memory_manage_check+0x490>
80014ae0:	24050210 	li	a1,528
80014ae4:	3c048001 	lui	a0,0x8001
80014ae8:	248466c0 	addiu	a0,a0,26304
80014aec:	3c068001 	lui	a2,0x8001
80014af0:	24c65e50 	addiu	a2,a2,24144
80014af4:	3c078001 	lui	a3,0x8001
80014af8:	0c004caa 	jal	800132a8 <_panic>
80014afc:	24e76858 	addiu	a3,a3,26712
80014b00:	8ce70000 	lw	a3,0(a3)
80014b04:	00000000 	nop
80014b08:	14e0fff1 	bnez	a3,80014ad0 <physical_memory_manage_check+0x460>
80014b0c:	24840004 	addiu	a0,a0,4
80014b10:	3c028001 	lui	v0,0x8001
80014b14:	24466e60 	addiu	a2,v0,28256
80014b18:	27a7004c 	addiu	a3,sp,76
80014b1c:	24c80020 	addiu	t0,a2,32
80014b20:	8cc20000 	lw	v0,0(a2)
80014b24:	8cc30004 	lw	v1,4(a2)
80014b28:	8cc40008 	lw	a0,8(a2)
80014b2c:	8cc5000c 	lw	a1,12(a2)
80014b30:	ace20000 	sw	v0,0(a3)
80014b34:	ace30004 	sw	v1,4(a3)
80014b38:	ace40008 	sw	a0,8(a3)
80014b3c:	ace5000c 	sw	a1,12(a3)
80014b40:	24c60010 	addiu	a2,a2,16
80014b44:	14c8fff6 	bne	a2,t0,80014b20 <physical_memory_manage_check+0x4b0>
80014b48:	24e70010 	addiu	a3,a3,16
80014b4c:	8cc20000 	lw	v0,0(a2)
80014b50:	8cc30004 	lw	v1,4(a2)
80014b54:	8cc40008 	lw	a0,8(a2)
80014b58:	ace20000 	sw	v0,0(a3)
80014b5c:	ace30004 	sw	v1,4(a3)
80014b60:	ace40008 	sw	a0,8(a3)
80014b64:	2404000c 	li	a0,12
80014b68:	24051000 	li	a1,4096
80014b6c:	0c004e62 	jal	80013988 <alloc>
80014b70:	24060001 	li	a2,1
80014b74:	00401821 	move	v1,v0
80014b78:	24020014 	li	v0,20
80014b7c:	a4620008 	sh	v0,8(v1)
80014b80:	8e020030 	lw	v0,48(s0)
80014b84:	00000000 	nop
80014b88:	ac620000 	sw	v0,0(v1)
80014b8c:	8e020030 	lw	v0,48(s0)
80014b90:	00000000 	nop
80014b94:	10400002 	beqz	v0,80014ba0 <physical_memory_manage_check+0x530>
80014b98:	26040030 	addiu	a0,s0,48
80014b9c:	ac430004 	sw	v1,4(v0)
80014ba0:	ac830000 	sw	v1,0(a0)
80014ba4:	ac640004 	sw	a0,4(v1)
80014ba8:	8fa50020 	lw	a1,32(sp)
80014bac:	00000000 	nop
80014bb0:	14a00023 	bnez	a1,80014c40 <physical_memory_manage_check+0x5d0>
80014bb4:	3c048001 	lui	a0,0x8001
80014bb8:	10000014 	b	80014c0c <physical_memory_manage_check+0x59c>
80014bbc:	00000000 	nop
80014bc0:	8c830000 	lw	v1,0(a0)
80014bc4:	94a20008 	lhu	v0,8(a1)
80014bc8:	00000000 	nop
80014bcc:	1062000a 	beq	v1,v0,80014bf8 <physical_memory_manage_check+0x588>
80014bd0:	24840004 	addiu	a0,a0,4
80014bd4:	3c048001 	lui	a0,0x8001
80014bd8:	248466c0 	addiu	a0,a0,26304
80014bdc:	24050222 	li	a1,546
80014be0:	3c068001 	lui	a2,0x8001
80014be4:	24c65e50 	addiu	a2,a2,24144
80014be8:	3c078001 	lui	a3,0x8001
80014bec:	0c004caa 	jal	800132a8 <_panic>
80014bf0:	24e76870 	addiu	a3,a3,26736
80014bf4:	27a40050 	addiu	a0,sp,80
80014bf8:	8ca50000 	lw	a1,0(a1)
80014bfc:	00000000 	nop
80014c00:	14a0ffef 	bnez	a1,80014bc0 <physical_memory_manage_check+0x550>
80014c04:	00000000 	nop
80014c08:	3c048001 	lui	a0,0x8001
80014c0c:	0c004c9a 	jal	80013268 <printf>
80014c10:	24846888 	addiu	a0,a0,26760
80014c14:	8fbf0080 	lw	ra,128(sp)
80014c18:	8fb1007c 	lw	s1,124(sp)
80014c1c:	8fb00078 	lw	s0,120(sp)
80014c20:	03e00008 	jr	ra
80014c24:	27bd0088 	addiu	sp,sp,136
80014c28:	8c620000 	lw	v0,0(v1)
80014c2c:	00000000 	nop
80014c30:	1040ff80 	beqz	v0,80014a34 <physical_memory_manage_check+0x3c4>
80014c34:	00000000 	nop
80014c38:	1000ff79 	b	80014a20 <physical_memory_manage_check+0x3b0>
80014c3c:	00401821 	move	v1,v0
80014c40:	94a30008 	lhu	v1,8(a1)
80014c44:	8fa2004c 	lw	v0,76(sp)
80014c48:	00000000 	nop
80014c4c:	1043ffe9 	beq	v0,v1,80014bf4 <physical_memory_manage_check+0x584>
80014c50:	3c048001 	lui	a0,0x8001
80014c54:	1000ffe1 	b	80014bdc <physical_memory_manage_check+0x56c>
80014c58:	248466c0 	addiu	a0,a0,26304

80014c5c <page_check>:
80014c5c:	27bdffd0 	addiu	sp,sp,-48
80014c60:	afbf0028 	sw	ra,40(sp)
80014c64:	afb10024 	sw	s1,36(sp)
80014c68:	afb00020 	sw	s0,32(sp)
80014c6c:	afa0001c 	sw	zero,28(sp)
80014c70:	afa00018 	sw	zero,24(sp)
80014c74:	afa00014 	sw	zero,20(sp)
80014c78:	0c00501f 	jal	8001407c <page_alloc>
80014c7c:	27a40014 	addiu	a0,sp,20
80014c80:	10400008 	beqz	v0,80014ca4 <page_check+0x48>
80014c84:	3c048001 	lui	a0,0x8001
80014c88:	248466c0 	addiu	a0,a0,26304
80014c8c:	24050233 	li	a1,563
80014c90:	3c068001 	lui	a2,0x8001
80014c94:	24c65e50 	addiu	a2,a2,24144
80014c98:	3c078001 	lui	a3,0x8001
80014c9c:	0c004caa 	jal	800132a8 <_panic>
80014ca0:	24e76768 	addiu	a3,a3,26472
80014ca4:	0c00501f 	jal	8001407c <page_alloc>
80014ca8:	27a40018 	addiu	a0,sp,24
80014cac:	10400008 	beqz	v0,80014cd0 <page_check+0x74>
80014cb0:	3c048001 	lui	a0,0x8001
80014cb4:	248466c0 	addiu	a0,a0,26304
80014cb8:	24050234 	li	a1,564
80014cbc:	3c068001 	lui	a2,0x8001
80014cc0:	24c65e50 	addiu	a2,a2,24144
80014cc4:	3c078001 	lui	a3,0x8001
80014cc8:	0c004caa 	jal	800132a8 <_panic>
80014ccc:	24e76780 	addiu	a3,a3,26496
80014cd0:	0c00501f 	jal	8001407c <page_alloc>
80014cd4:	27a4001c 	addiu	a0,sp,28
80014cd8:	10400008 	beqz	v0,80014cfc <page_check+0xa0>
80014cdc:	3c048001 	lui	a0,0x8001
80014ce0:	248466c0 	addiu	a0,a0,26304
80014ce4:	24050235 	li	a1,565
80014ce8:	3c068001 	lui	a2,0x8001
80014cec:	24c65e50 	addiu	a2,a2,24144
80014cf0:	3c078001 	lui	a3,0x8001
80014cf4:	0c004caa 	jal	800132a8 <_panic>
80014cf8:	24e76798 	addiu	a3,a3,26520
80014cfc:	8fa40014 	lw	a0,20(sp)
80014d00:	00000000 	nop
80014d04:	14800008 	bnez	a0,80014d28 <page_check+0xcc>
80014d08:	24050237 	li	a1,567
80014d0c:	3c048001 	lui	a0,0x8001
80014d10:	248466c0 	addiu	a0,a0,26304
80014d14:	3c068001 	lui	a2,0x8001
80014d18:	24c65e50 	addiu	a2,a2,24144
80014d1c:	3c078001 	lui	a3,0x8001
80014d20:	0c004caa 	jal	800132a8 <_panic>
80014d24:	24e767e0 	addiu	a3,a3,26592
80014d28:	8fa30018 	lw	v1,24(sp)
80014d2c:	00000000 	nop
80014d30:	10600003 	beqz	v1,80014d40 <page_check+0xe4>
80014d34:	00000000 	nop
80014d38:	14830009 	bne	a0,v1,80014d60 <page_check+0x104>
80014d3c:	00000000 	nop
80014d40:	3c048001 	lui	a0,0x8001
80014d44:	248466c0 	addiu	a0,a0,26304
80014d48:	24050238 	li	a1,568
80014d4c:	3c068001 	lui	a2,0x8001
80014d50:	24c65e50 	addiu	a2,a2,24144
80014d54:	3c078001 	lui	a3,0x8001
80014d58:	0c004caa 	jal	800132a8 <_panic>
80014d5c:	24e767b0 	addiu	a3,a3,26544
80014d60:	8fa2001c 	lw	v0,28(sp)
80014d64:	00000000 	nop
80014d68:	10400005 	beqz	v0,80014d80 <page_check+0x124>
80014d6c:	00000000 	nop
80014d70:	10620003 	beq	v1,v0,80014d80 <page_check+0x124>
80014d74:	00000000 	nop
80014d78:	14820009 	bne	a0,v0,80014da0 <page_check+0x144>
80014d7c:	3c028001 	lui	v0,0x8001
80014d80:	3c048001 	lui	a0,0x8001
80014d84:	248466c0 	addiu	a0,a0,26304
80014d88:	24050239 	li	a1,569
80014d8c:	3c068001 	lui	a2,0x8001
80014d90:	24c65e50 	addiu	a2,a2,24144
80014d94:	3c078001 	lui	a3,0x8001
80014d98:	0c004caa 	jal	800132a8 <_panic>
80014d9c:	24e767c4 	addiu	a3,a3,26564
80014da0:	8c516ef4 	lw	s1,28404(v0)
80014da4:	ac406ef4 	sw	zero,28404(v0)
80014da8:	0c00501f 	jal	8001407c <page_alloc>
80014dac:	27a40010 	addiu	a0,sp,16
80014db0:	2403fffc 	li	v1,-4
80014db4:	10430009 	beq	v0,v1,80014ddc <page_check+0x180>
80014db8:	3c028001 	lui	v0,0x8001
80014dbc:	3c048001 	lui	a0,0x8001
80014dc0:	248466c0 	addiu	a0,a0,26304
80014dc4:	24050241 	li	a1,577
80014dc8:	3c068001 	lui	a2,0x8001
80014dcc:	24c65e50 	addiu	a2,a2,24144
80014dd0:	3c078001 	lui	a3,0x8001
80014dd4:	0c004caa 	jal	800132a8 <_panic>
80014dd8:	24e767e4 	addiu	a3,a3,26596
80014ddc:	8c446f8c 	lw	a0,28556(v0)
80014de0:	8fa50018 	lw	a1,24(sp)
80014de4:	00003021 	move	a2,zero
80014de8:	0c0050c3 	jal	8001430c <page_insert>
80014dec:	00003821 	move	a3,zero
80014df0:	04400008 	bltz	v0,80014e14 <page_check+0x1b8>
80014df4:	3c048001 	lui	a0,0x8001
80014df8:	248466c0 	addiu	a0,a0,26304
80014dfc:	24050244 	li	a1,580
80014e00:	3c068001 	lui	a2,0x8001
80014e04:	24c65e50 	addiu	a2,a2,24144
80014e08:	3c078001 	lui	a3,0x8001
80014e0c:	0c004caa 	jal	800132a8 <_panic>
80014e10:	24e768b4 	addiu	a3,a3,26804
80014e14:	8fa40014 	lw	a0,20(sp)
80014e18:	0c00505b 	jal	8001416c <page_free>
80014e1c:	00000000 	nop
80014e20:	3c028001 	lui	v0,0x8001
80014e24:	8c446f8c 	lw	a0,28556(v0)
80014e28:	8fa50018 	lw	a1,24(sp)
80014e2c:	00003021 	move	a2,zero
80014e30:	0c0050c3 	jal	8001430c <page_insert>
80014e34:	00003821 	move	a3,zero
80014e38:	10400009 	beqz	v0,80014e60 <page_check+0x204>
80014e3c:	3c028001 	lui	v0,0x8001
80014e40:	3c048001 	lui	a0,0x8001
80014e44:	248466c0 	addiu	a0,a0,26304
80014e48:	24050248 	li	a1,584
80014e4c:	3c068001 	lui	a2,0x8001
80014e50:	24c65e50 	addiu	a2,a2,24144
80014e54:	3c078001 	lui	a3,0x8001
80014e58:	0c004caa 	jal	800132a8 <_panic>
80014e5c:	24e768e0 	addiu	a3,a3,26848
80014e60:	8c426f8c 	lw	v0,28556(v0)
80014e64:	00000000 	nop
80014e68:	8c440000 	lw	a0,0(v0)
80014e6c:	2402f000 	li	v0,-4096
80014e70:	00823824 	and	a3,a0,v0
80014e74:	3c028001 	lui	v0,0x8001
80014e78:	8c426f9c 	lw	v0,28572(v0)
80014e7c:	8fa30014 	lw	v1,20(sp)
80014e80:	00000000 	nop
80014e84:	00621823 	subu	v1,v1,v0
80014e88:	00031883 	sra	v1,v1,0x2
80014e8c:	00031080 	sll	v0,v1,0x2
80014e90:	00431021 	addu	v0,v0,v1
80014e94:	00021900 	sll	v1,v0,0x4
80014e98:	00431021 	addu	v0,v0,v1
80014e9c:	00021a00 	sll	v1,v0,0x8
80014ea0:	00431021 	addu	v0,v0,v1
80014ea4:	00021c00 	sll	v1,v0,0x10
80014ea8:	00431021 	addu	v0,v0,v1
80014eac:	00021023 	negu	v0,v0
80014eb0:	00021300 	sll	v0,v0,0xc
80014eb4:	10e20009 	beq	a3,v0,80014edc <page_check+0x280>
80014eb8:	30820200 	andi	v0,a0,0x200
80014ebc:	3c048001 	lui	a0,0x8001
80014ec0:	248466c0 	addiu	a0,a0,26304
80014ec4:	24050249 	li	a1,585
80014ec8:	3c068001 	lui	a2,0x8001
80014ecc:	24c65e50 	addiu	a2,a2,24144
80014ed0:	3c078001 	lui	a3,0x8001
80014ed4:	0c004caa 	jal	800132a8 <_panic>
80014ed8:	24e7690c 	addiu	a3,a3,26892
80014edc:	10400015 	beqz	v0,80014f34 <page_check+0x2d8>
80014ee0:	00071302 	srl	v0,a3,0xc
80014ee4:	3c038001 	lui	v1,0x8001
80014ee8:	8c636f88 	lw	v1,28552(v1)
80014eec:	00000000 	nop
80014ef0:	0043102b 	sltu	v0,v0,v1
80014ef4:	14400007 	bnez	v0,80014f14 <page_check+0x2b8>
80014ef8:	3c028000 	lui	v0,0x8000
80014efc:	3c048001 	lui	a0,0x8001
80014f00:	24845dc8 	addiu	a0,a0,24008
80014f04:	2405003c 	li	a1,60
80014f08:	3c068001 	lui	a2,0x8001
80014f0c:	0c004caa 	jal	800132a8 <_panic>
80014f10:	24c65ddc 	addiu	a2,a2,24028
80014f14:	00e21021 	addu	v0,a3,v0
80014f18:	8c450000 	lw	a1,0(v0)
80014f1c:	00000000 	nop
80014f20:	30a20200 	andi	v0,a1,0x200
80014f24:	10400003 	beqz	v0,80014f34 <page_check+0x2d8>
80014f28:	2402f000 	li	v0,-4096
80014f2c:	10000002 	b	80014f38 <page_check+0x2dc>
80014f30:	00a22824 	and	a1,a1,v0
80014f34:	2405ffff 	li	a1,-1
80014f38:	3c048001 	lui	a0,0x8001
80014f3c:	0c004c9a 	jal	80013268 <printf>
80014f40:	24846934 	addiu	a0,a0,26932
80014f44:	3c028001 	lui	v0,0x8001
80014f48:	8c436f9c 	lw	v1,28572(v0)
80014f4c:	8fa20018 	lw	v0,24(sp)
80014f50:	00000000 	nop
80014f54:	00431023 	subu	v0,v0,v1
80014f58:	00021083 	sra	v0,v0,0x2
80014f5c:	00022880 	sll	a1,v0,0x2
80014f60:	00a22821 	addu	a1,a1,v0
80014f64:	00051100 	sll	v0,a1,0x4
80014f68:	00a22821 	addu	a1,a1,v0
80014f6c:	00051200 	sll	v0,a1,0x8
80014f70:	00a22821 	addu	a1,a1,v0
80014f74:	00051400 	sll	v0,a1,0x10
80014f78:	00a22821 	addu	a1,a1,v0
80014f7c:	00052823 	negu	a1,a1
80014f80:	3c048001 	lui	a0,0x8001
80014f84:	24846954 	addiu	a0,a0,26964
80014f88:	0c004c9a 	jal	80013268 <printf>
80014f8c:	00052b00 	sll	a1,a1,0xc
80014f90:	3c028001 	lui	v0,0x8001
80014f94:	8c446f8c 	lw	a0,28556(v0)
80014f98:	00000000 	nop
80014f9c:	8c870000 	lw	a3,0(a0)
80014fa0:	00000000 	nop
80014fa4:	30e20200 	andi	v0,a3,0x200
80014fa8:	10400017 	beqz	v0,80015008 <page_check+0x3ac>
80014fac:	2402f000 	li	v0,-4096
80014fb0:	00e23824 	and	a3,a3,v0
80014fb4:	00071302 	srl	v0,a3,0xc
80014fb8:	3c038001 	lui	v1,0x8001
80014fbc:	8c636f88 	lw	v1,28552(v1)
80014fc0:	00000000 	nop
80014fc4:	0043102b 	sltu	v0,v0,v1
80014fc8:	14400007 	bnez	v0,80014fe8 <page_check+0x38c>
80014fcc:	3c028000 	lui	v0,0x8000
80014fd0:	3c048001 	lui	a0,0x8001
80014fd4:	24845dc8 	addiu	a0,a0,24008
80014fd8:	2405003c 	li	a1,60
80014fdc:	3c068001 	lui	a2,0x8001
80014fe0:	0c004caa 	jal	800132a8 <_panic>
80014fe4:	24c65ddc 	addiu	a2,a2,24028
80014fe8:	00e21021 	addu	v0,a3,v0
80014fec:	8c470000 	lw	a3,0(v0)
80014ff0:	00000000 	nop
80014ff4:	30e20200 	andi	v0,a3,0x200
80014ff8:	10400003 	beqz	v0,80015008 <page_check+0x3ac>
80014ffc:	2402f000 	li	v0,-4096
80015000:	10000002 	b	8001500c <page_check+0x3b0>
80015004:	00e23824 	and	a3,a3,v0
80015008:	2407ffff 	li	a3,-1
8001500c:	8fa50018 	lw	a1,24(sp)
80015010:	3c028001 	lui	v0,0x8001
80015014:	8c436f9c 	lw	v1,28572(v0)
80015018:	00000000 	nop
8001501c:	00a31823 	subu	v1,a1,v1
80015020:	00031883 	sra	v1,v1,0x2
80015024:	00031080 	sll	v0,v1,0x2
80015028:	00431021 	addu	v0,v0,v1
8001502c:	00021900 	sll	v1,v0,0x4
80015030:	00431021 	addu	v0,v0,v1
80015034:	00021a00 	sll	v1,v0,0x8
80015038:	00431021 	addu	v0,v0,v1
8001503c:	00021c00 	sll	v1,v0,0x10
80015040:	00431021 	addu	v0,v0,v1
80015044:	00021023 	negu	v0,v0
80015048:	00021300 	sll	v0,v0,0xc
8001504c:	10e20009 	beq	a3,v0,80015074 <page_check+0x418>
80015050:	24020001 	li	v0,1
80015054:	3c048001 	lui	a0,0x8001
80015058:	248466c0 	addiu	a0,a0,26304
8001505c:	2405024e 	li	a1,590
80015060:	3c068001 	lui	a2,0x8001
80015064:	24c65e50 	addiu	a2,a2,24144
80015068:	3c078001 	lui	a3,0x8001
8001506c:	0c004caa 	jal	800132a8 <_panic>
80015070:	24e76968 	addiu	a3,a3,26984
80015074:	94a30008 	lhu	v1,8(a1)
80015078:	00000000 	nop
8001507c:	10620009 	beq	v1,v0,800150a4 <page_check+0x448>
80015080:	24061000 	li	a2,4096
80015084:	3c048001 	lui	a0,0x8001
80015088:	248466c0 	addiu	a0,a0,26304
8001508c:	2405024f 	li	a1,591
80015090:	3c068001 	lui	a2,0x8001
80015094:	24c65e50 	addiu	a2,a2,24144
80015098:	3c078001 	lui	a3,0x8001
8001509c:	0c004caa 	jal	800132a8 <_panic>
800150a0:	24e76990 	addiu	a3,a3,27024
800150a4:	8fa5001c 	lw	a1,28(sp)
800150a8:	0c0050c3 	jal	8001430c <page_insert>
800150ac:	00003821 	move	a3,zero
800150b0:	10400009 	beqz	v0,800150d8 <page_check+0x47c>
800150b4:	3c028001 	lui	v0,0x8001
800150b8:	3c048001 	lui	a0,0x8001
800150bc:	248466c0 	addiu	a0,a0,26304
800150c0:	24050252 	li	a1,594
800150c4:	3c068001 	lui	a2,0x8001
800150c8:	24c65e50 	addiu	a2,a2,24144
800150cc:	3c078001 	lui	a3,0x8001
800150d0:	0c004caa 	jal	800132a8 <_panic>
800150d4:	24e769a4 	addiu	a3,a3,27044
800150d8:	8c426f8c 	lw	v0,28556(v0)
800150dc:	00000000 	nop
800150e0:	8c470000 	lw	a3,0(v0)
800150e4:	00000000 	nop
800150e8:	30e20200 	andi	v0,a3,0x200
800150ec:	10400017 	beqz	v0,8001514c <page_check+0x4f0>
800150f0:	2402f000 	li	v0,-4096
800150f4:	00e23824 	and	a3,a3,v0
800150f8:	00071302 	srl	v0,a3,0xc
800150fc:	3c038001 	lui	v1,0x8001
80015100:	8c636f88 	lw	v1,28552(v1)
80015104:	00000000 	nop
80015108:	0043102b 	sltu	v0,v0,v1
8001510c:	14400007 	bnez	v0,8001512c <page_check+0x4d0>
80015110:	3c028000 	lui	v0,0x8000
80015114:	3c048001 	lui	a0,0x8001
80015118:	24845dc8 	addiu	a0,a0,24008
8001511c:	2405003c 	li	a1,60
80015120:	3c068001 	lui	a2,0x8001
80015124:	0c004caa 	jal	800132a8 <_panic>
80015128:	24c65ddc 	addiu	a2,a2,24028
8001512c:	00e21021 	addu	v0,a3,v0
80015130:	8c470004 	lw	a3,4(v0)
80015134:	00000000 	nop
80015138:	30e20200 	andi	v0,a3,0x200
8001513c:	10400003 	beqz	v0,8001514c <page_check+0x4f0>
80015140:	2402f000 	li	v0,-4096
80015144:	10000002 	b	80015150 <page_check+0x4f4>
80015148:	00e23824 	and	a3,a3,v0
8001514c:	2407ffff 	li	a3,-1
80015150:	8fa4001c 	lw	a0,28(sp)
80015154:	3c028001 	lui	v0,0x8001
80015158:	8c436f9c 	lw	v1,28572(v0)
8001515c:	00000000 	nop
80015160:	00831823 	subu	v1,a0,v1
80015164:	00031883 	sra	v1,v1,0x2
80015168:	00031080 	sll	v0,v1,0x2
8001516c:	00431021 	addu	v0,v0,v1
80015170:	00021900 	sll	v1,v0,0x4
80015174:	00431021 	addu	v0,v0,v1
80015178:	00021a00 	sll	v1,v0,0x8
8001517c:	00431021 	addu	v0,v0,v1
80015180:	00021c00 	sll	v1,v0,0x10
80015184:	00431021 	addu	v0,v0,v1
80015188:	00021023 	negu	v0,v0
8001518c:	00021300 	sll	v0,v0,0xc
80015190:	10e20009 	beq	a3,v0,800151b8 <page_check+0x55c>
80015194:	24020001 	li	v0,1
80015198:	3c048001 	lui	a0,0x8001
8001519c:	248466c0 	addiu	a0,a0,26304
800151a0:	24050253 	li	a1,595
800151a4:	3c068001 	lui	a2,0x8001
800151a8:	24c65e50 	addiu	a2,a2,24144
800151ac:	3c078001 	lui	a3,0x8001
800151b0:	0c004caa 	jal	800132a8 <_panic>
800151b4:	24e769d0 	addiu	a3,a3,27088
800151b8:	94830008 	lhu	v1,8(a0)
800151bc:	00000000 	nop
800151c0:	10620008 	beq	v1,v0,800151e4 <page_check+0x588>
800151c4:	3c048001 	lui	a0,0x8001
800151c8:	248466c0 	addiu	a0,a0,26304
800151cc:	24050254 	li	a1,596
800151d0:	3c068001 	lui	a2,0x8001
800151d4:	24c65e50 	addiu	a2,a2,24144
800151d8:	3c078001 	lui	a3,0x8001
800151dc:	0c004caa 	jal	800132a8 <_panic>
800151e0:	24e769fc 	addiu	a3,a3,27132
800151e4:	0c00501f 	jal	8001407c <page_alloc>
800151e8:	27a40010 	addiu	a0,sp,16
800151ec:	2403fffc 	li	v1,-4
800151f0:	10430008 	beq	v0,v1,80015214 <page_check+0x5b8>
800151f4:	24050257 	li	a1,599
800151f8:	3c048001 	lui	a0,0x8001
800151fc:	248466c0 	addiu	a0,a0,26304
80015200:	3c068001 	lui	a2,0x8001
80015204:	24c65e50 	addiu	a2,a2,24144
80015208:	3c078001 	lui	a3,0x8001
8001520c:	0c004caa 	jal	800132a8 <_panic>
80015210:	24e767e4 	addiu	a3,a3,26596
80015214:	3c048001 	lui	a0,0x8001
80015218:	0c004c9a 	jal	80013268 <printf>
8001521c:	24846a10 	addiu	a0,a0,27152
80015220:	3c028001 	lui	v0,0x8001
80015224:	8c446f8c 	lw	a0,28556(v0)
80015228:	8fa5001c 	lw	a1,28(sp)
8001522c:	24061000 	li	a2,4096
80015230:	0c0050c3 	jal	8001430c <page_insert>
80015234:	00003821 	move	a3,zero
80015238:	10400009 	beqz	v0,80015260 <page_check+0x604>
8001523c:	3c028001 	lui	v0,0x8001
80015240:	3c048001 	lui	a0,0x8001
80015244:	248466c0 	addiu	a0,a0,26304
80015248:	2405025b 	li	a1,603
8001524c:	3c068001 	lui	a2,0x8001
80015250:	24c65e50 	addiu	a2,a2,24144
80015254:	3c078001 	lui	a3,0x8001
80015258:	0c004caa 	jal	800132a8 <_panic>
8001525c:	24e769a4 	addiu	a3,a3,27044
80015260:	8c426f8c 	lw	v0,28556(v0)
80015264:	00000000 	nop
80015268:	8c470000 	lw	a3,0(v0)
8001526c:	00000000 	nop
80015270:	30e20200 	andi	v0,a3,0x200
80015274:	10400017 	beqz	v0,800152d4 <page_check+0x678>
80015278:	2402f000 	li	v0,-4096
8001527c:	00e23824 	and	a3,a3,v0
80015280:	00071302 	srl	v0,a3,0xc
80015284:	3c038001 	lui	v1,0x8001
80015288:	8c636f88 	lw	v1,28552(v1)
8001528c:	00000000 	nop
80015290:	0043102b 	sltu	v0,v0,v1
80015294:	14400007 	bnez	v0,800152b4 <page_check+0x658>
80015298:	3c028000 	lui	v0,0x8000
8001529c:	3c048001 	lui	a0,0x8001
800152a0:	24845dc8 	addiu	a0,a0,24008
800152a4:	2405003c 	li	a1,60
800152a8:	3c068001 	lui	a2,0x8001
800152ac:	0c004caa 	jal	800132a8 <_panic>
800152b0:	24c65ddc 	addiu	a2,a2,24028
800152b4:	00e21021 	addu	v0,a3,v0
800152b8:	8c470004 	lw	a3,4(v0)
800152bc:	00000000 	nop
800152c0:	30e20200 	andi	v0,a3,0x200
800152c4:	10400003 	beqz	v0,800152d4 <page_check+0x678>
800152c8:	2402f000 	li	v0,-4096
800152cc:	10000002 	b	800152d8 <page_check+0x67c>
800152d0:	00e23824 	and	a3,a3,v0
800152d4:	2407ffff 	li	a3,-1
800152d8:	8fa4001c 	lw	a0,28(sp)
800152dc:	3c028001 	lui	v0,0x8001
800152e0:	8c436f9c 	lw	v1,28572(v0)
800152e4:	00000000 	nop
800152e8:	00831823 	subu	v1,a0,v1
800152ec:	00031883 	sra	v1,v1,0x2
800152f0:	00031080 	sll	v0,v1,0x2
800152f4:	00431021 	addu	v0,v0,v1
800152f8:	00021900 	sll	v1,v0,0x4
800152fc:	00431021 	addu	v0,v0,v1
80015300:	00021a00 	sll	v1,v0,0x8
80015304:	00431021 	addu	v0,v0,v1
80015308:	00021c00 	sll	v1,v0,0x10
8001530c:	00431021 	addu	v0,v0,v1
80015310:	00021023 	negu	v0,v0
80015314:	00021300 	sll	v0,v0,0xc
80015318:	10e20009 	beq	a3,v0,80015340 <page_check+0x6e4>
8001531c:	24020001 	li	v0,1
80015320:	3c048001 	lui	a0,0x8001
80015324:	248466c0 	addiu	a0,a0,26304
80015328:	2405025c 	li	a1,604
8001532c:	3c068001 	lui	a2,0x8001
80015330:	24c65e50 	addiu	a2,a2,24144
80015334:	3c078001 	lui	a3,0x8001
80015338:	0c004caa 	jal	800132a8 <_panic>
8001533c:	24e769d0 	addiu	a3,a3,27088
80015340:	94830008 	lhu	v1,8(a0)
80015344:	00000000 	nop
80015348:	10620008 	beq	v1,v0,8001536c <page_check+0x710>
8001534c:	3c048001 	lui	a0,0x8001
80015350:	248466c0 	addiu	a0,a0,26304
80015354:	2405025d 	li	a1,605
80015358:	3c068001 	lui	a2,0x8001
8001535c:	24c65e50 	addiu	a2,a2,24144
80015360:	3c078001 	lui	a3,0x8001
80015364:	0c004caa 	jal	800132a8 <_panic>
80015368:	24e769fc 	addiu	a3,a3,27132
8001536c:	0c00501f 	jal	8001407c <page_alloc>
80015370:	27a40010 	addiu	a0,sp,16
80015374:	2403fffc 	li	v1,-4
80015378:	10430009 	beq	v0,v1,800153a0 <page_check+0x744>
8001537c:	3c028001 	lui	v0,0x8001
80015380:	3c048001 	lui	a0,0x8001
80015384:	248466c0 	addiu	a0,a0,26304
80015388:	24050261 	li	a1,609
8001538c:	3c068001 	lui	a2,0x8001
80015390:	24c65e50 	addiu	a2,a2,24144
80015394:	3c078001 	lui	a3,0x8001
80015398:	0c004caa 	jal	800132a8 <_panic>
8001539c:	24e767e4 	addiu	a3,a3,26596
800153a0:	8c446f8c 	lw	a0,28556(v0)
800153a4:	8fa50014 	lw	a1,20(sp)
800153a8:	3c060040 	lui	a2,0x40
800153ac:	0c0050c3 	jal	8001430c <page_insert>
800153b0:	00003821 	move	a3,zero
800153b4:	04400009 	bltz	v0,800153dc <page_check+0x780>
800153b8:	3c028001 	lui	v0,0x8001
800153bc:	3c048001 	lui	a0,0x8001
800153c0:	248466c0 	addiu	a0,a0,26304
800153c4:	24050264 	li	a1,612
800153c8:	3c068001 	lui	a2,0x8001
800153cc:	24c65e50 	addiu	a2,a2,24144
800153d0:	3c078001 	lui	a3,0x8001
800153d4:	0c004caa 	jal	800132a8 <_panic>
800153d8:	24e76a24 	addiu	a3,a3,27172
800153dc:	8c446f8c 	lw	a0,28556(v0)
800153e0:	8fa50018 	lw	a1,24(sp)
800153e4:	24061000 	li	a2,4096
800153e8:	0c0050c3 	jal	8001430c <page_insert>
800153ec:	00003821 	move	a3,zero
800153f0:	10400009 	beqz	v0,80015418 <page_check+0x7bc>
800153f4:	3c028001 	lui	v0,0x8001
800153f8:	3c048001 	lui	a0,0x8001
800153fc:	248466c0 	addiu	a0,a0,26304
80015400:	24050267 	li	a1,615
80015404:	3c068001 	lui	a2,0x8001
80015408:	24c65e50 	addiu	a2,a2,24144
8001540c:	3c078001 	lui	a3,0x8001
80015410:	0c004caa 	jal	800132a8 <_panic>
80015414:	24e76a50 	addiu	a3,a3,27216
80015418:	8c426f8c 	lw	v0,28556(v0)
8001541c:	00000000 	nop
80015420:	8c450000 	lw	a1,0(v0)
80015424:	00000000 	nop
80015428:	00051242 	srl	v0,a1,0x9
8001542c:	30460001 	andi	a2,v0,0x1
80015430:	10c00019 	beqz	a2,80015498 <page_check+0x83c>
80015434:	2404ffff 	li	a0,-1
80015438:	2402f000 	li	v0,-4096
8001543c:	00a23824 	and	a3,a1,v0
80015440:	00071302 	srl	v0,a3,0xc
80015444:	3c038001 	lui	v1,0x8001
80015448:	8c636f88 	lw	v1,28552(v1)
8001544c:	00000000 	nop
80015450:	0043102b 	sltu	v0,v0,v1
80015454:	14400007 	bnez	v0,80015474 <page_check+0x818>
80015458:	3c028000 	lui	v0,0x8000
8001545c:	3c048001 	lui	a0,0x8001
80015460:	24845dc8 	addiu	a0,a0,24008
80015464:	2405003c 	li	a1,60
80015468:	3c068001 	lui	a2,0x8001
8001546c:	0c004caa 	jal	800132a8 <_panic>
80015470:	24c65ddc 	addiu	a2,a2,24028
80015474:	00e21021 	addu	v0,a3,v0
80015478:	8c470000 	lw	a3,0(v0)
8001547c:	00000000 	nop
80015480:	30e20200 	andi	v0,a3,0x200
80015484:	10400003 	beqz	v0,80015494 <page_check+0x838>
80015488:	2402f000 	li	v0,-4096
8001548c:	10000002 	b	80015498 <page_check+0x83c>
80015490:	00e22024 	and	a0,a3,v0
80015494:	2404ffff 	li	a0,-1
80015498:	8fa80018 	lw	t0,24(sp)
8001549c:	3c028001 	lui	v0,0x8001
800154a0:	8c436f9c 	lw	v1,28572(v0)
800154a4:	00000000 	nop
800154a8:	01031823 	subu	v1,t0,v1
800154ac:	00031883 	sra	v1,v1,0x2
800154b0:	00031080 	sll	v0,v1,0x2
800154b4:	00431021 	addu	v0,v0,v1
800154b8:	00021900 	sll	v1,v0,0x4
800154bc:	00431021 	addu	v0,v0,v1
800154c0:	00021a00 	sll	v1,v0,0x8
800154c4:	00431021 	addu	v0,v0,v1
800154c8:	00021c00 	sll	v1,v0,0x10
800154cc:	00431021 	addu	v0,v0,v1
800154d0:	00021023 	negu	v0,v0
800154d4:	00021300 	sll	v0,v0,0xc
800154d8:	10820008 	beq	a0,v0,800154fc <page_check+0x8a0>
800154dc:	3c078001 	lui	a3,0x8001
800154e0:	3c048001 	lui	a0,0x8001
800154e4:	248466c0 	addiu	a0,a0,26304
800154e8:	2405026a 	li	a1,618
800154ec:	3c068001 	lui	a2,0x8001
800154f0:	24c65e50 	addiu	a2,a2,24144
800154f4:	0c004caa 	jal	800132a8 <_panic>
800154f8:	24e76968 	addiu	a3,a3,26984
800154fc:	10c00019 	beqz	a2,80015564 <page_check+0x908>
80015500:	2402ffff 	li	v0,-1
80015504:	2402f000 	li	v0,-4096
80015508:	00a23824 	and	a3,a1,v0
8001550c:	00071302 	srl	v0,a3,0xc
80015510:	3c038001 	lui	v1,0x8001
80015514:	8c636f88 	lw	v1,28552(v1)
80015518:	00000000 	nop
8001551c:	0043102b 	sltu	v0,v0,v1
80015520:	14400007 	bnez	v0,80015540 <page_check+0x8e4>
80015524:	3c028000 	lui	v0,0x8000
80015528:	3c048001 	lui	a0,0x8001
8001552c:	24845dc8 	addiu	a0,a0,24008
80015530:	2405003c 	li	a1,60
80015534:	3c068001 	lui	a2,0x8001
80015538:	0c004caa 	jal	800132a8 <_panic>
8001553c:	24c65ddc 	addiu	a2,a2,24028
80015540:	00e21021 	addu	v0,a3,v0
80015544:	8c470004 	lw	a3,4(v0)
80015548:	00000000 	nop
8001554c:	30e20200 	andi	v0,a3,0x200
80015550:	10400003 	beqz	v0,80015560 <page_check+0x904>
80015554:	2402f000 	li	v0,-4096
80015558:	10000002 	b	80015564 <page_check+0x908>
8001555c:	00e21024 	and	v0,a3,v0
80015560:	2402ffff 	li	v0,-1
80015564:	10820009 	beq	a0,v0,8001558c <page_check+0x930>
80015568:	24020002 	li	v0,2
8001556c:	3c048001 	lui	a0,0x8001
80015570:	248466c0 	addiu	a0,a0,26304
80015574:	2405026b 	li	a1,619
80015578:	3c068001 	lui	a2,0x8001
8001557c:	24c65e50 	addiu	a2,a2,24144
80015580:	3c078001 	lui	a3,0x8001
80015584:	0c004caa 	jal	800132a8 <_panic>
80015588:	24e76a7c 	addiu	a3,a3,27260
8001558c:	95030008 	lhu	v1,8(t0)
80015590:	00000000 	nop
80015594:	10620008 	beq	v1,v0,800155b8 <page_check+0x95c>
80015598:	3c048001 	lui	a0,0x8001
8001559c:	248466c0 	addiu	a0,a0,26304
800155a0:	2405026d 	li	a1,621
800155a4:	3c068001 	lui	a2,0x8001
800155a8:	24c65e50 	addiu	a2,a2,24144
800155ac:	3c078001 	lui	a3,0x8001
800155b0:	0c004caa 	jal	800132a8 <_panic>
800155b4:	24e76aa8 	addiu	a3,a3,27304
800155b8:	3c048001 	lui	a0,0x8001
800155bc:	8fa2001c 	lw	v0,28(sp)
800155c0:	00000000 	nop
800155c4:	94450008 	lhu	a1,8(v0)
800155c8:	0c004c9a 	jal	80013268 <printf>
800155cc:	24846abc 	addiu	a0,a0,27324
800155d0:	8fa2001c 	lw	v0,28(sp)
800155d4:	00000000 	nop
800155d8:	94420008 	lhu	v0,8(v0)
800155dc:	00000000 	nop
800155e0:	10400008 	beqz	v0,80015604 <page_check+0x9a8>
800155e4:	2405026f 	li	a1,623
800155e8:	3c048001 	lui	a0,0x8001
800155ec:	248466c0 	addiu	a0,a0,26304
800155f0:	3c068001 	lui	a2,0x8001
800155f4:	24c65e50 	addiu	a2,a2,24144
800155f8:	3c078001 	lui	a3,0x8001
800155fc:	0c004caa 	jal	800132a8 <_panic>
80015600:	24e76acc 	addiu	a3,a3,27340
80015604:	3c048001 	lui	a0,0x8001
80015608:	0c004c9a 	jal	80013268 <printf>
8001560c:	24846ae0 	addiu	a0,a0,27360
80015610:	0c00501f 	jal	8001407c <page_alloc>
80015614:	27a40010 	addiu	a0,sp,16
80015618:	14400006 	bnez	v0,80015634 <page_check+0x9d8>
8001561c:	3c048001 	lui	a0,0x8001
80015620:	8fa30010 	lw	v1,16(sp)
80015624:	8fa2001c 	lw	v0,28(sp)
80015628:	00000000 	nop
8001562c:	10620008 	beq	v1,v0,80015650 <page_check+0x9f4>
80015630:	3c108001 	lui	s0,0x8001
80015634:	248466c0 	addiu	a0,a0,26304
80015638:	24050273 	li	a1,627
8001563c:	3c068001 	lui	a2,0x8001
80015640:	24c65e50 	addiu	a2,a2,24144
80015644:	3c078001 	lui	a3,0x8001
80015648:	0c004caa 	jal	800132a8 <_panic>
8001564c:	24e76af4 	addiu	a3,a3,27380
80015650:	8e046f8c 	lw	a0,28556(s0)
80015654:	0c005168 	jal	800145a0 <page_remove>
80015658:	00002821 	move	a1,zero
8001565c:	8e046f8c 	lw	a0,28556(s0)
80015660:	00000000 	nop
80015664:	8c870000 	lw	a3,0(a0)
80015668:	00000000 	nop
8001566c:	30e20200 	andi	v0,a3,0x200
80015670:	10400038 	beqz	v0,80015754 <page_check+0xaf8>
80015674:	2402f000 	li	v0,-4096
80015678:	00e24024 	and	t0,a3,v0
8001567c:	00081302 	srl	v0,t0,0xc
80015680:	3c038001 	lui	v1,0x8001
80015684:	8c636f88 	lw	v1,28552(v1)
80015688:	00000000 	nop
8001568c:	0043102b 	sltu	v0,v0,v1
80015690:	14400008 	bnez	v0,800156b4 <page_check+0xa58>
80015694:	3c028000 	lui	v0,0x8000
80015698:	3c048001 	lui	a0,0x8001
8001569c:	24845dc8 	addiu	a0,a0,24008
800156a0:	2405003c 	li	a1,60
800156a4:	3c068001 	lui	a2,0x8001
800156a8:	24c65ddc 	addiu	a2,a2,24028
800156ac:	0c004caa 	jal	800132a8 <_panic>
800156b0:	01003821 	move	a3,t0
800156b4:	01021021 	addu	v0,t0,v0
800156b8:	8c430000 	lw	v1,0(v0)
800156bc:	00000000 	nop
800156c0:	30620200 	andi	v0,v1,0x200
800156c4:	1040000d 	beqz	v0,800156fc <page_check+0xaa0>
800156c8:	2402f000 	li	v0,-4096
800156cc:	00621024 	and	v0,v1,v0
800156d0:	2403ffff 	li	v1,-1
800156d4:	10430009 	beq	v0,v1,800156fc <page_check+0xaa0>
800156d8:	2402f000 	li	v0,-4096
800156dc:	3c048001 	lui	a0,0x8001
800156e0:	248466c0 	addiu	a0,a0,26304
800156e4:	24050277 	li	a1,631
800156e8:	3c068001 	lui	a2,0x8001
800156ec:	24c65e50 	addiu	a2,a2,24144
800156f0:	3c078001 	lui	a3,0x8001
800156f4:	0c004caa 	jal	800132a8 <_panic>
800156f8:	24e76b18 	addiu	a3,a3,27416
800156fc:	00e23824 	and	a3,a3,v0
80015700:	00071302 	srl	v0,a3,0xc
80015704:	3c038001 	lui	v1,0x8001
80015708:	8c636f88 	lw	v1,28552(v1)
8001570c:	00000000 	nop
80015710:	0043102b 	sltu	v0,v0,v1
80015714:	14400007 	bnez	v0,80015734 <page_check+0xad8>
80015718:	3c028000 	lui	v0,0x8000
8001571c:	3c048001 	lui	a0,0x8001
80015720:	24845dc8 	addiu	a0,a0,24008
80015724:	2405003c 	li	a1,60
80015728:	3c068001 	lui	a2,0x8001
8001572c:	0c004caa 	jal	800132a8 <_panic>
80015730:	24c65ddc 	addiu	a2,a2,24028
80015734:	00e21021 	addu	v0,a3,v0
80015738:	8c470004 	lw	a3,4(v0)
8001573c:	00000000 	nop
80015740:	30e20200 	andi	v0,a3,0x200
80015744:	10400003 	beqz	v0,80015754 <page_check+0xaf8>
80015748:	2402f000 	li	v0,-4096
8001574c:	10000002 	b	80015758 <page_check+0xafc>
80015750:	00e23824 	and	a3,a3,v0
80015754:	2407ffff 	li	a3,-1
80015758:	8fa50018 	lw	a1,24(sp)
8001575c:	3c028001 	lui	v0,0x8001
80015760:	8c436f9c 	lw	v1,28572(v0)
80015764:	00000000 	nop
80015768:	00a31823 	subu	v1,a1,v1
8001576c:	00031883 	sra	v1,v1,0x2
80015770:	00031080 	sll	v0,v1,0x2
80015774:	00431021 	addu	v0,v0,v1
80015778:	00021900 	sll	v1,v0,0x4
8001577c:	00431021 	addu	v0,v0,v1
80015780:	00021a00 	sll	v1,v0,0x8
80015784:	00431021 	addu	v0,v0,v1
80015788:	00021c00 	sll	v1,v0,0x10
8001578c:	00431021 	addu	v0,v0,v1
80015790:	00021023 	negu	v0,v0
80015794:	00021300 	sll	v0,v0,0xc
80015798:	10e20009 	beq	a3,v0,800157c0 <page_check+0xb64>
8001579c:	24020001 	li	v0,1
800157a0:	3c048001 	lui	a0,0x8001
800157a4:	248466c0 	addiu	a0,a0,26304
800157a8:	24050278 	li	a1,632
800157ac:	3c068001 	lui	a2,0x8001
800157b0:	24c65e50 	addiu	a2,a2,24144
800157b4:	3c078001 	lui	a3,0x8001
800157b8:	0c004caa 	jal	800132a8 <_panic>
800157bc:	24e76a7c 	addiu	a3,a3,27260
800157c0:	94a30008 	lhu	v1,8(a1)
800157c4:	00000000 	nop
800157c8:	10620008 	beq	v1,v0,800157ec <page_check+0xb90>
800157cc:	24050279 	li	a1,633
800157d0:	3c048001 	lui	a0,0x8001
800157d4:	248466c0 	addiu	a0,a0,26304
800157d8:	3c068001 	lui	a2,0x8001
800157dc:	24c65e50 	addiu	a2,a2,24144
800157e0:	3c078001 	lui	a3,0x8001
800157e4:	0c004caa 	jal	800132a8 <_panic>
800157e8:	24e76990 	addiu	a3,a3,27024
800157ec:	8fa2001c 	lw	v0,28(sp)
800157f0:	00000000 	nop
800157f4:	94420008 	lhu	v0,8(v0)
800157f8:	00000000 	nop
800157fc:	10400008 	beqz	v0,80015820 <page_check+0xbc4>
80015800:	2405027a 	li	a1,634
80015804:	3c048001 	lui	a0,0x8001
80015808:	248466c0 	addiu	a0,a0,26304
8001580c:	3c068001 	lui	a2,0x8001
80015810:	24c65e50 	addiu	a2,a2,24144
80015814:	3c078001 	lui	a3,0x8001
80015818:	0c004caa 	jal	800132a8 <_panic>
8001581c:	24e76acc 	addiu	a3,a3,27340
80015820:	0c005168 	jal	800145a0 <page_remove>
80015824:	24051000 	li	a1,4096
80015828:	3c028001 	lui	v0,0x8001
8001582c:	8c426f8c 	lw	v0,28556(v0)
80015830:	00000000 	nop
80015834:	8c470000 	lw	a3,0(v0)
80015838:	00000000 	nop
8001583c:	30e20200 	andi	v0,a3,0x200
80015840:	10400041 	beqz	v0,80015948 <page_check+0xcec>
80015844:	2402f000 	li	v0,-4096
80015848:	00e24024 	and	t0,a3,v0
8001584c:	00081302 	srl	v0,t0,0xc
80015850:	3c038001 	lui	v1,0x8001
80015854:	8c636f88 	lw	v1,28552(v1)
80015858:	00000000 	nop
8001585c:	0043102b 	sltu	v0,v0,v1
80015860:	14400008 	bnez	v0,80015884 <page_check+0xc28>
80015864:	3c028000 	lui	v0,0x8000
80015868:	3c048001 	lui	a0,0x8001
8001586c:	24845dc8 	addiu	a0,a0,24008
80015870:	2405003c 	li	a1,60
80015874:	3c068001 	lui	a2,0x8001
80015878:	24c65ddc 	addiu	a2,a2,24028
8001587c:	0c004caa 	jal	800132a8 <_panic>
80015880:	01003821 	move	a3,t0
80015884:	01021021 	addu	v0,t0,v0
80015888:	8c430000 	lw	v1,0(v0)
8001588c:	00000000 	nop
80015890:	30620200 	andi	v0,v1,0x200
80015894:	1040000d 	beqz	v0,800158cc <page_check+0xc70>
80015898:	2402f000 	li	v0,-4096
8001589c:	00621024 	and	v0,v1,v0
800158a0:	2403ffff 	li	v1,-1
800158a4:	10430009 	beq	v0,v1,800158cc <page_check+0xc70>
800158a8:	2402f000 	li	v0,-4096
800158ac:	3c048001 	lui	a0,0x8001
800158b0:	248466c0 	addiu	a0,a0,26304
800158b4:	2405027e 	li	a1,638
800158b8:	3c068001 	lui	a2,0x8001
800158bc:	24c65e50 	addiu	a2,a2,24144
800158c0:	3c078001 	lui	a3,0x8001
800158c4:	0c004caa 	jal	800132a8 <_panic>
800158c8:	24e76b18 	addiu	a3,a3,27416
800158cc:	00e23824 	and	a3,a3,v0
800158d0:	00071302 	srl	v0,a3,0xc
800158d4:	3c038001 	lui	v1,0x8001
800158d8:	8c636f88 	lw	v1,28552(v1)
800158dc:	00000000 	nop
800158e0:	0043102b 	sltu	v0,v0,v1
800158e4:	14400007 	bnez	v0,80015904 <page_check+0xca8>
800158e8:	3c028000 	lui	v0,0x8000
800158ec:	3c048001 	lui	a0,0x8001
800158f0:	24845dc8 	addiu	a0,a0,24008
800158f4:	2405003c 	li	a1,60
800158f8:	3c068001 	lui	a2,0x8001
800158fc:	0c004caa 	jal	800132a8 <_panic>
80015900:	24c65ddc 	addiu	a2,a2,24028
80015904:	00e21021 	addu	v0,a3,v0
80015908:	8c470004 	lw	a3,4(v0)
8001590c:	00000000 	nop
80015910:	30e20200 	andi	v0,a3,0x200
80015914:	1040000c 	beqz	v0,80015948 <page_check+0xcec>
80015918:	2402f000 	li	v0,-4096
8001591c:	00e21024 	and	v0,a3,v0
80015920:	2403ffff 	li	v1,-1
80015924:	10430008 	beq	v0,v1,80015948 <page_check+0xcec>
80015928:	3c048001 	lui	a0,0x8001
8001592c:	248466c0 	addiu	a0,a0,26304
80015930:	2405027f 	li	a1,639
80015934:	3c068001 	lui	a2,0x8001
80015938:	24c65e50 	addiu	a2,a2,24144
8001593c:	3c078001 	lui	a3,0x8001
80015940:	0c004caa 	jal	800132a8 <_panic>
80015944:	24e76b38 	addiu	a3,a3,27448
80015948:	8fa20018 	lw	v0,24(sp)
8001594c:	00000000 	nop
80015950:	94420008 	lhu	v0,8(v0)
80015954:	00000000 	nop
80015958:	10400008 	beqz	v0,8001597c <page_check+0xd20>
8001595c:	3c048001 	lui	a0,0x8001
80015960:	248466c0 	addiu	a0,a0,26304
80015964:	24050280 	li	a1,640
80015968:	3c068001 	lui	a2,0x8001
8001596c:	24c65e50 	addiu	a2,a2,24144
80015970:	3c078001 	lui	a3,0x8001
80015974:	0c004caa 	jal	800132a8 <_panic>
80015978:	24e76b58 	addiu	a3,a3,27480
8001597c:	8fa2001c 	lw	v0,28(sp)
80015980:	00000000 	nop
80015984:	94420008 	lhu	v0,8(v0)
80015988:	00000000 	nop
8001598c:	10400007 	beqz	v0,800159ac <page_check+0xd50>
80015990:	248466c0 	addiu	a0,a0,26304
80015994:	24050281 	li	a1,641
80015998:	3c068001 	lui	a2,0x8001
8001599c:	24c65e50 	addiu	a2,a2,24144
800159a0:	3c078001 	lui	a3,0x8001
800159a4:	0c004caa 	jal	800132a8 <_panic>
800159a8:	24e76acc 	addiu	a3,a3,27340
800159ac:	0c00501f 	jal	8001407c <page_alloc>
800159b0:	27a40010 	addiu	a0,sp,16
800159b4:	14400006 	bnez	v0,800159d0 <page_check+0xd74>
800159b8:	00000000 	nop
800159bc:	8fa30010 	lw	v1,16(sp)
800159c0:	8fa20018 	lw	v0,24(sp)
800159c4:	00000000 	nop
800159c8:	10620009 	beq	v1,v0,800159f0 <page_check+0xd94>
800159cc:	00000000 	nop
800159d0:	3c048001 	lui	a0,0x8001
800159d4:	248466c0 	addiu	a0,a0,26304
800159d8:	24050284 	li	a1,644
800159dc:	3c068001 	lui	a2,0x8001
800159e0:	24c65e50 	addiu	a2,a2,24144
800159e4:	3c078001 	lui	a3,0x8001
800159e8:	0c004caa 	jal	800132a8 <_panic>
800159ec:	24e76b6c 	addiu	a3,a3,27500
800159f0:	0c00501f 	jal	8001407c <page_alloc>
800159f4:	27a40010 	addiu	a0,sp,16
800159f8:	2403fffc 	li	v1,-4
800159fc:	10430009 	beq	v0,v1,80015a24 <page_check+0xdc8>
80015a00:	3c028001 	lui	v0,0x8001
80015a04:	3c048001 	lui	a0,0x8001
80015a08:	248466c0 	addiu	a0,a0,26304
80015a0c:	24050287 	li	a1,647
80015a10:	3c068001 	lui	a2,0x8001
80015a14:	24c65e50 	addiu	a2,a2,24144
80015a18:	3c078001 	lui	a3,0x8001
80015a1c:	0c004caa 	jal	800132a8 <_panic>
80015a20:	24e767e4 	addiu	a3,a3,26596
80015a24:	8c456f8c 	lw	a1,28556(v0)
80015a28:	00000000 	nop
80015a2c:	8ca40000 	lw	a0,0(a1)
80015a30:	2402f000 	li	v0,-4096
80015a34:	00822024 	and	a0,a0,v0
80015a38:	3c028001 	lui	v0,0x8001
80015a3c:	8c426f9c 	lw	v0,28572(v0)
80015a40:	8fa30014 	lw	v1,20(sp)
80015a44:	00000000 	nop
80015a48:	00621823 	subu	v1,v1,v0
80015a4c:	00031883 	sra	v1,v1,0x2
80015a50:	00031080 	sll	v0,v1,0x2
80015a54:	00431021 	addu	v0,v0,v1
80015a58:	00021900 	sll	v1,v0,0x4
80015a5c:	00431021 	addu	v0,v0,v1
80015a60:	00021a00 	sll	v1,v0,0x8
80015a64:	00431021 	addu	v0,v0,v1
80015a68:	00021c00 	sll	v1,v0,0x10
80015a6c:	00431021 	addu	v0,v0,v1
80015a70:	00021023 	negu	v0,v0
80015a74:	00021300 	sll	v0,v0,0xc
80015a78:	10820009 	beq	a0,v0,80015aa0 <page_check+0xe44>
80015a7c:	24020001 	li	v0,1
80015a80:	3c048001 	lui	a0,0x8001
80015a84:	248466c0 	addiu	a0,a0,26304
80015a88:	2405028a 	li	a1,650
80015a8c:	3c068001 	lui	a2,0x8001
80015a90:	24c65e50 	addiu	a2,a2,24144
80015a94:	3c078001 	lui	a3,0x8001
80015a98:	0c004caa 	jal	800132a8 <_panic>
80015a9c:	24e7690c 	addiu	a3,a3,26892
80015aa0:	aca00000 	sw	zero,0(a1)
80015aa4:	8fa40014 	lw	a0,20(sp)
80015aa8:	00000000 	nop
80015aac:	94830008 	lhu	v1,8(a0)
80015ab0:	00000000 	nop
80015ab4:	10620009 	beq	v1,v0,80015adc <page_check+0xe80>
80015ab8:	3c028001 	lui	v0,0x8001
80015abc:	3c048001 	lui	a0,0x8001
80015ac0:	248466c0 	addiu	a0,a0,26304
80015ac4:	2405028c 	li	a1,652
80015ac8:	3c068001 	lui	a2,0x8001
80015acc:	24c65e50 	addiu	a2,a2,24144
80015ad0:	3c078001 	lui	a3,0x8001
80015ad4:	0c004caa 	jal	800132a8 <_panic>
80015ad8:	24e76b90 	addiu	a3,a3,27536
80015adc:	a4800008 	sh	zero,8(a0)
80015ae0:	ac516ef4 	sw	s1,28404(v0)
80015ae4:	8fa40014 	lw	a0,20(sp)
80015ae8:	0c00505b 	jal	8001416c <page_free>
80015aec:	00000000 	nop
80015af0:	8fa40018 	lw	a0,24(sp)
80015af4:	0c00505b 	jal	8001416c <page_free>
80015af8:	00000000 	nop
80015afc:	8fa4001c 	lw	a0,28(sp)
80015b00:	0c00505b 	jal	8001416c <page_free>
80015b04:	00000000 	nop
80015b08:	3c048001 	lui	a0,0x8001
80015b0c:	0c004c9a 	jal	80013268 <printf>
80015b10:	24846ba4 	addiu	a0,a0,27556
80015b14:	8fbf0028 	lw	ra,40(sp)
80015b18:	8fb10024 	lw	s1,36(sp)
80015b1c:	8fb00020 	lw	s0,32(sp)
80015b20:	03e00008 	jr	ra
80015b24:	27bd0030 	addiu	sp,sp,48

80015b28 <pageout>:
80015b28:	27bdffd8 	addiu	sp,sp,-40
80015b2c:	afbf0020 	sw	ra,32(sp)
80015b30:	afb1001c 	sw	s1,28(sp)
80015b34:	afb00018 	sw	s0,24(sp)
80015b38:	00808021 	move	s0,a0
80015b3c:	00a08821 	move	s1,a1
80015b40:	04a00007 	bltz	a1,80015b60 <pageout+0x38>
80015b44:	afa00010 	sw	zero,16(sp)
80015b48:	3c048001 	lui	a0,0x8001
80015b4c:	248466c0 	addiu	a0,a0,26304
80015b50:	240502a0 	li	a1,672
80015b54:	3c068001 	lui	a2,0x8001
80015b58:	0c004caa 	jal	800132a8 <_panic>
80015b5c:	24c66bc0 	addiu	a2,a2,27584
80015b60:	3c0280bf 	lui	v0,0x80bf
80015b64:	3442ffff 	ori	v0,v0,0xffff
80015b68:	00821021 	addu	v0,a0,v0
80015b6c:	3c03003f 	lui	v1,0x3f
80015b70:	3463fffe 	ori	v1,v1,0xfffe
80015b74:	0062102b 	sltu	v0,v1,v0
80015b78:	14400007 	bnez	v0,80015b98 <pageout+0x70>
80015b7c:	3402ffff 	li	v0,0xffff
80015b80:	3c048001 	lui	a0,0x8001
80015b84:	248466c0 	addiu	a0,a0,26304
80015b88:	240502a4 	li	a1,676
80015b8c:	3c068001 	lui	a2,0x8001
80015b90:	0c004caa 	jal	800132a8 <_panic>
80015b94:	24c66bdc 	addiu	a2,a2,27612
80015b98:	0044102a 	slt	v0,v0,a0
80015b9c:	14400006 	bnez	v0,80015bb8 <pageout+0x90>
80015ba0:	3c048001 	lui	a0,0x8001
80015ba4:	248466c0 	addiu	a0,a0,26304
80015ba8:	240502a8 	li	a1,680
80015bac:	3c068001 	lui	a2,0x8001
80015bb0:	0c004caa 	jal	800132a8 <_panic>
80015bb4:	24c66c04 	addiu	a2,a2,27652
80015bb8:	0c00501f 	jal	8001407c <page_alloc>
80015bbc:	27a40010 	addiu	a0,sp,16
80015bc0:	8fa30010 	lw	v1,16(sp)
80015bc4:	00000000 	nop
80015bc8:	94620008 	lhu	v0,8(v1)
80015bcc:	00000000 	nop
80015bd0:	24420001 	addiu	v0,v0,1
80015bd4:	a4620008 	sh	v0,8(v1)
80015bd8:	02202021 	move	a0,s1
80015bdc:	8fa50010 	lw	a1,16(sp)
80015be0:	2406f000 	li	a2,-4096
80015be4:	02063024 	and	a2,s0,a2
80015be8:	0c0050c3 	jal	8001430c <page_insert>
80015bec:	24070400 	li	a3,1024
80015bf0:	3c048001 	lui	a0,0x8001
80015bf4:	24846c1c 	addiu	a0,a0,27676
80015bf8:	0c004c9a 	jal	80013268 <printf>
80015bfc:	02002821 	move	a1,s0
80015c00:	8fbf0020 	lw	ra,32(sp)
80015c04:	8fb1001c 	lw	s1,28(sp)
80015c08:	8fb00018 	lw	s0,24(sp)
80015c0c:	03e00008 	jr	ra
80015c10:	27bd0028 	addiu	sp,sp,40
	...

80015c20 <tlb_out>:
80015c20:	00000000 	nop
80015c24:	401b5000 	mfc0	k1,$10
80015c28:	40845000 	mtc0	a0,$10
80015c2c:	00000000 	nop
80015c30:	42000008 	tlbp
	...
80015c44:	401a0000 	mfc0	k0,$0
80015c48:	00000000 	nop
80015c4c:	07400008 	bltz	k0,80015c70 <NOFOUND>
80015c50:	00000000 	nop
80015c54:	00000000 	nop
80015c58:	40805000 	mtc0	zero,$10
80015c5c:	00000000 	nop
80015c60:	40801000 	mtc0	zero,$2
80015c64:	00000000 	nop
80015c68:	42000002 	tlbwi
80015c6c:	00000000 	nop

80015c70 <NOFOUND>:
80015c70:	409b5000 	mtc0	k1,$10
80015c74:	03e00008 	jr	ra
80015c78:	00000000 	nop
80015c7c:	00000000 	nop
Disassembly of section .reginfo:

80015c80 <.reginfo>:
80015c80:	ac000102 	sw	zero,258(zero)
	...
Disassembly of section .rodata.str1.4:

80015c98 <.rodata.str1.4>:
80015c98:	696e6974 	0x696e6974
80015c9c:	2e633a09 	sltiu	v1,s3,14857
80015ca0:	6d697073 	0x6d697073
80015ca4:	5f696e69 	0x5f696e69
80015ca8:	74282920 	jalx	80a0a480 <end+0x60a480>
80015cac:	69732063 	0x69732063
80015cb0:	616c6c65 	0x616c6c65
80015cb4:	640a0000 	0x640a0000
80015cb8:	5b747261 	0x5b747261
80015cbc:	705f696e 	0x705f696e
80015cc0:	69745d20 	0x69745d20
80015cc4:	42656769 	c0	0x656769
80015cc8:	6e20696e 	0x6e20696e
80015ccc:	69742074 	0x69742074
80015cd0:	72617021 	0x72617021
80015cd4:	0a000000 	j	88000000 <end+0x7c00000>
80015cd8:	5b6b636c 	0x5b6b636c
80015cdc:	6f636b5f 	0x6f636b5f
80015ce0:	696e6974 	0x696e6974
80015ce4:	5d204265 	0x5d204265
80015ce8:	67696e20 	0x67696e20
80015cec:	696e6974 	0x696e6974
80015cf0:	206b636c 	addi	t3,v1,25452
80015cf4:	6f636b21 	0x6f636b21
80015cf8:	0a000000 	j	88000000 <end+0x7c00000>
80015cfc:	456e6420 	0x456e6420
80015d00:	696e6974 	0x696e6974
80015d04:	204b636c 	addi	t3,v0,25452
80015d08:	6f636b21 	0x6f636b21
80015d0c:	2121207e 	addi	at,t1,8318
80015d10:	7e7e7e7e 	0x7e7e7e7e
80015d14:	7e7e7e7e 	0x7e7e7e7e
80015d18:	7e7e0a00 	0x7e7e0a00
80015d1c:	696e6974 	0x696e6974
80015d20:	2e630000 	sltiu	v1,s3,0
80015d24:	5e5e5e5e 	0x5e5e5e5e
80015d28:	5e5e5e5e 	0x5e5e5e5e
80015d2c:	5e5e5e5e 	0x5e5e5e5e
80015d30:	5e5e5e5e 	0x5e5e5e5e
80015d34:	5e5e5e5e 	0x5e5e5e5e
80015d38:	5e5e5e5e 	0x5e5e5e5e
80015d3c:	5e5e5e5e 	0x5e5e5e5e
80015d40:	5e5e5e5e 	0x5e5e5e5e
80015d44:	5e5e5e5e 	0x5e5e5e5e
80015d48:	5e000000 	0x5e000000
80015d4c:	6d61696e 	0x6d61696e
80015d50:	2e633a09 	sltiu	v1,s3,14857
80015d54:	6d61696e 	0x6d61696e
80015d58:	20697320 	addi	t1,v1,29472
80015d5c:	73746172 	0x73746172
80015d60:	74202e2e 	jalx	8080b8b8 <end+0x40b8b8>
80015d64:	2e0a0000 	sltiu	t2,s0,0
80015d68:	6d61696e 	0x6d61696e
80015d6c:	2e630000 	sltiu	v1,s3,0
80015d70:	6d61696e 	0x6d61696e
80015d74:	20697320 	addi	t1,v1,29472
80015d78:	6f766572 	0x6f766572
80015d7c:	20697320 	addi	t1,v1,29472
80015d80:	6572726f 	0x6572726f
80015d84:	72210000 	0x72210000
80015d88:	656e762e 	0x656e762e
80015d8c:	63000000 	0x63000000
80015d90:	746f6f20 	jalx	81bdbc80 <end+0x17dbc80>
80015d94:	6d616e79 	0x6d616e79
80015d98:	2070726f 	addi	s0,v1,29295
80015d9c:	63657373 	0x63657373
80015da0:	65732100 	0x65732100
80015da4:	656e765f 	0x656e765f
80015da8:	73657475 	0x73657475
80015dac:	705f766d 	0x705f766d
80015db0:	202d2070 	addi	t5,at,8304
80015db4:	61676520 	0x61676520
80015db8:	616c6c6f 	0x616c6c6f
80015dbc:	63206572 	0x63206572
80015dc0:	726f720a 	0x726f720a
80015dc4:	00000000 	nop
80015dc8:	2e2e2f69 	sltiu	t6,s1,12137
80015dcc:	6e636c75 	0x6e636c75
80015dd0:	64652f70 	0x64652f70
80015dd4:	6d61702e 	0x6d61702e
80015dd8:	68000000 	0x68000000
80015ddc:	4b414444 	c2	0x1414444
80015de0:	52206361 	0x52206361
80015de4:	6c6c6564 	0x6c6c6564
80015de8:	20776974 	addi	s7,v1,26996
80015dec:	6820696e 	0x6820696e
80015df0:	76616c69 	jalx	8985b1a4 <end+0x945b1a4>
80015df4:	64207061 	0x64207061
80015df8:	20253038 	addi	a1,at,12344
80015dfc:	6c780000 	0x6c780000
80015e00:	5b253038 	0x5b253038
80015e04:	785d2066 	0x785d2066
80015e08:	72656520 	0x72656520
80015e0c:	656e7620 	0x656e7620
80015e10:	25303878 	addiu	s0,t1,14456
80015e14:	0a000000 	j	88000000 <end+0x7c00000>
80015e18:	70613270 	0x70613270
80015e1c:	61676520 	0x61676520
80015e20:	63616c6c 	0x63616c6c
80015e24:	65642077 	0x65642077
80015e28:	69746820 	0x69746820
80015e2c:	696e7661 	0x696e7661
80015e30:	6c696420 	0x6c696420
80015e34:	70613a20 	0x70613a20
80015e38:	25780000 	addiu	t8,t3,0
80015e3c:	6920616d 	0x6920616d
80015e40:	206b696c 	addi	t3,v1,26988
80015e44:	6c656420 	0x6c656420
80015e48:	2e2e2e20 	sltiu	t6,s1,11808
80015e4c:	0a000000 	j	88000000 <end+0x7c00000>
80015e50:	61737365 	0x61737365
80015e54:	7274696f 	0x7274696f
80015e58:	6e206661 	0x6e206661
80015e5c:	696c6564 	0x696c6564
80015e60:	3a202573 	xori	zero,s1,0x2573
80015e64:	00000000 	nop
80015e68:	656e765f 	0x656e765f
80015e6c:	616c6c6f 	0x616c6c6f
80015e70:	63282670 	0x63282670
80015e74:	65302c20 	0x65302c20
80015e78:	3029203d 	andi	t1,at,0x203d
80015e7c:	3d203000 	0x3d203000
80015e80:	656e765f 	0x656e765f
80015e84:	616c6c6f 	0x616c6c6f
80015e88:	63282670 	0x63282670
80015e8c:	65312c20 	0x65312c20
80015e90:	3029203d 	andi	t1,at,0x203d
80015e94:	3d203000 	0x3d203000
80015e98:	656e765f 	0x656e765f
80015e9c:	616c6c6f 	0x616c6c6f
80015ea0:	63282670 	0x63282670
80015ea4:	65322c20 	0x65322c20
80015ea8:	3029203d 	andi	t1,at,0x203d
80015eac:	3d203000 	0x3d203000
80015eb0:	70653120 	0x70653120
80015eb4:	26262070 	addiu	a2,s1,8304
80015eb8:	65312021 	0x65312021
80015ebc:	3d207065 	0x3d207065
80015ec0:	30000000 	andi	zero,zero,0x0
80015ec4:	70653220 	0x70653220
80015ec8:	26262070 	addiu	a2,s1,8304
80015ecc:	65322021 	0x65322021
80015ed0:	3d207065 	0x3d207065
80015ed4:	31202626 	andi	zero,t1,0x2626
80015ed8:	20706532 	addi	s0,v1,25906
80015edc:	20213d20 	addi	at,at,15648
80015ee0:	70653000 	0x70653000
80015ee4:	656e765f 	0x656e765f
80015ee8:	616c6c6f 	0x616c6c6f
80015eec:	63282670 	0x63282670
80015ef0:	652c2030 	0x652c2030
80015ef4:	29203d3d 	slti	zero,t1,15677
80015ef8:	202d455f 	addi	t5,at,17759
80015efc:	4e4f5f46 	c3	0x4f5f46
80015f00:	5245455f 	0x5245455f
80015f04:	454e5600 	0x454e5600
80015f08:	7065302d 	0x7065302d
80015f0c:	3e656e76 	0x3e656e76
80015f10:	5f696420 	0x5f696420
80015f14:	25640a00 	addiu	a0,t3,2560
80015f18:	7065312d 	0x7065312d
80015f1c:	3e656e76 	0x3e656e76
80015f20:	5f696420 	0x5f696420
80015f24:	25640a00 	addiu	a0,t3,2560
80015f28:	7065322d 	0x7065322d
80015f2c:	3e656e76 	0x3e656e76
80015f30:	5f696420 	0x5f696420
80015f34:	25640a00 	addiu	a0,t3,2560
80015f38:	7065302d 	0x7065302d
80015f3c:	3e656e76 	0x3e656e76
80015f40:	5f696420 	0x5f696420
80015f44:	3d3d2031 	0x3d3d2031
80015f48:	30323400 	andi	s2,at,0x3400
80015f4c:	7065312d 	0x7065312d
80015f50:	3e656e76 	0x3e656e76
80015f54:	5f696420 	0x5f696420
80015f58:	3d3d2033 	0x3d3d2033
80015f5c:	30373300 	andi	s7,at,0x3300
80015f60:	7065322d 	0x7065322d
80015f64:	3e656e76 	0x3e656e76
80015f68:	5f696420 	0x5f696420
80015f6c:	3d3d2035 	0x3d3d2035
80015f70:	31323200 	andi	s2,t1,0x3200
80015f74:	656e765f 	0x656e765f
80015f78:	696e6974 	0x696e6974
80015f7c:	28292077 	slti	t1,at,8311
80015f80:	6f726b20 	0x6f726b20
80015f84:	77656c6c 	jalx	8d95b1b0 <end+0xd55b1b0>
80015f88:	210a0000 	addi	t2,t0,0
80015f8c:	7065203d 	0x7065203d
80015f90:	3d203020 	0x3d203020
80015f94:	26262072 	addiu	a2,s1,8306
80015f98:	65203d3d 	0x65203d3d
80015f9c:	202d455f 	addi	t5,at,17759
80015fa0:	4241445f 	c0	0x41445f
80015fa4:	454e5600 	0x454e5600
80015fa8:	70652d3e 	0x70652d3e
80015fac:	656e765f 	0x656e765f
80015fb0:	6964203d 	0x6964203d
80015fb4:	3d207065 	0x3d207065
80015fb8:	322d3e65 	andi	t5,s1,0x3e65
80015fbc:	6e765f69 	0x6e765f69
80015fc0:	64202626 	0x64202626
80015fc4:	7265203d 	0x7265203d
80015fc8:	3d203000 	0x3d203000
80015fcc:	656e7669 	0x656e7669
80015fd0:	6432656e 	0x6432656e
80015fd4:	76282920 	jalx	88a0a480 <end+0x860a480>
80015fd8:	776f726b 	jalx	8dbdc9ac <end+0xd7dc9ac>
80015fdc:	2077656c 	addi	s7,v1,25964
80015fe0:	6c210a00 	0x6c210a00
80015fe4:	7065312d 	0x7065312d
80015fe8:	3e656e76 	0x3e656e76
80015fec:	5f706764 	0x5f706764
80015ff0:	69722025 	0x69722025
80015ff4:	780a0000 	0x780a0000
80015ff8:	7065312d 	0x7065312d
80015ffc:	3e656e76 	0x3e656e76
80016000:	5f637233 	0x5f637233
80016004:	2025780a 	addi	a1,at,30730
80016008:	00000000 	nop
8001600c:	7065322d 	0x7065322d
80016010:	3e656e76 	0x3e656e76
80016014:	5f706764 	0x5f706764
80016018:	69725b50 	0x69725b50
8001601c:	44582855 	0x44582855
80016020:	544f5029 	0x544f5029
80016024:	5d203d3d 	0x5d203d3d
80016028:	20626f6f 	addi	v0,v1,28527
8001602c:	745f7067 	jalx	817dc19c <end+0x13dc19c>
80016030:	6469725b 	0x6469725b
80016034:	50445828 	0x50445828
80016038:	55544f50 	0x55544f50
8001603c:	295d0000 	slti	sp,t2,0
80016040:	7065322d 	0x7065322d
80016044:	3e656e76 	0x3e656e76
80016048:	5f706764 	0x5f706764
8001604c:	69725b50 	0x69725b50
80016050:	44582855 	0x44582855
80016054:	544f5029 	0x544f5029
80016058:	2d315d20 	sltiu	s1,t1,23840
8001605c:	3d3d2030 	0x3d3d2030
80016060:	00000000 	nop
80016064:	656e765f 	0x656e765f
80016068:	73657475 	0x73657475
8001606c:	705f766d 	0x705f766d
80016070:	20706173 	addi	s0,v1,24947
80016074:	73656421 	0x73656421
80016078:	0a000000 	j	88000000 <end+0x7c00000>
8001607c:	7065322d 	0x7065322d
80016080:	3e656e76 	0x3e656e76
80016084:	5f74662e 	0x5f74662e
80016088:	6370305f 	0x6370305f
8001608c:	73746174 	0x73746174
80016090:	7573203d 	jalx	85cc80f4 <end+0x58c80f4>
80016094:	3d203078 	0x3d203078
80016098:	31303030 	andi	s0,t1,0x3030
8001609c:	31303034 	andi	s0,t1,0x3034
800160a0:	00000000 	nop
800160a4:	70653260 	0x70653260
800160a8:	73207370 	0x73207370
800160ac:	20726567 	addi	s2,v1,25959
800160b0:	69737465 	0x69737465
800160b4:	72202578 	0x72202578
800160b8:	0a000000 	j	88000000 <end+0x7c00000>
800160bc:	656e765f 	0x656e765f
800160c0:	63686563 	0x63686563
800160c4:	6b282920 	0x6b282920
800160c8:	73756363 	0x73756363
800160cc:	65656465 	0x65656465
800160d0:	64210a00 	0x64210a00
800160d4:	656e7669 	0x656e7669
800160d8:	6432656e 	0x6432656e
800160dc:	76283130 	jalx	88a0c4c0 <end+0x860c4c0>
800160e0:	32342c20 	andi	s4,s1,0x2c20
800160e4:	26652c20 	addiu	a1,s3,11296
800160e8:	3029203d 	andi	t1,at,0x203d
800160ec:	3d203000 	0x3d203000
800160f0:	70676469 	0x70676469
800160f4:	725f7761 	0x725f7761
800160f8:	6c6b2865 	0x6c6b2865
800160fc:	2d3e656e 	sltiu	s8,t1,25966
80016100:	765f7067 	jalx	897dc19c <end+0x93dc19c>
80016104:	6469722c 	0x6469722c
80016108:	20307830 	addi	s0,at,30768
8001610c:	30343031 	andi	s4,at,0x3031
80016110:	3030302c 	andi	s0,at,0x302c
80016114:	20302c20 	addi	s0,at,11296
80016118:	26707465 	addiu	s0,s3,29797
8001611c:	29203d3d 	slti	zero,t1,15677
80016120:	20300000 	addi	s0,at,0
80016124:	2a282869 	slti	t0,s1,10345
80016128:	6e74202a 	0x6e74202a
8001612c:	294b4144 	slti	t3,t2,16708
80016130:	44522850 	0x44522850
80016134:	54455f41 	0x54455f41
80016138:	44445228 	0x44445228
8001613c:	2a707465 	slti	s0,s3,29797
80016140:	2929202b 	slti	t1,t1,8235
80016144:	20307863 	addi	s0,at,30819
80016148:	29203d3d 	slti	zero,t1,15677
8001614c:	20307838 	addi	s0,at,30776
80016150:	66613430 	0x66613430
80016154:	30303000 	andi	s0,at,0x3000
80016158:	2a282869 	slti	t0,s1,10345
8001615c:	6e74202a 	0x6e74202a
80016160:	294b4144 	slti	t3,t2,16708
80016164:	44522850 	0x44522850
80016168:	54455f41 	0x54455f41
8001616c:	44445228 	0x44445228
80016170:	2a707465 	slti	s0,s3,29797
80016174:	2929202b 	slti	t1,t1,8235
80016178:	20313032 	addi	s1,at,12338
8001617c:	3329203d 	andi	t1,t9,0x203d
80016180:	3d203078 	0x3d203078
80016184:	32363330 	andi	s6,s1,0x3330
80016188:	30303031 	andi	s0,at,0x3031
8001618c:	00000000 	nop
80016190:	70676469 	0x70676469
80016194:	725f7761 	0x725f7761
80016198:	6c6b2865 	0x6c6b2865
8001619c:	2d3e656e 	sltiu	s8,t1,25966
800161a0:	765f7067 	jalx	897dc19c <end+0x93dc19c>
800161a4:	6469722c 	0x6469722c
800161a8:	20307830 	addi	s0,at,30768
800161ac:	30343032 	andi	s4,at,0x3032
800161b0:	3030302c 	andi	s0,at,0x302c
800161b4:	20302c20 	addi	s0,at,11296
800161b8:	26707465 	addiu	s0,s3,29797
800161bc:	29203d3d 	slti	zero,t1,15677
800161c0:	20300000 	addi	s0,at,0
800161c4:	2a282869 	slti	t0,s1,10345
800161c8:	6e74202a 	0x6e74202a
800161cc:	294b4144 	slti	t3,t2,16708
800161d0:	44522850 	0x44522850
800161d4:	54455f41 	0x54455f41
800161d8:	44445228 	0x44445228
800161dc:	2a707465 	slti	s0,s3,29797
800161e0:	29292920 	slti	t1,t1,10528
800161e4:	3d3d2030 	0x3d3d2030
800161e8:	78313038 	0x78313038
800161ec:	30303030 	andi	s0,at,0x3030
800161f0:	34000000 	li	zero,0x0
800161f4:	2a282869 	slti	t0,s1,10345
800161f8:	6e74202a 	0x6e74202a
800161fc:	294b4144 	slti	t3,t2,16708
80016200:	44522850 	0x44522850
80016204:	54455f41 	0x54455f41
80016208:	44445228 	0x44445228
8001620c:	2a707465 	slti	s0,s3,29797
80016210:	2929202b 	slti	t1,t1,8235
80016214:	20313032 	addi	s1,at,12338
80016218:	3329203d 	andi	t1,t9,0x203d
8001621c:	3d203078 	0x3d203078
80016220:	30303830 	andi	s0,at,0x3830
80016224:	31383231 	andi	t8,t1,0x3231
80016228:	00000000 	nop
8001622c:	70676469 	0x70676469
80016230:	725f7761 	0x725f7761
80016234:	6c6b2865 	0x6c6b2865
80016238:	2d3e656e 	sltiu	s8,t1,25966
8001623c:	765f7067 	jalx	897dc19c <end+0x93dc19c>
80016240:	6469722c 	0x6469722c
80016244:	20307830 	addi	s0,at,30768
80016248:	30343033 	andi	s4,at,0x3033
8001624c:	3030302c 	andi	s0,at,0x302c
80016250:	20302c20 	addi	s0,at,11296
80016254:	26707465 	addiu	s0,s3,29797
80016258:	29203d3d 	slti	zero,t1,15677
8001625c:	20300000 	addi	s0,at,0
80016260:	2a282869 	slti	t0,s1,10345
80016264:	6e74202a 	0x6e74202a
80016268:	294b4144 	slti	t3,t2,16708
8001626c:	44522850 	0x44522850
80016270:	54455f41 	0x54455f41
80016274:	44445228 	0x44445228
80016278:	2a707465 	slti	s0,s3,29797
8001627c:	29292920 	slti	t1,t1,10528
80016280:	3d3d2030 	0x3d3d2030
80016284:	78383061 	0x78383061
80016288:	32303030 	andi	s0,s1,0x3030
8001628c:	30000000 	andi	zero,zero,0x0
80016290:	2a282869 	slti	t0,s1,10345
80016294:	6e74202a 	0x6e74202a
80016298:	294b4144 	slti	t3,t2,16708
8001629c:	44522850 	0x44522850
800162a0:	54455f41 	0x54455f41
800162a4:	44445228 	0x44445228
800162a8:	2a707465 	slti	s0,s3,29797
800162ac:	2929202b 	slti	t1,t1,8235
800162b0:	20313032 	addi	s1,at,12338
800162b4:	3329203d 	andi	t1,t9,0x203d
800162b8:	3d203078 	0x3d203078
800162bc:	32343036 	andi	s4,s1,0x3036
800162c0:	30363034 	andi	s6,at,0x3034
800162c4:	00000000 	nop
800162c8:	70676469 	0x70676469
800162cc:	725f7761 	0x725f7761
800162d0:	6c6b2865 	0x6c6b2865
800162d4:	2d3e656e 	sltiu	s8,t1,25966
800162d8:	765f7067 	jalx	897dc19c <end+0x93dc19c>
800162dc:	6469722c 	0x6469722c
800162e0:	20307830 	addi	s0,at,30768
800162e4:	30343034 	andi	s4,at,0x3034
800162e8:	3030302c 	andi	s0,at,0x302c
800162ec:	20302c20 	addi	s0,at,11296
800162f0:	26707465 	addiu	s0,s3,29797
800162f4:	29203d3d 	slti	zero,t1,15677
800162f8:	20300000 	addi	s0,at,0
800162fc:	2a282869 	slti	t0,s1,10345
80016300:	6e74202a 	0x6e74202a
80016304:	294b4144 	slti	t3,t2,16708
80016308:	44522850 	0x44522850
8001630c:	54455f41 	0x54455f41
80016310:	44445228 	0x44445228
80016314:	2a707465 	slti	s0,s3,29797
80016318:	29292920 	slti	t1,t1,10528
8001631c:	3d3d2030 	0x3d3d2030
80016320:	78303434 	0x78303434
80016324:	30303034 	andi	s0,at,0x3034
80016328:	33000000 	andi	zero,t8,0x0
8001632c:	2a282869 	slti	t0,s1,10345
80016330:	6e74202a 	0x6e74202a
80016334:	294b4144 	slti	t3,t2,16708
80016338:	44522850 	0x44522850
8001633c:	54455f41 	0x54455f41
80016340:	44445228 	0x44445228
80016344:	2a707465 	slti	s0,s3,29797
80016348:	2929202b 	slti	t1,t1,8235
8001634c:	20313032 	addi	s1,at,12338
80016350:	3329203d 	andi	t1,t9,0x203d
80016354:	3d203078 	0x3d203078
80016358:	30303030 	andi	s0,at,0x3030
8001635c:	30303030 	andi	s0,at,0x3030
80016360:	00000000 	nop
80016364:	70676469 	0x70676469
80016368:	725f7761 	0x725f7761
8001636c:	6c6b2865 	0x6c6b2865
80016370:	2d3e656e 	sltiu	s8,t1,25966
80016374:	765f7067 	jalx	897dc19c <end+0x93dc19c>
80016378:	6469722c 	0x6469722c
8001637c:	20307830 	addi	s0,at,30768
80016380:	30343035 	andi	s4,at,0x3035
80016384:	3030302c 	andi	s0,at,0x302c
80016388:	20302c20 	addi	s0,at,11296
8001638c:	26707465 	addiu	s0,s3,29797
80016390:	29203d3d 	slti	zero,t1,15677
80016394:	20300000 	addi	s0,at,0
80016398:	2a282869 	slti	t0,s1,10345
8001639c:	6e74202a 	0x6e74202a
800163a0:	294b4144 	slti	t3,t2,16708
800163a4:	44522850 	0x44522850
800163a8:	54455f41 	0x54455f41
800163ac:	44445228 	0x44445228
800163b0:	2a707465 	slti	s0,s3,29797
800163b4:	29292920 	slti	t1,t1,10528
800163b8:	3d3d2030 	0x3d3d2030
800163bc:	78303030 	0x78303030
800163c0:	30303030 	andi	s0,at,0x3030
800163c4:	30000000 	andi	zero,zero,0x0
800163c8:	70676469 	0x70676469
800163cc:	725f7761 	0x725f7761
800163d0:	6c6b2865 	0x6c6b2865
800163d4:	2d3e656e 	sltiu	s8,t1,25966
800163d8:	765f7067 	jalx	897dc19c <end+0x93dc19c>
800163dc:	6469722c 	0x6469722c
800163e0:	20307830 	addi	s0,at,30768
800163e4:	30343036 	andi	s4,at,0x3036
800163e8:	3030302c 	andi	s0,at,0x302c
800163ec:	20302c20 	addi	s0,at,11296
800163f0:	26707465 	addiu	s0,s3,29797
800163f4:	29203d3d 	slti	zero,t1,15677
800163f8:	20300000 	addi	s0,at,0
800163fc:	70676469 	0x70676469
80016400:	725f7761 	0x725f7761
80016404:	6c6b2865 	0x6c6b2865
80016408:	2d3e656e 	sltiu	s8,t1,25966
8001640c:	765f7067 	jalx	897dc19c <end+0x93dc19c>
80016410:	6469722c 	0x6469722c
80016414:	20307830 	addi	s0,at,30768
80016418:	30343037 	andi	s4,at,0x3037
8001641c:	3030302c 	andi	s0,at,0x302c
80016420:	20302c20 	addi	s0,at,11296
80016424:	26707465 	addiu	s0,s3,29797
80016428:	29203d3d 	slti	zero,t1,15677
8001642c:	20300000 	addi	s0,at,0
80016430:	2a282869 	slti	t0,s1,10345
80016434:	6e74202a 	0x6e74202a
80016438:	294b4144 	slti	t3,t2,16708
8001643c:	44522850 	0x44522850
80016440:	54455f41 	0x54455f41
80016444:	44445228 	0x44445228
80016448:	2a707465 	slti	s0,s3,29797
8001644c:	29292920 	slti	t1,t1,10528
80016450:	3d3d2030 	0x3d3d2030
80016454:	78376634 	0x78376634
80016458:	30303030 	andi	s0,at,0x3030
8001645c:	30000000 	andi	zero,zero,0x0
80016460:	70676469 	0x70676469
80016464:	725f7761 	0x725f7761
80016468:	6c6b2865 	0x6c6b2865
8001646c:	2d3e656e 	sltiu	s8,t1,25966
80016470:	765f7067 	jalx	897dc19c <end+0x93dc19c>
80016474:	6469722c 	0x6469722c
80016478:	20307830 	addi	s0,at,30768
8001647c:	30343038 	andi	s4,at,0x3038
80016480:	3030302c 	andi	s0,at,0x302c
80016484:	20302c20 	addi	s0,at,11296
80016488:	26707465 	addiu	s0,s3,29797
8001648c:	29203d3d 	slti	zero,t1,15677
80016490:	20300000 	addi	s0,at,0
80016494:	2a282869 	slti	t0,s1,10345
80016498:	6e74202a 	0x6e74202a
8001649c:	294b4144 	slti	t3,t2,16708
800164a0:	44522850 	0x44522850
800164a4:	54455f41 	0x54455f41
800164a8:	44445228 	0x44445228
800164ac:	2a707465 	slti	s0,s3,29797
800164b0:	29292920 	slti	t1,t1,10528
800164b4:	3d3d2030 	0x3d3d2030
800164b8:	78303030 	0x78303030
800164bc:	30666666 	andi	a2,v1,0x6666
800164c0:	65000000 	0x65000000
800164c4:	70676469 	0x70676469
800164c8:	725f7761 	0x725f7761
800164cc:	6c6b2865 	0x6c6b2865
800164d0:	2d3e656e 	sltiu	s8,t1,25966
800164d4:	765f7067 	jalx	897dc19c <end+0x93dc19c>
800164d8:	6469722c 	0x6469722c
800164dc:	20307830 	addi	s0,at,30768
800164e0:	30343039 	andi	s4,at,0x3039
800164e4:	3030302c 	andi	s0,at,0x302c
800164e8:	20302c20 	addi	s0,at,11296
800164ec:	26707465 	addiu	s0,s3,29797
800164f0:	29203d3d 	slti	zero,t1,15677
800164f4:	20300000 	addi	s0,at,0
800164f8:	2a282869 	slti	t0,s1,10345
800164fc:	6e74202a 	0x6e74202a
80016500:	294b4144 	slti	t3,t2,16708
80016504:	44522850 	0x44522850
80016508:	54455f41 	0x54455f41
8001650c:	44445228 	0x44445228
80016510:	2a707465 	slti	s0,s3,29797
80016514:	2929202b 	slti	t1,t1,8235
80016518:	20307832 	addi	s0,at,30770
8001651c:	61612920 	0x61612920
80016520:	3d3d2030 	0x3d3d2030
80016524:	78303034 	0x78303034
80016528:	30393966 	andi	t9,at,0x3966
8001652c:	63000000 	0x63000000
80016530:	74657874 	jalx	8195e1d0 <end+0x155e1d0>
80016534:	20262064 	addi	a2,at,8292
80016538:	61746120 	0x61746120
8001653c:	7365676d 	0x7365676d
80016540:	656e7420 	0x656e7420
80016544:	6c6f6164 	0x6c6f6164
80016548:	20726967 	addi	s2,v1,26983
8001654c:	6874210a 	0x6874210a
80016550:	00000000 	nop
80016554:	2a282869 	slti	t0,s1,10345
80016558:	6e74202a 	0x6e74202a
8001655c:	294b4144 	slti	t3,t2,16708
80016560:	44522850 	0x44522850
80016564:	54455f41 	0x54455f41
80016568:	44445228 	0x44445228
8001656c:	2a707465 	slti	s0,s3,29797
80016570:	2929202b 	slti	t1,t1,8235
80016574:	20307832 	addi	s0,at,30770
80016578:	62372920 	0x62372920
8001657c:	3d3d2030 	0x3d3d2030
80016580:	78303030 	0x78303030
80016584:	30303030 	andi	s0,at,0x3030
80016588:	30000000 	andi	zero,zero,0x0
8001658c:	70676469 	0x70676469
80016590:	725f7761 	0x725f7761
80016594:	6c6b2865 	0x6c6b2865
80016598:	2d3e656e 	sltiu	s8,t1,25966
8001659c:	765f7067 	jalx	897dc19c <end+0x93dc19c>
800165a0:	6469722c 	0x6469722c
800165a4:	20307830 	addi	s0,at,30768
800165a8:	30343061 	andi	s4,at,0x3061
800165ac:	3030302c 	andi	s0,at,0x302c
800165b0:	20302c20 	addi	s0,at,11296
800165b4:	26707465 	addiu	s0,s3,29797
800165b8:	29203d3d 	slti	zero,t1,15677
800165bc:	20300000 	addi	s0,at,0
800165c0:	2a282869 	slti	t0,s1,10345
800165c4:	6e74202a 	0x6e74202a
800165c8:	294b4144 	slti	t3,t2,16708
800165cc:	44522850 	0x44522850
800165d0:	54455f41 	0x54455f41
800165d4:	44445228 	0x44445228
800165d8:	2a707465 	slti	s0,s3,29797
800165dc:	2929202b 	slti	t1,t1,8235
800165e0:	20307832 	addi	s0,at,30770
800165e4:	61632920 	0x61632920
800165e8:	3d3d2030 	0x3d3d2030
800165ec:	78303030 	0x78303030
800165f0:	30303030 	andi	s0,at,0x3030
800165f4:	30000000 	andi	zero,zero,0x0
800165f8:	2a282869 	slti	t0,s1,10345
800165fc:	6e74202a 	0x6e74202a
80016600:	294b4144 	slti	t3,t2,16708
80016604:	44522850 	0x44522850
80016608:	54455f41 	0x54455f41
8001660c:	44445228 	0x44445228
80016610:	2a707465 	slti	s0,s3,29797
80016614:	2929202b 	slti	t1,t1,8235
80016618:	20307832 	addi	s0,at,30770
8001661c:	61642920 	0x61642920
80016620:	3d3d2030 	0x3d3d2030
80016624:	78303030 	0x78303030
80016628:	30303030 	andi	s0,at,0x3030
8001662c:	30000000 	andi	zero,zero,0x0
80016630:	62737320 	0x62737320
80016634:	7365676d 	0x7365676d
80016638:	656e7420 	0x656e7420
8001663c:	6c6f6164 	0x6c6f6164
80016640:	20726967 	addi	s2,v1,26983
80016644:	6874210a 	0x6874210a
80016648:	00000000 	nop
8001664c:	6c6f6164 	0x6c6f6164
80016650:	5f69636f 	0x5f69636f
80016654:	64655f63 	0x64655f63
80016658:	6865636b 	0x6865636b
8001665c:	28292073 	slti	t1,at,8307
80016660:	75636365 	jalx	858d8d94 <end+0x54d8d94>
80016664:	65646564 	0x65646564
80016668:	210a0000 	addi	t2,t0,0
8001666c:	70616e69 	0x70616e69
80016670:	63206174 	0x63206174
80016674:	2025733a 	addi	a1,at,29498
80016678:	25643a20 	addiu	a0,t3,14880
8001667c:	00000000 	nop
80016680:	50687973 	0x50687973
80016684:	6963616c 	0x6963616c
80016688:	206d656d 	addi	t5,v1,25965
8001668c:	6f72793a 	0x6f72793a
80016690:	2025644b 	addi	a1,at,25675
80016694:	20617661 	addi	at,v1,30305
80016698:	696c6162 	0x696c6162
8001669c:	6c652c20 	0x6c652c20
800166a0:	00000000 	nop
800166a4:	62617365 	0x62617365
800166a8:	203d2025 	addi	sp,at,8229
800166ac:	644b2c20 	0x644b2c20
800166b0:	65787465 	0x65787465
800166b4:	6e646564 	0x6e646564
800166b8:	203d2025 	addi	sp,at,8229
800166bc:	644b0a00 	0x644b0a00
800166c0:	706d6170 	0x706d6170
800166c4:	2e630000 	sltiu	v1,s3,0
800166c8:	50414444 	0x50414444
800166cc:	52206361 	0x52206361
800166d0:	6c6c6564 	0x6c6c6564
800166d4:	20776974 	addi	s7,v1,26996
800166d8:	6820696e 	0x6820696e
800166dc:	76616c69 	jalx	8985b1a4 <end+0x945b1a4>
800166e0:	64206b76 	0x64206b76
800166e4:	61202530 	0x61202530
800166e8:	386c7800 	xori	t4,v1,0x7800
800166ec:	6f757420 	0x6f757420
800166f0:	6f66206d 	0x6f66206d
800166f4:	656d6f72 	0x656d6f72
800166f8:	790a0000 	0x790a0000
800166fc:	746f206d 	jalx	81bc81b4 <end+0x17c81b4>
80016700:	656d6f72 	0x656d6f72
80016704:	79202578 	0x79202578
80016708:	20666f72 	addi	a2,v1,28530
8001670c:	20737472 	addi	s3,v1,29810
80016710:	75637420 	jalx	858dd080 <end+0x54dd080>
80016714:	70616765 	0x70616765
80016718:	20646972 	addi	a0,v1,26994
8001671c:	6563746f 	0x6563746f
80016720:	72792e0a 	0x72792e0a
80016724:	00000000 	nop
80016728:	746f206d 	jalx	81bc81b4 <end+0x17c81b4>
8001672c:	656d6f72 	0x656d6f72
80016730:	79202578 	0x79202578
80016734:	20666f72 	addi	a2,v1,28530
80016738:	20737472 	addi	s3,v1,29810
8001673c:	75637420 	jalx	858dd080 <end+0x54dd080>
80016740:	50616765 	0x50616765
80016744:	732e0a00 	0x732e0a00
80016748:	706d6170 	0x706d6170
8001674c:	2e633a09 	sltiu	v1,s3,14857
80016750:	206d6970 	addi	t5,v1,26992
80016754:	7320766d 	0x7320766d
80016758:	20696e69 	addi	t1,v1,28265
8001675c:	74207375 	jalx	8081cdd4 <end+0x41cdd4>
80016760:	63636573 	0x63636573
80016764:	730a0000 	0x730a0000
80016768:	70616765 	0x70616765
8001676c:	5f616c6c 	0x5f616c6c
80016770:	6f632826 	0x6f632826
80016774:	70703029 	0x70703029
80016778:	203d3d20 	addi	sp,at,15648
8001677c:	30000000 	andi	zero,zero,0x0
80016780:	70616765 	0x70616765
80016784:	5f616c6c 	0x5f616c6c
80016788:	6f632826 	0x6f632826
8001678c:	70703129 	0x70703129
80016790:	203d3d20 	addi	sp,at,15648
80016794:	30000000 	andi	zero,zero,0x0
80016798:	70616765 	0x70616765
8001679c:	5f616c6c 	0x5f616c6c
800167a0:	6f632826 	0x6f632826
800167a4:	70703229 	0x70703229
800167a8:	203d3d20 	addi	sp,at,15648
800167ac:	30000000 	andi	zero,zero,0x0
800167b0:	70703120 	0x70703120
800167b4:	26262070 	addiu	a2,s1,8304
800167b8:	70312021 	0x70312021
800167bc:	3d207070 	0x3d207070
800167c0:	30000000 	andi	zero,zero,0x0
800167c4:	70703220 	0x70703220
800167c8:	26262070 	addiu	a2,s1,8304
800167cc:	70322021 	0x70322021
800167d0:	3d207070 	0x3d207070
800167d4:	31202626 	andi	zero,t1,0x2626
800167d8:	20707032 	addi	s0,v1,28722
800167dc:	20213d20 	addi	at,at,15648
800167e0:	70703000 	0x70703000
800167e4:	70616765 	0x70616765
800167e8:	5f616c6c 	0x5f616c6c
800167ec:	6f632826 	0x6f632826
800167f0:	70702920 	0x70702920
800167f4:	3d3d202d 	0x3d3d202d
800167f8:	455f4e4f 	0x455f4e4f
800167fc:	5f4d454d 	0x5f4d454d
80016800:	00000000 	nop
80016804:	54686520 	0x54686520
80016808:	6e756d62 	0x6e756d62
8001680c:	65722069 	0x65722069
80016810:	6e206164 	0x6e206164
80016814:	64726573 	0x64726573
80016818:	73207465 	0x73207465
8001681c:	6d702069 	0x6d702069
80016820:	73202564 	0x73202564
80016824:	0a000000 	j	88000000 <end+0x7c00000>
80016828:	74656d70 	jalx	8195b5c0 <end+0x155b5c0>
8001682c:	203d3d20 	addi	sp,at,15648
80016830:	28696e74 	slti	t1,v1,28276
80016834:	2a297061 	slti	t1,s1,28769
80016838:	6765326b 	0x6765326b
8001683c:	76612870 	jalx	8984a1c0 <end+0x944a1c0>
80016840:	70302900 	0x70302900
80016844:	2a74656d 	slti	s4,s3,25965
80016848:	70203d3d 	0x70203d3d
8001684c:	20300000 	addi	s0,at,0
80016850:	70213d4e 	0x70213d4e
80016854:	554c4c00 	0x554c4c00
80016858:	702d3e70 	0x702d3e70
8001685c:	705f7265 	0x705f7265
80016860:	663d3d61 	0x663d3d61
80016864:	6e737765 	0x6e737765
80016868:	72315b6a 	0x72315b6a
8001686c:	2b2b5d00 	slti	t3,t9,23808
80016870:	702d3e70 	0x702d3e70
80016874:	705f7265 	0x705f7265
80016878:	663d3d61 	0x663d3d61
8001687c:	6e737765 	0x6e737765
80016880:	72325b6a 	0x72325b6a
80016884:	2b2b5d00 	slti	t3,t9,23808
80016888:	70687973 	0x70687973
8001688c:	6963616c 	0x6963616c
80016890:	5f6d656d 	0x5f6d656d
80016894:	6f72795f 	0x6f72795f
80016898:	6d616e61 	0x6d616e61
8001689c:	67655f63 	0x67655f63
800168a0:	6865636b 	0x6865636b
800168a4:	28292073 	slti	t1,at,8307
800168a8:	75636365 	jalx	858d8d94 <end+0x54d8d94>
800168ac:	65646564 	0x65646564
800168b0:	0a000000 	j	88000000 <end+0x7c00000>
800168b4:	70616765 	0x70616765
800168b8:	5f696e73 	0x5f696e73
800168bc:	65727428 	0x65727428
800168c0:	626f6f74 	0x626f6f74
800168c4:	5f706764 	0x5f706764
800168c8:	69722c20 	0x69722c20
800168cc:	7070312c 	0x7070312c
800168d0:	20307830 	addi	s0,at,30768
800168d4:	2c203029 	sltiu	zero,at,12329
800168d8:	203c2030 	addi	gp,at,8240
800168dc:	00000000 	nop
800168e0:	70616765 	0x70616765
800168e4:	5f696e73 	0x5f696e73
800168e8:	65727428 	0x65727428
800168ec:	626f6f74 	0x626f6f74
800168f0:	5f706764 	0x5f706764
800168f4:	69722c20 	0x69722c20
800168f8:	7070312c 	0x7070312c
800168fc:	20307830 	addi	s0,at,30768
80016900:	2c203029 	sltiu	zero,at,12329
80016904:	203d3d20 	addi	sp,at,15648
80016908:	30000000 	andi	zero,zero,0x0
8001690c:	5054455f 	0x5054455f
80016910:	41444452 	0x41444452
80016914:	28626f6f 	slti	v0,v1,28527
80016918:	745f7067 	jalx	817dc19c <end+0x13dc19c>
8001691c:	6469725b 	0x6469725b
80016920:	305d2920 	andi	sp,v0,0x2920
80016924:	3d3d2070 	0x3d3d2070
80016928:	61676532 	0x61676532
8001692c:	70612870 	0x70612870
80016930:	70302900 	0x70302900
80016934:	76613270 	jalx	8984c9c0 <end+0x944c9c0>
80016938:	6128626f 	0x6128626f
8001693c:	6f745f70 	0x6f745f70
80016940:	67646972 	0x67646972
80016944:	2c203078 	sltiu	zero,at,12408
80016948:	30292069 	andi	t1,at,0x2069
8001694c:	73202578 	0x73202578
80016950:	0a000000 	j	88000000 <end+0x7c00000>
80016954:	70616765 	0x70616765
80016958:	32706128 	andi	s0,s3,0x6128
8001695c:	70703129 	0x70703129
80016960:	20697320 	addi	t1,v1,29472
80016964:	25780a00 	addiu	t8,t3,2560
80016968:	76613270 	jalx	8984c9c0 <end+0x944c9c0>
8001696c:	6128626f 	0x6128626f
80016970:	6f745f70 	0x6f745f70
80016974:	67646972 	0x67646972
80016978:	2c203078 	sltiu	zero,at,12408
8001697c:	3029203d 	andi	t1,at,0x203d
80016980:	3d207061 	0x3d207061
80016984:	67653270 	0x67653270
80016988:	61287070 	0x61287070
8001698c:	31290000 	andi	t1,t1,0x0
80016990:	7070312d 	0x7070312d
80016994:	3e70705f 	0x3e70705f
80016998:	72656620 	0x72656620
8001699c:	3d3d2031 	0x3d3d2031
800169a0:	00000000 	nop
800169a4:	70616765 	0x70616765
800169a8:	5f696e73 	0x5f696e73
800169ac:	65727428 	0x65727428
800169b0:	626f6f74 	0x626f6f74
800169b4:	5f706764 	0x5f706764
800169b8:	69722c20 	0x69722c20
800169bc:	7070322c 	0x7070322c
800169c0:	20425932 	addi	v0,v0,22834
800169c4:	50472c20 	0x50472c20
800169c8:	3029203d 	andi	t1,at,0x203d
800169cc:	3d203000 	0x3d203000
800169d0:	76613270 	jalx	8984c9c0 <end+0x944c9c0>
800169d4:	6128626f 	0x6128626f
800169d8:	6f745f70 	0x6f745f70
800169dc:	67646972 	0x67646972
800169e0:	2c204259 	sltiu	zero,at,16985
800169e4:	32504729 	andi	s0,s2,0x4729
800169e8:	203d3d20 	addi	sp,at,15648
800169ec:	70616765 	0x70616765
800169f0:	32706128 	andi	s0,s3,0x6128
800169f4:	70703229 	0x70703229
800169f8:	00000000 	nop
800169fc:	7070322d 	0x7070322d
80016a00:	3e70705f 	0x3e70705f
80016a04:	72656620 	0x72656620
80016a08:	3d3d2031 	0x3d3d2031
80016a0c:	00000000 	nop
80016a10:	73746172 	0x73746172
80016a14:	74207061 	jalx	8081c184 <end+0x41c184>
80016a18:	67655f69 	0x67655f69
80016a1c:	6e736572 	0x6e736572
80016a20:	740a0000 	jalx	80280000 <KERNEL_STACK+0x25ad90>
80016a24:	70616765 	0x70616765
80016a28:	5f696e73 	0x5f696e73
80016a2c:	65727428 	0x65727428
80016a30:	626f6f74 	0x626f6f74
80016a34:	5f706764 	0x5f706764
80016a38:	69722c20 	0x69722c20
80016a3c:	7070302c 	0x7070302c
80016a40:	2050444d 	addi	s0,v0,17485
80016a44:	41502c20 	0x41502c20
80016a48:	3029203c 	andi	t1,at,0x203c
80016a4c:	20300000 	addi	s0,at,0
80016a50:	70616765 	0x70616765
80016a54:	5f696e73 	0x5f696e73
80016a58:	65727428 	0x65727428
80016a5c:	626f6f74 	0x626f6f74
80016a60:	5f706764 	0x5f706764
80016a64:	69722c20 	0x69722c20
80016a68:	7070312c 	0x7070312c
80016a6c:	20425932 	addi	v0,v0,22834
80016a70:	50472c20 	0x50472c20
80016a74:	3029203d 	andi	t1,at,0x203d
80016a78:	3d203000 	0x3d203000
80016a7c:	76613270 	jalx	8984c9c0 <end+0x944c9c0>
80016a80:	6128626f 	0x6128626f
80016a84:	6f745f70 	0x6f745f70
80016a88:	67646972 	0x67646972
80016a8c:	2c204259 	sltiu	zero,at,16985
80016a90:	32504729 	andi	s0,s2,0x4729
80016a94:	203d3d20 	addi	sp,at,15648
80016a98:	70616765 	0x70616765
80016a9c:	32706128 	andi	s0,s3,0x6128
80016aa0:	70703129 	0x70703129
80016aa4:	00000000 	nop
80016aa8:	7070312d 	0x7070312d
80016aac:	3e70705f 	0x3e70705f
80016ab0:	72656620 	0x72656620
80016ab4:	3d3d2032 	0x3d3d2032
80016ab8:	00000000 	nop
80016abc:	7070322d 	0x7070322d
80016ac0:	3e70705f 	0x3e70705f
80016ac4:	72656620 	0x72656620
80016ac8:	25640a00 	addiu	a0,t3,2560
80016acc:	7070322d 	0x7070322d
80016ad0:	3e70705f 	0x3e70705f
80016ad4:	72656620 	0x72656620
80016ad8:	3d3d2030 	0x3d3d2030
80016adc:	00000000 	nop
80016ae0:	656e6420 	0x656e6420
80016ae4:	70616765 	0x70616765
80016ae8:	5f696e73 	0x5f696e73
80016aec:	6572740a 	0x6572740a
80016af0:	00000000 	nop
80016af4:	70616765 	0x70616765
80016af8:	5f616c6c 	0x5f616c6c
80016afc:	6f632826 	0x6f632826
80016b00:	70702920 	0x70702920
80016b04:	3d3d2030 	0x3d3d2030
80016b08:	20262620 	addi	a2,at,9760
80016b0c:	7070203d 	0x7070203d
80016b10:	3d207070 	0x3d207070
80016b14:	32000000 	andi	zero,s0,0x0
80016b18:	76613270 	jalx	8984c9c0 <end+0x944c9c0>
80016b1c:	6128626f 	0x6128626f
80016b20:	6f745f70 	0x6f745f70
80016b24:	67646972 	0x67646972
80016b28:	2c203078 	sltiu	zero,at,12408
80016b2c:	3029203d 	andi	t1,at,0x203d
80016b30:	3d207e30 	0x3d207e30
80016b34:	00000000 	nop
80016b38:	76613270 	jalx	8984c9c0 <end+0x944c9c0>
80016b3c:	6128626f 	0x6128626f
80016b40:	6f745f70 	0x6f745f70
80016b44:	67646972 	0x67646972
80016b48:	2c204259 	sltiu	zero,at,16985
80016b4c:	32504729 	andi	s0,s2,0x4729
80016b50:	203d3d20 	addi	sp,at,15648
80016b54:	7e300000 	0x7e300000
80016b58:	7070312d 	0x7070312d
80016b5c:	3e70705f 	0x3e70705f
80016b60:	72656620 	0x72656620
80016b64:	3d3d2030 	0x3d3d2030
80016b68:	00000000 	nop
80016b6c:	70616765 	0x70616765
80016b70:	5f616c6c 	0x5f616c6c
80016b74:	6f632826 	0x6f632826
80016b78:	70702920 	0x70702920
80016b7c:	3d3d2030 	0x3d3d2030
80016b80:	20262620 	addi	a2,at,9760
80016b84:	7070203d 	0x7070203d
80016b88:	3d207070 	0x3d207070
80016b8c:	31000000 	andi	zero,t0,0x0
80016b90:	7070302d 	0x7070302d
80016b94:	3e70705f 	0x3e70705f
80016b98:	72656620 	0x72656620
80016b9c:	3d3d2031 	0x3d3d2031
80016ba0:	00000000 	nop
80016ba4:	70616765 	0x70616765
80016ba8:	5f636865 	0x5f636865
80016bac:	636b2829 	0x636b2829
80016bb0:	20737563 	addi	s3,v1,30051
80016bb4:	63656564 	0x63656564
80016bb8:	6564210a 	0x6564210a
80016bbc:	00000000 	nop
80016bc0:	746c6220 	jalx	81b18880 <end+0x1718880>
80016bc4:	72656669 	0x72656669
80016bc8:	6c6c2061 	0x6c6c2061
80016bcc:	6e642061 	0x6e642061
80016bd0:	6c6c6f63 	0x6c6c6f63
80016bd4:	20657272 	addi	a1,v1,29298
80016bd8:	6f722100 	0x6f722100
80016bdc:	3e3e3e3e 	0x3e3e3e3e
80016be0:	3e3e3e3e 	0x3e3e3e3e
80016be4:	3e3e3e3e 	0x3e3e3e3e
80016be8:	3e3e3e3e 	0x3e3e3e3e
80016bec:	3e3e3e3e 	0x3e3e3e3e
80016bf0:	3e3e6974 	0x3e3e6974
80016bf4:	27732065 	addiu	s3,k1,8293
80016bf8:	6e762773 	0x6e762773
80016bfc:	207a6f6e 	addi	k0,v1,28526
80016c00:	65000000 	0x65000000
80016c04:	5e5e5e5e 	0x5e5e5e5e
80016c08:	5e5e544f 	0x5e5e544f
80016c0c:	4f204c4f 	c3	0x1204c4f
80016c10:	575e5e5e 	0x575e5e5e
80016c14:	5e5e5e5e 	0x5e5e5e5e
80016c18:	5e5e0000 	0x5e5e0000
80016c1c:	70616765 	0x70616765
80016c20:	6f75743a 	0x6f75743a
80016c24:	09404040 	j	85010100 <end+0x4c10100>
80016c28:	5f5f5f30 	0x5f5f5f30
80016c2c:	7825785f 	0x7825785f
80016c30:	5f5f4040 	0x5f5f4040
80016c34:	40202069 	0x40202069
80016c38:	6e732061 	0x6e732061
80016c3c:	20706167 	addi	s0,v1,24935
80016c40:	65200a00 	0x65200a00
Disassembly of section .rodata:

80016c50 <theFatalMsg>:
80016c50:	66617461 	0x66617461
80016c54:	6c206572 	0x6c206572
80016c58:	726f7220 	0x726f7220
80016c5c:	696e206c 	0x696e206c
80016c60:	705f5072 	0x705f5072
80016c64:	696e7421 	0x696e7421
	...
80016c70:	80012e34 	lb	at,11828(zero)
80016c74:	80012e3c 	lb	at,11836(zero)
80016c78:	80012e3c 	lb	at,11836(zero)
80016c7c:	80012e3c 	lb	at,11836(zero)
80016c80:	80012e3c 	lb	at,11836(zero)
80016c84:	80012e3c 	lb	at,11836(zero)
80016c88:	80012e3c 	lb	at,11836(zero)
80016c8c:	80012e3c 	lb	at,11836(zero)
80016c90:	80012e3c 	lb	at,11836(zero)
80016c94:	80012e3c 	lb	at,11836(zero)
80016c98:	80012e3c 	lb	at,11836(zero)
80016c9c:	80012e3c 	lb	at,11836(zero)
80016ca0:	80012e3c 	lb	at,11836(zero)
80016ca4:	80012e3c 	lb	at,11836(zero)
80016ca8:	80012e3c 	lb	at,11836(zero)
80016cac:	80012e3c 	lb	at,11836(zero)
80016cb0:	80012e3c 	lb	at,11836(zero)
80016cb4:	80012e3c 	lb	at,11836(zero)
80016cb8:	80012e3c 	lb	at,11836(zero)
80016cbc:	80012e3c 	lb	at,11836(zero)
80016cc0:	80012e3c 	lb	at,11836(zero)
80016cc4:	80012e3c 	lb	at,11836(zero)
80016cc8:	80012e3c 	lb	at,11836(zero)
80016ccc:	80012e3c 	lb	at,11836(zero)
80016cd0:	80012e3c 	lb	at,11836(zero)
80016cd4:	80012e3c 	lb	at,11836(zero)
80016cd8:	80012e3c 	lb	at,11836(zero)
80016cdc:	80012e3c 	lb	at,11836(zero)
80016ce0:	80012e3c 	lb	at,11836(zero)
80016ce4:	80012e3c 	lb	at,11836(zero)
80016ce8:	80012e3c 	lb	at,11836(zero)
80016cec:	80012e3c 	lb	at,11836(zero)
80016cf0:	80012e3c 	lb	at,11836(zero)
80016cf4:	80012e3c 	lb	at,11836(zero)
80016cf8:	80012e3c 	lb	at,11836(zero)
80016cfc:	80012e3c 	lb	at,11836(zero)
80016d00:	80012e3c 	lb	at,11836(zero)
80016d04:	80012e3c 	lb	at,11836(zero)
80016d08:	80012e3c 	lb	at,11836(zero)
80016d0c:	80012e3c 	lb	at,11836(zero)
80016d10:	80012e3c 	lb	at,11836(zero)
80016d14:	80012e3c 	lb	at,11836(zero)
80016d18:	80012e3c 	lb	at,11836(zero)
80016d1c:	80012e3c 	lb	at,11836(zero)
80016d20:	80012e3c 	lb	at,11836(zero)
80016d24:	80012e3c 	lb	at,11836(zero)
80016d28:	80012e3c 	lb	at,11836(zero)
80016d2c:	80012e3c 	lb	at,11836(zero)
80016d30:	80012e3c 	lb	at,11836(zero)
80016d34:	80012e3c 	lb	at,11836(zero)
80016d38:	80012e3c 	lb	at,11836(zero)
80016d3c:	80012e3c 	lb	at,11836(zero)
80016d40:	80012e3c 	lb	at,11836(zero)
80016d44:	80012e3c 	lb	at,11836(zero)
80016d48:	80012e3c 	lb	at,11836(zero)
80016d4c:	80012e3c 	lb	at,11836(zero)
80016d50:	80012e3c 	lb	at,11836(zero)
80016d54:	80012e3c 	lb	at,11836(zero)
80016d58:	80012e3c 	lb	at,11836(zero)
80016d5c:	80012e3c 	lb	at,11836(zero)
80016d60:	80012e3c 	lb	at,11836(zero)
80016d64:	80012e3c 	lb	at,11836(zero)
80016d68:	80012e3c 	lb	at,11836(zero)
80016d6c:	80012e3c 	lb	at,11836(zero)
80016d70:	80012e3c 	lb	at,11836(zero)
80016d74:	80012e3c 	lb	at,11836(zero)
80016d78:	80012e3c 	lb	at,11836(zero)
80016d7c:	80012e3c 	lb	at,11836(zero)
80016d80:	80012b44 	lb	at,11076(zero)
80016d84:	80012e3c 	lb	at,11836(zero)
80016d88:	80012e3c 	lb	at,11836(zero)
80016d8c:	80012e3c 	lb	at,11836(zero)
80016d90:	80012e3c 	lb	at,11836(zero)
80016d94:	80012e3c 	lb	at,11836(zero)
80016d98:	80012e3c 	lb	at,11836(zero)
80016d9c:	80012e3c 	lb	at,11836(zero)
80016da0:	80012e3c 	lb	at,11836(zero)
80016da4:	80012e3c 	lb	at,11836(zero)
80016da8:	80012e3c 	lb	at,11836(zero)
80016dac:	80012bc8 	lb	at,11208(zero)
80016db0:	80012e3c 	lb	at,11836(zero)
80016db4:	80012e3c 	lb	at,11836(zero)
80016db8:	80012e3c 	lb	at,11836(zero)
80016dbc:	80012e3c 	lb	at,11836(zero)
80016dc0:	80012e3c 	lb	at,11836(zero)
80016dc4:	80012c3c 	lb	at,11324(zero)
80016dc8:	80012e3c 	lb	at,11836(zero)
80016dcc:	80012e3c 	lb	at,11836(zero)
80016dd0:	80012d24 	lb	at,11556(zero)
80016dd4:	80012e3c 	lb	at,11836(zero)
80016dd8:	80012e3c 	lb	at,11836(zero)
80016ddc:	80012e3c 	lb	at,11836(zero)
80016de0:	80012e3c 	lb	at,11836(zero)
80016de4:	80012e3c 	lb	at,11836(zero)
80016de8:	80012e3c 	lb	at,11836(zero)
80016dec:	80012e3c 	lb	at,11836(zero)
80016df0:	80012e3c 	lb	at,11836(zero)
80016df4:	80012e3c 	lb	at,11836(zero)
80016df8:	80012ad0 	lb	at,10960(zero)
80016dfc:	80012d9c 	lb	at,11676(zero)
80016e00:	80012b44 	lb	at,11076(zero)
80016e04:	80012e3c 	lb	at,11836(zero)
80016e08:	80012e3c 	lb	at,11836(zero)
80016e0c:	80012e3c 	lb	at,11836(zero)
80016e10:	80012e3c 	lb	at,11836(zero)
80016e14:	80012e3c 	lb	at,11836(zero)
80016e18:	80012e3c 	lb	at,11836(zero)
80016e1c:	80012e3c 	lb	at,11836(zero)
80016e20:	80012e3c 	lb	at,11836(zero)
80016e24:	80012e3c 	lb	at,11836(zero)
80016e28:	80012e3c 	lb	at,11836(zero)
80016e2c:	80012bc8 	lb	at,11208(zero)
80016e30:	80012e3c 	lb	at,11836(zero)
80016e34:	80012e3c 	lb	at,11836(zero)
80016e38:	80012e3c 	lb	at,11836(zero)
80016e3c:	80012de8 	lb	at,11752(zero)
80016e40:	80012e3c 	lb	at,11836(zero)
80016e44:	80012c3c 	lb	at,11324(zero)
80016e48:	80012e3c 	lb	at,11836(zero)
80016e4c:	80012e3c 	lb	at,11836(zero)
80016e50:	80012cb0 	lb	at,11440(zero)
	...

80016e60 <C.91.1619>:
80016e60:	00000000 	nop
80016e64:	00000001 	0x1
80016e68:	00000002 	srl	zero,zero,0x0
80016e6c:	00000003 	sra	zero,zero,0x0
80016e70:	00000004 	sllv	zero,zero,zero
80016e74:	00000014 	0x14
80016e78:	00000005 	0x5
80016e7c:	00000006 	srlv	zero,zero,zero
80016e80:	00000007 	srav	zero,zero,zero
80016e84:	00000008 	jr	zero
80016e88:	00000009 	jalr	zero,zero

80016e8c <C.89.1613>:
80016e8c:	00000000 	nop
80016e90:	00000001 	0x1
80016e94:	00000002 	srl	zero,zero,0x0
80016e98:	00000003 	sra	zero,zero,0x0
80016e9c:	00000004 	sllv	zero,zero,zero
80016ea0:	00000005 	0x5
80016ea4:	00000006 	srlv	zero,zero,zero
80016ea8:	00000007 	srav	zero,zero,zero
80016eac:	00000008 	jr	zero
80016eb0:	00000009 	jalr	zero,zero
80016eb4:	00000000 	nop
	...
Disassembly of section .bss:

80016ec0 <envs>:
80016ec0:	00000000 	nop

80016ec4 <curenv>:
80016ec4:	00000000 	nop

80016ec8 <asid_bitmap>:
	...

80016ed0 <env_free_list>:
	...

80016ee0 <point.914>:
80016ee0:	00000000 	nop

80016ee4 <count.913>:
80016ee4:	00000000 	nop

80016ee8 <e.912>:
	...

80016ef0 <freemem>:
80016ef0:	00000000 	nop

80016ef4 <page_free_list>:
	...

80016f00 <exception_handlers>:
	...
Disassembly of section .scommon:

80016f80 <env_sched_list>:
	...

80016f88 <npage>:
80016f88:	00000000 	nop

80016f8c <boot_pgdir>:
80016f8c:	00000000 	nop

80016f90 <maxpa>:
80016f90:	00000000 	nop

80016f94 <basemem>:
80016f94:	00000000 	nop

80016f98 <extmem>:
80016f98:	00000000 	nop

80016f9c <pages>:
80016f9c:	00000000 	nop
Disassembly of section .data:

80016fa0 <mCONTEXT>:
80016fa0:	00000000 	nop

80016fa4 <delay>:
80016fa4:	00000000 	nop

80016fa8 <tlbra>:
	...

80016fb0 <binary_user_check_icode_start>:
80016fb0:	7f454c46 	0x7f454c46
80016fb4:	01020100 	0x1020100
	...
80016fc0:	00020008 	0x20008
80016fc4:	00000001 	0x1
80016fc8:	00401030 	0x401030
80016fcc:	00000034 	0x34
80016fd0:	0000a7c0 	sll	s4,zero,0x1f
80016fd4:	00001001 	0x1001
80016fd8:	00340020 	add	zero,at,s4
80016fdc:	00020028 	0x20028
80016fe0:	000c0009 	0xc0009
80016fe4:	70000000 	0x70000000
80016fe8:	000047e0 	0x47e0
80016fec:	004047e0 	0x4047e0
80016ff0:	004047e0 	0x4047e0
80016ff4:	00000018 	mult	zero,zero
80016ff8:	00000018 	mult	zero,zero
80016ffc:	00000004 	sllv	zero,zero,zero
80017000:	00000004 	sllv	zero,zero,zero
80017004:	00000001 	0x1
80017008:	00001030 	0x1030
8001700c:	00401030 	0x401030
80017010:	00401030 	0x401030
80017014:	00008aac 	0x8aac
80017018:	00009a84 	0x9a84
8001701c:	00000007 	srav	zero,zero,zero
80017020:	00001000 	sll	v0,zero,0x0
	...
80017fe0:	8fa40000 	lw	a0,0(sp)
80017fe4:	8fa50004 	lw	a1,4(sp)
80017fe8:	0c10098c 	jal	80402630 <end+0x2630>
80017fec:	00000000 	nop
	...
80017ff8:	8fa4008c 	lw	a0,140(sp)
80017ffc:	3c090040 	lui	t1,0x40
80018000:	8d297010 	lw	t1,28688(t1)
80018004:	0120f809 	jalr	t1
80018008:	00000000 	nop
8001800c:	8fa30088 	lw	v1,136(sp)
80018010:	00600013 	mtlo	v1
80018014:	8fa20084 	lw	v0,132(sp)
80018018:	8fa30094 	lw	v1,148(sp)
8001801c:	00400011 	mthi	v0
80018020:	40837000 	mtc0	v1,$14
80018024:	8fbf007c 	lw	ra,124(sp)
80018028:	8fbe0078 	lw	s8,120(sp)
8001802c:	8fbc0070 	lw	gp,112(sp)
80018030:	8fb90064 	lw	t9,100(sp)
80018034:	8fb80060 	lw	t8,96(sp)
80018038:	8fb7005c 	lw	s7,92(sp)
8001803c:	8fb60058 	lw	s6,88(sp)
80018040:	8fb50054 	lw	s5,84(sp)
80018044:	8fb40050 	lw	s4,80(sp)
80018048:	8fb3004c 	lw	s3,76(sp)
8001804c:	8fb20048 	lw	s2,72(sp)
80018050:	8fb10044 	lw	s1,68(sp)
80018054:	8fb00040 	lw	s0,64(sp)
80018058:	8faf003c 	lw	t7,60(sp)
8001805c:	8fae0038 	lw	t6,56(sp)
80018060:	8fad0034 	lw	t5,52(sp)
80018064:	8fac0030 	lw	t4,48(sp)
80018068:	8fab002c 	lw	t3,44(sp)
8001806c:	8faa0028 	lw	t2,40(sp)
80018070:	8fa90024 	lw	t1,36(sp)
80018074:	8fa80020 	lw	t0,32(sp)
80018078:	8fa7001c 	lw	a3,28(sp)
8001807c:	8fa60018 	lw	a2,24(sp)
80018080:	8fa50014 	lw	a1,20(sp)
80018084:	8fa40010 	lw	a0,16(sp)
80018088:	8fa3000c 	lw	v1,12(sp)
8001808c:	8fa20008 	lw	v0,8(sp)
80018090:	8fa10004 	lw	at,4(sp)
80018094:	8fba0094 	lw	k0,148(sp)
80018098:	03400008 	jr	k0
8001809c:	8fbd0074 	lw	sp,116(sp)
800180a0:	0000000c 	syscall
800180a4:	03e00008 	jr	ra
800180a8:	00000000 	nop
800180ac:	00000000 	nop
800180b0:	03e00008 	jr	ra
800180b4:	00851021 	addu	v0,a0,a1
800180b8:	2482fffb 	addiu	v0,a0,-5
800180bc:	00021600 	sll	v0,v0,0x18
800180c0:	03e00008 	jr	ra
800180c4:	00021603 	sra	v0,v0,0x18
800180c8:	27bdffe8 	addiu	sp,sp,-24
800180cc:	afbf0014 	sw	ra,20(sp)
800180d0:	afb00010 	sw	s0,16(sp)
800180d4:	24040005 	li	a0,5
800180d8:	0c100440 	jal	80401100 <end+0x1100>
800180dc:	24050006 	li	a1,6
800180e0:	0c100442 	jal	80401108 <end+0x1108>
800180e4:	2404005a 	li	a0,90
800180e8:	3c100041 	lui	s0,0x41
800180ec:	0c1004e5 	jal	80401394 <end+0x1394>
800180f0:	260497c0 	addiu	a0,s0,-26688
800180f4:	1000fffd 	b	800180ec <binary_user_check_icode_start+0x113c>
800180f8:	00000000 	nop
800180fc:	00000000 	nop
80018100:	27bdffe0 	addiu	sp,sp,-32
80018104:	afbf001c 	sw	ra,28(sp)
80018108:	afb20018 	sw	s2,24(sp)
8001810c:	afb10014 	sw	s1,20(sp)
80018110:	afb00010 	sw	s0,16(sp)
80018114:	24020001 	li	v0,1
80018118:	14c20015 	bne	a2,v0,80018170 <binary_user_check_icode_start+0x11c0>
8001811c:	00c09021 	move	s2,a2
80018120:	80a20000 	lb	v0,0(a1)
80018124:	00000000 	nop
80018128:	14400013 	bnez	v0,80018178 <binary_user_check_icode_start+0x11c8>
8001812c:	00a08021 	move	s0,a1
80018130:	10000013 	b	80018180 <binary_user_check_icode_start+0x11d0>
80018134:	00000000 	nop
80018138:	82040000 	lb	a0,0(s0)
8001813c:	0c100ae4 	jal	80402b90 <end+0x2b90>
80018140:	00000000 	nop
80018144:	82030000 	lb	v1,0(s0)
80018148:	2402000a 	li	v0,10
8001814c:	14620003 	bne	v1,v0,8001815c <binary_user_check_icode_start+0x11ac>
80018150:	00000000 	nop
80018154:	0c100ae4 	jal	80402b90 <end+0x2b90>
80018158:	2404000a 	li	a0,10
8001815c:	26310001 	addiu	s1,s1,1
80018160:	12510007 	beq	s2,s1,80018180 <binary_user_check_icode_start+0x11d0>
80018164:	26100001 	addiu	s0,s0,1
80018168:	1000fff3 	b	80018138 <binary_user_check_icode_start+0x1188>
8001816c:	00000000 	nop
80018170:	18c00003 	blez	a2,80018180 <binary_user_check_icode_start+0x11d0>
80018174:	00a08021 	move	s0,a1
80018178:	1000ffef 	b	80018138 <binary_user_check_icode_start+0x1188>
8001817c:	00008821 	move	s1,zero
80018180:	8fbf001c 	lw	ra,28(sp)
80018184:	8fb20018 	lw	s2,24(sp)
80018188:	8fb10014 	lw	s1,20(sp)
8001818c:	8fb00010 	lw	s0,16(sp)
80018190:	03e00008 	jr	ra
80018194:	27bd0020 	addiu	sp,sp,32
80018198:	27bdffe0 	addiu	sp,sp,-32
8001819c:	afbf0018 	sw	ra,24(sp)
800181a0:	afa50024 	sw	a1,36(sp)
800181a4:	afa60028 	sw	a2,40(sp)
800181a8:	afa7002c 	sw	a3,44(sp)
800181ac:	00803021 	move	a2,a0
800181b0:	27a70024 	addiu	a3,sp,36
800181b4:	afa70010 	sw	a3,16(sp)
800181b8:	3c040040 	lui	a0,0x40
800181bc:	24841150 	addiu	a0,a0,4432
800181c0:	0c100510 	jal	80401440 <end+0x1440>
800181c4:	00002821 	move	a1,zero
800181c8:	8fbf0018 	lw	ra,24(sp)
800181cc:	00000000 	nop
800181d0:	03e00008 	jr	ra
800181d4:	27bd0020 	addiu	sp,sp,32
800181d8:	27bdffe0 	addiu	sp,sp,-32
800181dc:	afbf001c 	sw	ra,28(sp)
800181e0:	afb00018 	sw	s0,24(sp)
800181e4:	00801821 	move	v1,a0
800181e8:	00a04021 	move	t0,a1
800181ec:	afa7002c 	sw	a3,44(sp)
800181f0:	00c08021 	move	s0,a2
800181f4:	27a2002c 	addiu	v0,sp,44
800181f8:	afa20010 	sw	v0,16(sp)
800181fc:	3c040041 	lui	a0,0x41
80018200:	248497c4 	addiu	a0,a0,-26684
80018204:	00602821 	move	a1,v1
80018208:	0c10047a 	jal	804011e8 <end+0x11e8>
8001820c:	01003021 	move	a2,t0
80018210:	3c040040 	lui	a0,0x40
80018214:	24841150 	addiu	a0,a0,4432
80018218:	00002821 	move	a1,zero
8001821c:	8fa70010 	lw	a3,16(sp)
80018220:	0c100510 	jal	80401440 <end+0x1440>
80018224:	02003021 	move	a2,s0
80018228:	3c040041 	lui	a0,0x41
8001822c:	0c10047a 	jal	804011e8 <end+0x11e8>
80018230:	24849994 	addiu	a0,a0,-26220
80018234:	1000ffff 	b	80018234 <binary_user_check_icode_start+0x1284>
80018238:	00000000 	nop
8001823c:	308400ff 	andi	a0,a0,0xff
80018240:	3c029000 	lui	v0,0x9000
80018244:	a0440000 	sb	a0,0(v0)
80018248:	03e00008 	jr	ra
8001824c:	00000000 	nop
80018250:	3c029000 	lui	v0,0x9000
80018254:	34420010 	ori	v0,v0,0x10
80018258:	a0400000 	sb	zero,0(v0)
8001825c:	03e00008 	jr	ra
80018260:	00000000 	nop
80018264:	27bdffe8 	addiu	sp,sp,-24
80018268:	afbf0014 	sw	ra,20(sp)
8001826c:	afb00010 	sw	s0,16(sp)
80018270:	00808021 	move	s0,a0
80018274:	80840000 	lb	a0,0(a0)
80018278:	00000000 	nop
8001827c:	10800007 	beqz	a0,8001829c <binary_user_check_icode_start+0x12ec>
80018280:	00000000 	nop
80018284:	0c1004a3 	jal	8040128c <end+0x128c>
80018288:	26100001 	addiu	s0,s0,1
8001828c:	82040000 	lb	a0,0(s0)
80018290:	00000000 	nop
80018294:	1480fffb 	bnez	a0,80018284 <binary_user_check_icode_start+0x12d4>
80018298:	00000000 	nop
8001829c:	8fbf0014 	lw	ra,20(sp)
800182a0:	8fb00010 	lw	s0,16(sp)
800182a4:	03e00008 	jr	ra
800182a8:	27bd0018 	addiu	sp,sp,24
800182ac:	27bdffe0 	addiu	sp,sp,-32
800182b0:	afbf001c 	sw	ra,28(sp)
800182b4:	afb20018 	sw	s2,24(sp)
800182b8:	afb10014 	sw	s1,20(sp)
800182bc:	afb00010 	sw	s0,16(sp)
800182c0:	24020001 	li	v0,1
800182c4:	14c20015 	bne	a2,v0,8001831c <binary_user_check_icode_start+0x136c>
800182c8:	00c09021 	move	s2,a2
800182cc:	80a20000 	lb	v0,0(a1)
800182d0:	00000000 	nop
800182d4:	14400013 	bnez	v0,80018324 <binary_user_check_icode_start+0x1374>
800182d8:	00a08021 	move	s0,a1
800182dc:	10000013 	b	8001832c <binary_user_check_icode_start+0x137c>
800182e0:	00000000 	nop
800182e4:	82040000 	lb	a0,0(s0)
800182e8:	0c1004a3 	jal	8040128c <end+0x128c>
800182ec:	00000000 	nop
800182f0:	82030000 	lb	v1,0(s0)
800182f4:	2402000a 	li	v0,10
800182f8:	14620003 	bne	v1,v0,80018308 <binary_user_check_icode_start+0x1358>
800182fc:	00000000 	nop
80018300:	0c1004a3 	jal	8040128c <end+0x128c>
80018304:	2404000a 	li	a0,10
80018308:	26310001 	addiu	s1,s1,1
8001830c:	12510007 	beq	s2,s1,8001832c <binary_user_check_icode_start+0x137c>
80018310:	26100001 	addiu	s0,s0,1
80018314:	1000fff3 	b	800182e4 <binary_user_check_icode_start+0x1334>
80018318:	00000000 	nop
8001831c:	18c00003 	blez	a2,8001832c <binary_user_check_icode_start+0x137c>
80018320:	00a08021 	move	s0,a1
80018324:	1000ffef 	b	800182e4 <binary_user_check_icode_start+0x1334>
80018328:	00008821 	move	s1,zero
8001832c:	8fbf001c 	lw	ra,28(sp)
80018330:	8fb20018 	lw	s2,24(sp)
80018334:	8fb10014 	lw	s1,20(sp)
80018338:	8fb00010 	lw	s0,16(sp)
8001833c:	03e00008 	jr	ra
80018340:	27bd0020 	addiu	sp,sp,32
80018344:	27bdffe0 	addiu	sp,sp,-32
80018348:	afbf0018 	sw	ra,24(sp)
8001834c:	afa50024 	sw	a1,36(sp)
80018350:	afa60028 	sw	a2,40(sp)
80018354:	afa7002c 	sw	a3,44(sp)
80018358:	00803021 	move	a2,a0
8001835c:	27a70024 	addiu	a3,sp,36
80018360:	afa70010 	sw	a3,16(sp)
80018364:	3c040040 	lui	a0,0x40
80018368:	248412fc 	addiu	a0,a0,4860
8001836c:	0c100750 	jal	80401d40 <end+0x1d40>
80018370:	00002821 	move	a1,zero
80018374:	8fbf0018 	lw	ra,24(sp)
80018378:	00000000 	nop
8001837c:	03e00008 	jr	ra
80018380:	27bd0020 	addiu	sp,sp,32
80018384:	27bdffe0 	addiu	sp,sp,-32
80018388:	afbf001c 	sw	ra,28(sp)
8001838c:	afb00018 	sw	s0,24(sp)
80018390:	00801821 	move	v1,a0
80018394:	00a04021 	move	t0,a1
80018398:	afa7002c 	sw	a3,44(sp)
8001839c:	00c08021 	move	s0,a2
800183a0:	27a2002c 	addiu	v0,sp,44
800183a4:	afa20010 	sw	v0,16(sp)
800183a8:	3c040041 	lui	a0,0x41
800183ac:	248497c4 	addiu	a0,a0,-26684
800183b0:	00602821 	move	a1,v1
800183b4:	0c1004e5 	jal	80401394 <end+0x1394>
800183b8:	01003021 	move	a2,t0
800183bc:	3c040040 	lui	a0,0x40
800183c0:	248412fc 	addiu	a0,a0,4860
800183c4:	00002821 	move	a1,zero
800183c8:	8fa70010 	lw	a3,16(sp)
800183cc:	0c100750 	jal	80401d40 <end+0x1d40>
800183d0:	02003021 	move	a2,s0
800183d4:	3c040041 	lui	a0,0x41
800183d8:	0c1004e5 	jal	80401394 <end+0x1394>
800183dc:	24849994 	addiu	a0,a0,-26220
800183e0:	1000ffff 	b	800183e0 <binary_user_check_icode_start+0x1430>
800183e4:	00000000 	nop
	...
800183f0:	27bdfbd8 	addiu	sp,sp,-1064
800183f4:	afbf0420 	sw	ra,1056(sp)
800183f8:	afb5041c 	sw	s5,1052(sp)
800183fc:	afb40418 	sw	s4,1048(sp)
80018400:	afb30414 	sw	s3,1044(sp)
80018404:	afb20410 	sw	s2,1040(sp)
80018408:	afb1040c 	sw	s1,1036(sp)
8001840c:	afb00408 	sw	s0,1032(sp)
80018410:	0080a821 	move	s5,a0
80018414:	00a09021 	move	s2,a1
80018418:	00c02821 	move	a1,a2
8001841c:	00e09821 	move	s3,a3
80018420:	80a30000 	lb	v1,0(a1)
80018424:	00000000 	nop
80018428:	1060000d 	beqz	v1,80018460 <binary_user_check_icode_start+0x14b0>
8001842c:	00a08021 	move	s0,a1
80018430:	1000015e 	b	800189ac <binary_user_check_icode_start+0x19fc>
80018434:	24020025 	li	v0,37
80018438:	00a08021 	move	s0,a1
8001843c:	26100001 	addiu	s0,s0,1
80018440:	82020000 	lb	v0,0(s0)
80018444:	00000000 	nop
80018448:	10400006 	beqz	v0,80018464 <binary_user_check_icode_start+0x14b4>
8001844c:	02058823 	subu	s1,s0,a1
80018450:	10430005 	beq	v0,v1,80018468 <binary_user_check_icode_start+0x14b8>
80018454:	2e2203e9 	sltiu	v0,s1,1001
80018458:	1000fff9 	b	80018440 <binary_user_check_icode_start+0x1490>
8001845c:	26100001 	addiu	s0,s0,1
80018460:	02058823 	subu	s1,s0,a1
80018464:	2e2203e9 	sltiu	v0,s1,1001
80018468:	14400008 	bnez	v0,8001848c <binary_user_check_icode_start+0x14dc>
8001846c:	02203021 	move	a2,s1
80018470:	02402021 	move	a0,s2
80018474:	3c050041 	lui	a1,0x41
80018478:	24a593b0 	addiu	a1,a1,-27728
8001847c:	02a0f809 	jalr	s5
80018480:	2406001d 	li	a2,29
80018484:	1000ffff 	b	80018484 <binary_user_check_icode_start+0x14d4>
80018488:	00000000 	nop
8001848c:	02a0f809 	jalr	s5
80018490:	02402021 	move	a0,s2
80018494:	82020000 	lb	v0,0(s0)
80018498:	00000000 	nop
8001849c:	10400135 	beqz	v0,80018974 <binary_user_check_icode_start+0x19c4>
800184a0:	02519021 	addu	s2,s2,s1
800184a4:	82030001 	lb	v1,1(s0)
800184a8:	2402006c 	li	v0,108
800184ac:	10620003 	beq	v1,v0,800184bc <binary_user_check_icode_start+0x150c>
800184b0:	26110001 	addiu	s1,s0,1
800184b4:	10000003 	b	800184c4 <binary_user_check_icode_start+0x1514>
800184b8:	00002021 	move	a0,zero
800184bc:	26110002 	addiu	s1,s0,2
800184c0:	24040001 	li	a0,1
800184c4:	82230000 	lb	v1,0(s1)
800184c8:	2402002d 	li	v0,45
800184cc:	14620004 	bne	v1,v0,800184e0 <binary_user_check_icode_start+0x1530>
800184d0:	00003821 	move	a3,zero
800184d4:	26310001 	addiu	s1,s1,1
800184d8:	24070001 	li	a3,1
800184dc:	82230000 	lb	v1,0(s1)
800184e0:	24020030 	li	v0,48
800184e4:	14620003 	bne	v1,v0,800184f4 <binary_user_check_icode_start+0x1544>
800184e8:	24090020 	li	t1,32
800184ec:	26310001 	addiu	s1,s1,1
800184f0:	24090030 	li	t1,48
800184f4:	82260000 	lb	a2,0(s1)
800184f8:	00000000 	nop
800184fc:	24c2ffd0 	addiu	v0,a2,-48
80018500:	304200ff 	andi	v0,v0,0xff
80018504:	2c42000a 	sltiu	v0,v0,10
80018508:	1040000e 	beqz	v0,80018544 <binary_user_check_icode_start+0x1594>
8001850c:	00004021 	move	t0,zero
80018510:	00081040 	sll	v0,t0,0x1
80018514:	000818c0 	sll	v1,t0,0x3
80018518:	00431021 	addu	v0,v0,v1
8001851c:	00461021 	addu	v0,v0,a2
80018520:	2448ffd0 	addiu	t0,v0,-48
80018524:	26310001 	addiu	s1,s1,1
80018528:	82260000 	lb	a2,0(s1)
8001852c:	00000000 	nop
80018530:	24c2ffd0 	addiu	v0,a2,-48
80018534:	304200ff 	andi	v0,v0,0xff
80018538:	2c42000a 	sltiu	v0,v0,10
8001853c:	1440fff5 	bnez	v0,80018514 <binary_user_check_icode_start+0x1564>
80018540:	00081040 	sll	v0,t0,0x1
80018544:	82230000 	lb	v1,0(s1)
80018548:	2402002e 	li	v0,46
8001854c:	14620014 	bne	v1,v0,800185a0 <binary_user_check_icode_start+0x15f0>
80018550:	2c620079 	sltiu	v0,v1,121
80018554:	26310001 	addiu	s1,s1,1
80018558:	92220000 	lbu	v0,0(s1)
8001855c:	00000000 	nop
80018560:	2442ffd0 	addiu	v0,v0,-48
80018564:	304200ff 	andi	v0,v0,0xff
80018568:	2c42000a 	sltiu	v0,v0,10
8001856c:	10400009 	beqz	v0,80018594 <binary_user_check_icode_start+0x15e4>
80018570:	00000000 	nop
80018574:	26310001 	addiu	s1,s1,1
80018578:	92220000 	lbu	v0,0(s1)
8001857c:	00000000 	nop
80018580:	2442ffd0 	addiu	v0,v0,-48
80018584:	304200ff 	andi	v0,v0,0xff
80018588:	2c42000a 	sltiu	v0,v0,10
8001858c:	1440fff9 	bnez	v0,80018574 <binary_user_check_icode_start+0x15c4>
80018590:	00000000 	nop
80018594:	82230000 	lb	v1,0(s1)
80018598:	00000000 	nop
8001859c:	2c620079 	sltiu	v0,v1,121
800185a0:	104000ed 	beqz	v0,80018958 <binary_user_check_icode_start+0x19a8>
800185a4:	00031080 	sll	v0,v1,0x2
800185a8:	3c030041 	lui	v1,0x41
800185ac:	246393d4 	addiu	v1,v1,-27692
800185b0:	00431021 	addu	v0,v0,v1
800185b4:	8c420000 	lw	v0,0(v0)
800185b8:	00000000 	nop
800185bc:	00400008 	jr	v0
800185c0:	00000000 	nop
800185c4:	10800004 	beqz	a0,800185d8 <binary_user_check_icode_start+0x1628>
800185c8:	00000000 	nop
800185cc:	8e650000 	lw	a1,0(s3)
800185d0:	10000003 	b	800185e0 <binary_user_check_icode_start+0x1630>
800185d4:	26730004 	addiu	s3,s3,4
800185d8:	8e650000 	lw	a1,0(s3)
800185dc:	26730004 	addiu	s3,s3,4
800185e0:	afa80010 	sw	t0,16(sp)
800185e4:	afa70014 	sw	a3,20(sp)
800185e8:	afa90018 	sw	t1,24(sp)
800185ec:	afa0001c 	sw	zero,28(sp)
800185f0:	27a40020 	addiu	a0,sp,32
800185f4:	24060002 	li	a2,2
800185f8:	0c1006ea 	jal	80401ba8 <end+0x1ba8>
800185fc:	00003821 	move	a3,zero
80018600:	00408021 	move	s0,v0
80018604:	00403021 	move	a2,v0
80018608:	2c4203e9 	sltiu	v0,v0,1001
8001860c:	14400007 	bnez	v0,8001862c <binary_user_check_icode_start+0x167c>
80018610:	02402021 	move	a0,s2
80018614:	3c050041 	lui	a1,0x41
80018618:	24a593b0 	addiu	a1,a1,-27728
8001861c:	02a0f809 	jalr	s5
80018620:	2406001d 	li	a2,29
80018624:	1000ffff 	b	80018624 <binary_user_check_icode_start+0x1674>
80018628:	00000000 	nop
8001862c:	02a0f809 	jalr	s5
80018630:	27a50020 	addiu	a1,sp,32
80018634:	100000cd 	b	8001896c <binary_user_check_icode_start+0x19bc>
80018638:	02509021 	addu	s2,s2,s0
8001863c:	10800004 	beqz	a0,80018650 <binary_user_check_icode_start+0x16a0>
80018640:	00000000 	nop
80018644:	8e650000 	lw	a1,0(s3)
80018648:	10000003 	b	80018658 <binary_user_check_icode_start+0x16a8>
8001864c:	26730004 	addiu	s3,s3,4
80018650:	8e650000 	lw	a1,0(s3)
80018654:	26730004 	addiu	s3,s3,4
80018658:	04a10003 	bgez	a1,80018668 <binary_user_check_icode_start+0x16b8>
8001865c:	00001021 	move	v0,zero
80018660:	00052823 	negu	a1,a1
80018664:	24020001 	li	v0,1
80018668:	afa80010 	sw	t0,16(sp)
8001866c:	afa70014 	sw	a3,20(sp)
80018670:	afa90018 	sw	t1,24(sp)
80018674:	afa0001c 	sw	zero,28(sp)
80018678:	27a40020 	addiu	a0,sp,32
8001867c:	2406000a 	li	a2,10
80018680:	0c1006ea 	jal	80401ba8 <end+0x1ba8>
80018684:	00403821 	move	a3,v0
80018688:	00408021 	move	s0,v0
8001868c:	00403021 	move	a2,v0
80018690:	2c4203e9 	sltiu	v0,v0,1001
80018694:	14400007 	bnez	v0,800186b4 <binary_user_check_icode_start+0x1704>
80018698:	02402021 	move	a0,s2
8001869c:	3c050041 	lui	a1,0x41
800186a0:	24a593b0 	addiu	a1,a1,-27728
800186a4:	02a0f809 	jalr	s5
800186a8:	2406001d 	li	a2,29
800186ac:	1000ffff 	b	800186ac <binary_user_check_icode_start+0x16fc>
800186b0:	00000000 	nop
800186b4:	02a0f809 	jalr	s5
800186b8:	27a50020 	addiu	a1,sp,32
800186bc:	100000ab 	b	8001896c <binary_user_check_icode_start+0x19bc>
800186c0:	02509021 	addu	s2,s2,s0
800186c4:	10800004 	beqz	a0,800186d8 <binary_user_check_icode_start+0x1728>
800186c8:	00000000 	nop
800186cc:	8e650000 	lw	a1,0(s3)
800186d0:	10000003 	b	800186e0 <binary_user_check_icode_start+0x1730>
800186d4:	26730004 	addiu	s3,s3,4
800186d8:	8e650000 	lw	a1,0(s3)
800186dc:	26730004 	addiu	s3,s3,4
800186e0:	afa80010 	sw	t0,16(sp)
800186e4:	afa70014 	sw	a3,20(sp)
800186e8:	afa90018 	sw	t1,24(sp)
800186ec:	afa0001c 	sw	zero,28(sp)
800186f0:	27a40020 	addiu	a0,sp,32
800186f4:	24060008 	li	a2,8
800186f8:	0c1006ea 	jal	80401ba8 <end+0x1ba8>
800186fc:	00003821 	move	a3,zero
80018700:	00408021 	move	s0,v0
80018704:	00403021 	move	a2,v0
80018708:	2c4203e9 	sltiu	v0,v0,1001
8001870c:	14400007 	bnez	v0,8001872c <binary_user_check_icode_start+0x177c>
80018710:	02402021 	move	a0,s2
80018714:	3c050041 	lui	a1,0x41
80018718:	24a593b0 	addiu	a1,a1,-27728
8001871c:	02a0f809 	jalr	s5
80018720:	2406001d 	li	a2,29
80018724:	1000ffff 	b	80018724 <binary_user_check_icode_start+0x1774>
80018728:	00000000 	nop
8001872c:	02a0f809 	jalr	s5
80018730:	27a50020 	addiu	a1,sp,32
80018734:	1000008d 	b	8001896c <binary_user_check_icode_start+0x19bc>
80018738:	02509021 	addu	s2,s2,s0
8001873c:	10800004 	beqz	a0,80018750 <binary_user_check_icode_start+0x17a0>
80018740:	00000000 	nop
80018744:	8e650000 	lw	a1,0(s3)
80018748:	10000003 	b	80018758 <binary_user_check_icode_start+0x17a8>
8001874c:	26730004 	addiu	s3,s3,4
80018750:	8e650000 	lw	a1,0(s3)
80018754:	26730004 	addiu	s3,s3,4
80018758:	afa80010 	sw	t0,16(sp)
8001875c:	afa70014 	sw	a3,20(sp)
80018760:	afa90018 	sw	t1,24(sp)
80018764:	afa0001c 	sw	zero,28(sp)
80018768:	27a40020 	addiu	a0,sp,32
8001876c:	2406000a 	li	a2,10
80018770:	0c1006ea 	jal	80401ba8 <end+0x1ba8>
80018774:	00003821 	move	a3,zero
80018778:	00408021 	move	s0,v0
8001877c:	00403021 	move	a2,v0
80018780:	2c4203e9 	sltiu	v0,v0,1001
80018784:	14400007 	bnez	v0,800187a4 <binary_user_check_icode_start+0x17f4>
80018788:	02402021 	move	a0,s2
8001878c:	3c050041 	lui	a1,0x41
80018790:	24a593b0 	addiu	a1,a1,-27728
80018794:	02a0f809 	jalr	s5
80018798:	2406001d 	li	a2,29
8001879c:	1000ffff 	b	8001879c <binary_user_check_icode_start+0x17ec>
800187a0:	00000000 	nop
800187a4:	02a0f809 	jalr	s5
800187a8:	27a50020 	addiu	a1,sp,32
800187ac:	1000006f 	b	8001896c <binary_user_check_icode_start+0x19bc>
800187b0:	02509021 	addu	s2,s2,s0
800187b4:	10800004 	beqz	a0,800187c8 <binary_user_check_icode_start+0x1818>
800187b8:	00000000 	nop
800187bc:	8e650000 	lw	a1,0(s3)
800187c0:	10000003 	b	800187d0 <binary_user_check_icode_start+0x1820>
800187c4:	26730004 	addiu	s3,s3,4
800187c8:	8e650000 	lw	a1,0(s3)
800187cc:	26730004 	addiu	s3,s3,4
800187d0:	afa80010 	sw	t0,16(sp)
800187d4:	afa70014 	sw	a3,20(sp)
800187d8:	afa90018 	sw	t1,24(sp)
800187dc:	afa0001c 	sw	zero,28(sp)
800187e0:	27a40020 	addiu	a0,sp,32
800187e4:	24060010 	li	a2,16
800187e8:	0c1006ea 	jal	80401ba8 <end+0x1ba8>
800187ec:	00003821 	move	a3,zero
800187f0:	00408021 	move	s0,v0
800187f4:	00403021 	move	a2,v0
800187f8:	2c4203e9 	sltiu	v0,v0,1001
800187fc:	14400007 	bnez	v0,8001881c <binary_user_check_icode_start+0x186c>
80018800:	02402021 	move	a0,s2
80018804:	3c050041 	lui	a1,0x41
80018808:	24a593b0 	addiu	a1,a1,-27728
8001880c:	02a0f809 	jalr	s5
80018810:	2406001d 	li	a2,29
80018814:	1000ffff 	b	80018814 <binary_user_check_icode_start+0x1864>
80018818:	00000000 	nop
8001881c:	02a0f809 	jalr	s5
80018820:	27a50020 	addiu	a1,sp,32
80018824:	10000051 	b	8001896c <binary_user_check_icode_start+0x19bc>
80018828:	02509021 	addu	s2,s2,s0
8001882c:	10800004 	beqz	a0,80018840 <binary_user_check_icode_start+0x1890>
80018830:	00000000 	nop
80018834:	8e650000 	lw	a1,0(s3)
80018838:	10000003 	b	80018848 <binary_user_check_icode_start+0x1898>
8001883c:	26730004 	addiu	s3,s3,4
80018840:	8e650000 	lw	a1,0(s3)
80018844:	26730004 	addiu	s3,s3,4
80018848:	afa80010 	sw	t0,16(sp)
8001884c:	afa70014 	sw	a3,20(sp)
80018850:	afa90018 	sw	t1,24(sp)
80018854:	24020001 	li	v0,1
80018858:	afa2001c 	sw	v0,28(sp)
8001885c:	27a40020 	addiu	a0,sp,32
80018860:	24060010 	li	a2,16
80018864:	0c1006ea 	jal	80401ba8 <end+0x1ba8>
80018868:	00003821 	move	a3,zero
8001886c:	00408021 	move	s0,v0
80018870:	00403021 	move	a2,v0
80018874:	2c4203e9 	sltiu	v0,v0,1001
80018878:	14400007 	bnez	v0,80018898 <binary_user_check_icode_start+0x18e8>
8001887c:	02402021 	move	a0,s2
80018880:	3c050041 	lui	a1,0x41
80018884:	24a593b0 	addiu	a1,a1,-27728
80018888:	02a0f809 	jalr	s5
8001888c:	2406001d 	li	a2,29
80018890:	1000ffff 	b	80018890 <binary_user_check_icode_start+0x18e0>
80018894:	00000000 	nop
80018898:	02a0f809 	jalr	s5
8001889c:	27a50020 	addiu	a1,sp,32
800188a0:	10000032 	b	8001896c <binary_user_check_icode_start+0x19bc>
800188a4:	02509021 	addu	s2,s2,s0
800188a8:	26740004 	addiu	s4,s3,4
800188ac:	27a40020 	addiu	a0,sp,32
800188b0:	82650003 	lb	a1,3(s3)
800188b4:	0c100683 	jal	80401a0c <end+0x1a0c>
800188b8:	01003021 	move	a2,t0
800188bc:	00408021 	move	s0,v0
800188c0:	00403021 	move	a2,v0
800188c4:	2c4203e9 	sltiu	v0,v0,1001
800188c8:	14400007 	bnez	v0,800188e8 <binary_user_check_icode_start+0x1938>
800188cc:	02402021 	move	a0,s2
800188d0:	3c050041 	lui	a1,0x41
800188d4:	24a593b0 	addiu	a1,a1,-27728
800188d8:	02a0f809 	jalr	s5
800188dc:	2406001d 	li	a2,29
800188e0:	1000ffff 	b	800188e0 <binary_user_check_icode_start+0x1930>
800188e4:	00000000 	nop
800188e8:	02a0f809 	jalr	s5
800188ec:	27a50020 	addiu	a1,sp,32
800188f0:	02509021 	addu	s2,s2,s0
800188f4:	1000001d 	b	8001896c <binary_user_check_icode_start+0x19bc>
800188f8:	02809821 	move	s3,s4
800188fc:	26740004 	addiu	s4,s3,4
80018900:	27a40020 	addiu	a0,sp,32
80018904:	8e650000 	lw	a1,0(s3)
80018908:	0c1006a2 	jal	80401a88 <end+0x1a88>
8001890c:	01003021 	move	a2,t0
80018910:	00408021 	move	s0,v0
80018914:	00403021 	move	a2,v0
80018918:	2c4203e9 	sltiu	v0,v0,1001
8001891c:	14400007 	bnez	v0,8001893c <binary_user_check_icode_start+0x198c>
80018920:	02402021 	move	a0,s2
80018924:	3c050041 	lui	a1,0x41
80018928:	24a593b0 	addiu	a1,a1,-27728
8001892c:	02a0f809 	jalr	s5
80018930:	2406001d 	li	a2,29
80018934:	1000ffff 	b	80018934 <binary_user_check_icode_start+0x1984>
80018938:	00000000 	nop
8001893c:	02a0f809 	jalr	s5
80018940:	27a50020 	addiu	a1,sp,32
80018944:	02509021 	addu	s2,s2,s0
80018948:	10000008 	b	8001896c <binary_user_check_icode_start+0x19bc>
8001894c:	02809821 	move	s3,s4
80018950:	10000006 	b	8001896c <binary_user_check_icode_start+0x19bc>
80018954:	2631ffff 	addiu	s1,s1,-1
80018958:	02402021 	move	a0,s2
8001895c:	02202821 	move	a1,s1
80018960:	02a0f809 	jalr	s5
80018964:	24060001 	li	a2,1
80018968:	26520001 	addiu	s2,s2,1
8001896c:	1000feac 	b	80018420 <binary_user_check_icode_start+0x1470>
80018970:	26250001 	addiu	a1,s1,1
80018974:	02402021 	move	a0,s2
80018978:	3c050041 	lui	a1,0x41
8001897c:	24a593d0 	addiu	a1,a1,-27696
80018980:	02a0f809 	jalr	s5
80018984:	24060001 	li	a2,1
80018988:	8fbf0420 	lw	ra,1056(sp)
8001898c:	8fb5041c 	lw	s5,1052(sp)
80018990:	8fb40418 	lw	s4,1048(sp)
80018994:	8fb30414 	lw	s3,1044(sp)
80018998:	8fb20410 	lw	s2,1040(sp)
8001899c:	8fb1040c 	lw	s1,1036(sp)
800189a0:	8fb00408 	lw	s0,1032(sp)
800189a4:	03e00008 	jr	ra
800189a8:	27bd0428 	addiu	sp,sp,1064
800189ac:	1462fea2 	bne	v1,v0,80018438 <binary_user_check_icode_start+0x1488>
800189b0:	24030025 	li	v1,37
800189b4:	1000feaa 	b	80018460 <binary_user_check_icode_start+0x14b0>
800189b8:	00a08021 	move	s0,a1
800189bc:	00052e00 	sll	a1,a1,0x18
800189c0:	1cc00002 	bgtz	a2,800189cc <binary_user_check_icode_start+0x1a1c>
800189c4:	00052e03 	sra	a1,a1,0x18
800189c8:	24060001 	li	a2,1
800189cc:	10e00014 	beqz	a3,80018a20 <binary_user_check_icode_start+0x1a70>
800189d0:	28c20002 	slti	v0,a2,2
800189d4:	14400016 	bnez	v0,80018a30 <binary_user_check_icode_start+0x1a80>
800189d8:	a0850000 	sb	a1,0(a0)
800189dc:	24030001 	li	v1,1
800189e0:	24050020 	li	a1,32
800189e4:	00831021 	addu	v0,a0,v1
800189e8:	24630001 	addiu	v1,v1,1
800189ec:	10c30010 	beq	a2,v1,80018a30 <binary_user_check_icode_start+0x1a80>
800189f0:	a0450000 	sb	a1,0(v0)
800189f4:	1000fffc 	b	800189e8 <binary_user_check_icode_start+0x1a38>
800189f8:	00831021 	addu	v0,a0,v1
800189fc:	00001821 	move	v1,zero
80018a00:	24080020 	li	t0,32
80018a04:	00641021 	addu	v0,v1,a0
80018a08:	24630001 	addiu	v1,v1,1
80018a0c:	1467fffd 	bne	v1,a3,80018a04 <binary_user_check_icode_start+0x1a54>
80018a10:	a0480000 	sb	t0,0(v0)
80018a14:	00c41021 	addu	v0,a2,a0
80018a18:	10000005 	b	80018a30 <binary_user_check_icode_start+0x1a80>
80018a1c:	a045ffff 	sb	a1,-1(v0)
80018a20:	24c7ffff 	addiu	a3,a2,-1
80018a24:	1ce0fff5 	bgtz	a3,800189fc <binary_user_check_icode_start+0x1a4c>
80018a28:	00c41021 	addu	v0,a2,a0
80018a2c:	a045ffff 	sb	a1,-1(v0)
80018a30:	03e00008 	jr	ra
80018a34:	00c01021 	move	v0,a2
80018a38:	80a20000 	lb	v0,0(a1)
80018a3c:	00000000 	nop
80018a40:	14400003 	bnez	v0,80018a50 <binary_user_check_icode_start+0x1aa0>
80018a44:	24a30001 	addiu	v1,a1,1
80018a48:	10000007 	b	80018a68 <binary_user_check_icode_start+0x1ab8>
80018a4c:	00004021 	move	t0,zero
80018a50:	00004021 	move	t0,zero
80018a54:	25080001 	addiu	t0,t0,1
80018a58:	80620000 	lb	v0,0(v1)
80018a5c:	00000000 	nop
80018a60:	1440fffc 	bnez	v0,80018a54 <binary_user_check_icode_start+0x1aa4>
80018a64:	24630001 	addiu	v1,v1,1
80018a68:	00c8102a 	slt	v0,a2,t0
80018a6c:	10400002 	beqz	v0,80018a78 <binary_user_check_icode_start+0x1ac8>
80018a70:	00000000 	nop
80018a74:	01003021 	move	a2,t0
80018a78:	14e00031 	bnez	a3,80018b40 <binary_user_check_icode_start+0x1b90>
80018a7c:	00c83823 	subu	a3,a2,t0
80018a80:	1000002b 	b	80018b30 <binary_user_check_icode_start+0x1b80>
80018a84:	00000000 	nop
80018a88:	00003821 	move	a3,zero
80018a8c:	00871021 	addu	v0,a0,a3
80018a90:	00a71821 	addu	v1,a1,a3
80018a94:	90630000 	lbu	v1,0(v1)
80018a98:	24e70001 	addiu	a3,a3,1
80018a9c:	1507fffb 	bne	t0,a3,80018a8c <binary_user_check_icode_start+0x1adc>
80018aa0:	a0430000 	sb	v1,0(v0)
80018aa4:	0106102a 	slt	v0,t0,a2
80018aa8:	10400029 	beqz	v0,80018b50 <binary_user_check_icode_start+0x1ba0>
80018aac:	00001821 	move	v1,zero
80018ab0:	00881021 	addu	v0,a0,t0
80018ab4:	24050020 	li	a1,32
80018ab8:	00c82023 	subu	a0,a2,t0
80018abc:	a0450000 	sb	a1,0(v0)
80018ac0:	24630001 	addiu	v1,v1,1
80018ac4:	10640022 	beq	v1,a0,80018b50 <binary_user_check_icode_start+0x1ba0>
80018ac8:	24420001 	addiu	v0,v0,1
80018acc:	1000fffc 	b	80018ac0 <binary_user_check_icode_start+0x1b10>
80018ad0:	a0450000 	sb	a1,0(v0)
80018ad4:	00001821 	move	v1,zero
80018ad8:	24090020 	li	t1,32
80018adc:	00831021 	addu	v0,a0,v1
80018ae0:	24630001 	addiu	v1,v1,1
80018ae4:	1467fffd 	bne	v1,a3,80018adc <binary_user_check_icode_start+0x1b2c>
80018ae8:	a0490000 	sb	t1,0(v0)
80018aec:	00e6102a 	slt	v0,a3,a2
80018af0:	10400017 	beqz	v0,80018b50 <binary_user_check_icode_start+0x1ba0>
80018af4:	00872021 	addu	a0,a0,a3
80018af8:	00e61023 	subu	v0,a3,a2
80018afc:	01021021 	addu	v0,t0,v0
80018b00:	00a21821 	addu	v1,a1,v0
80018b04:	00002821 	move	a1,zero
80018b08:	00c73823 	subu	a3,a2,a3
80018b0c:	90620000 	lbu	v0,0(v1)
80018b10:	00000000 	nop
80018b14:	a0820000 	sb	v0,0(a0)
80018b18:	24a50001 	addiu	a1,a1,1
80018b1c:	24630001 	addiu	v1,v1,1
80018b20:	10a7000b 	beq	a1,a3,80018b50 <binary_user_check_icode_start+0x1ba0>
80018b24:	24840001 	addiu	a0,a0,1
80018b28:	1000fff8 	b	80018b0c <binary_user_check_icode_start+0x1b5c>
80018b2c:	00000000 	nop
80018b30:	1ce0ffe8 	bgtz	a3,80018ad4 <binary_user_check_icode_start+0x1b24>
80018b34:	00e6102a 	slt	v0,a3,a2
80018b38:	1000ffed 	b	80018af0 <binary_user_check_icode_start+0x1b40>
80018b3c:	00000000 	nop
80018b40:	1d00ffd1 	bgtz	t0,80018a88 <binary_user_check_icode_start+0x1ad8>
80018b44:	0106102a 	slt	v0,t0,a2
80018b48:	1000ffd7 	b	80018aa8 <binary_user_check_icode_start+0x1af8>
80018b4c:	00000000 	nop
80018b50:	03e00008 	jr	ra
80018b54:	00c01021 	move	v0,a2
80018b58:	8fa90010 	lw	t1,16(sp)
80018b5c:	8fac0014 	lw	t4,20(sp)
80018b60:	8fab001c 	lw	t3,28(sp)
80018b64:	83aa001b 	lb	t2,27(sp)
80018b68:	00804021 	move	t0,a0
80018b6c:	14c00002 	bnez	a2,80018b78 <binary_user_check_icode_start+0x1bc8>
80018b70:	00a6001b 	divu	zero,a1,a2
80018b74:	0007000d 	break	0x7
80018b78:	00001810 	mfhi	v1
80018b7c:	2862000a 	slti	v0,v1,10
80018b80:	10400004 	beqz	v0,80018b94 <binary_user_check_icode_start+0x1be4>
80018b84:	24620030 	addiu	v0,v1,48
80018b88:	a1020000 	sb	v0,0(t0)
80018b8c:	1000000c 	b	80018bc0 <binary_user_check_icode_start+0x1c10>
80018b90:	25080001 	addiu	t0,t0,1
80018b94:	11600005 	beqz	t3,80018bac <binary_user_check_icode_start+0x1bfc>
80018b98:	24620057 	addiu	v0,v1,87
80018b9c:	24620037 	addiu	v0,v1,55
80018ba0:	a1020000 	sb	v0,0(t0)
80018ba4:	10000003 	b	80018bb4 <binary_user_check_icode_start+0x1c04>
80018ba8:	25080001 	addiu	t0,t0,1
80018bac:	a1020000 	sb	v0,0(t0)
80018bb0:	25080001 	addiu	t0,t0,1
80018bb4:	14c00002 	bnez	a2,80018bc0 <binary_user_check_icode_start+0x1c10>
80018bb8:	00a6001b 	divu	zero,a1,a2
80018bbc:	0007000d 	break	0x7
80018bc0:	00002812 	mflo	a1
80018bc4:	14a0ffe9 	bnez	a1,80018b6c <binary_user_check_icode_start+0x1bbc>
80018bc8:	00000000 	nop
80018bcc:	10e00005 	beqz	a3,80018be4 <binary_user_check_icode_start+0x1c34>
80018bd0:	01043023 	subu	a2,t0,a0
80018bd4:	2402002d 	li	v0,45
80018bd8:	a1020000 	sb	v0,0(t0)
80018bdc:	25080001 	addiu	t0,t0,1
80018be0:	01043023 	subu	a2,t0,a0
80018be4:	0126102a 	slt	v0,t1,a2
80018be8:	10400002 	beqz	v0,80018bf4 <binary_user_check_icode_start+0x1c44>
80018bec:	00000000 	nop
80018bf0:	00c04821 	move	t1,a2
80018bf4:	11800002 	beqz	t4,80018c00 <binary_user_check_icode_start+0x1c50>
80018bf8:	00000000 	nop
80018bfc:	240a0020 	li	t2,32
80018c00:	10e00033 	beqz	a3,80018cd0 <binary_user_check_icode_start+0x1d20>
80018c04:	00c9102a 	slt	v0,a2,t1
80018c08:	15800031 	bnez	t4,80018cd0 <binary_user_check_icode_start+0x1d20>
80018c0c:	00000000 	nop
80018c10:	24020030 	li	v0,48
80018c14:	1542002e 	bne	t2,v0,80018cd0 <binary_user_check_icode_start+0x1d20>
80018c18:	00c9102a 	slt	v0,a2,t1
80018c1c:	24c6ffff 	addiu	a2,a2,-1
80018c20:	2528ffff 	addiu	t0,t1,-1
80018c24:	00c8102a 	slt	v0,a2,t0
80018c28:	10400008 	beqz	v0,80018c4c <binary_user_check_icode_start+0x1c9c>
80018c2c:	01061023 	subu	v0,t0,a2
80018c30:	00861821 	addu	v1,a0,a2
80018c34:	00002821 	move	a1,zero
80018c38:	24070030 	li	a3,48
80018c3c:	a0670000 	sb	a3,0(v1)
80018c40:	24a50001 	addiu	a1,a1,1
80018c44:	14a2fffd 	bne	a1,v0,80018c3c <binary_user_check_icode_start+0x1c8c>
80018c48:	24630001 	addiu	v1,v1,1
80018c4c:	00891821 	addu	v1,a0,t1
80018c50:	2402002d 	li	v0,45
80018c54:	1000000d 	b	80018c8c <binary_user_check_icode_start+0x1cdc>
80018c58:	a062ffff 	sb	v0,-1(v1)
80018c5c:	a0aa0000 	sb	t2,0(a1)
80018c60:	24630001 	addiu	v1,v1,1
80018c64:	01261023 	subu	v0,t1,a2
80018c68:	1462fffc 	bne	v1,v0,80018c5c <binary_user_check_icode_start+0x1cac>
80018c6c:	24a50001 	addiu	a1,a1,1
80018c70:	11800006 	beqz	t4,80018c8c <binary_user_check_icode_start+0x1cdc>
80018c74:	00000000 	nop
80018c78:	24c6ffff 	addiu	a2,a2,-1
80018c7c:	1cc00005 	bgtz	a2,80018c94 <binary_user_check_icode_start+0x1ce4>
80018c80:	00003821 	move	a3,zero
80018c84:	03e00008 	jr	ra
80018c88:	01201021 	move	v0,t1
80018c8c:	1000fffb 	b	80018c7c <binary_user_check_icode_start+0x1ccc>
80018c90:	2526ffff 	addiu	a2,t1,-1
80018c94:	00802821 	move	a1,a0
80018c98:	00862021 	addu	a0,a0,a2
80018c9c:	80a20000 	lb	v0,0(a1)
80018ca0:	90830000 	lbu	v1,0(a0)
80018ca4:	00000000 	nop
80018ca8:	a0a30000 	sb	v1,0(a1)
80018cac:	a0820000 	sb	v0,0(a0)
80018cb0:	24e70001 	addiu	a3,a3,1
80018cb4:	24c6ffff 	addiu	a2,a2,-1
80018cb8:	24a50001 	addiu	a1,a1,1
80018cbc:	00e6102a 	slt	v0,a3,a2
80018cc0:	10400008 	beqz	v0,80018ce4 <binary_user_check_icode_start+0x1d34>
80018cc4:	2484ffff 	addiu	a0,a0,-1
80018cc8:	1000fff4 	b	80018c9c <binary_user_check_icode_start+0x1cec>
80018ccc:	00000000 	nop
80018cd0:	1040ffe7 	beqz	v0,80018c70 <binary_user_check_icode_start+0x1cc0>
80018cd4:	00000000 	nop
80018cd8:	00862821 	addu	a1,a0,a2
80018cdc:	1000ffdf 	b	80018c5c <binary_user_check_icode_start+0x1cac>
80018ce0:	00001821 	move	v1,zero
80018ce4:	01201021 	move	v0,t1
80018ce8:	03e00008 	jr	ra
80018cec:	00000000 	nop
80018cf0:	27bdfbe0 	addiu	sp,sp,-1056
80018cf4:	afbf041c 	sw	ra,1052(sp)
80018cf8:	afb40418 	sw	s4,1048(sp)
80018cfc:	afb30414 	sw	s3,1044(sp)
80018d00:	afb20410 	sw	s2,1040(sp)
80018d04:	afb1040c 	sw	s1,1036(sp)
80018d08:	afb00408 	sw	s0,1032(sp)
80018d0c:	0080a021 	move	s4,a0
80018d10:	00a09821 	move	s3,a1
80018d14:	00c08021 	move	s0,a2
80018d18:	00e09021 	move	s2,a3
80018d1c:	82030000 	lb	v1,0(s0)
80018d20:	24020025 	li	v0,37
80018d24:	14620152 	bne	v1,v0,80019270 <binary_user_check_icode_start+0x22c0>
80018d28:	00000000 	nop
80018d2c:	1000000c 	b	80018d60 <binary_user_check_icode_start+0x1db0>
80018d30:	00000000 	nop
80018d34:	0280f809 	jalr	s4
80018d38:	24060001 	li	a2,1
80018d3c:	26100001 	addiu	s0,s0,1
80018d40:	82030000 	lb	v1,0(s0)
80018d44:	24020025 	li	v0,37
80018d48:	10620007 	beq	v1,v0,80018d68 <binary_user_check_icode_start+0x1db8>
80018d4c:	00000000 	nop
80018d50:	1060013a 	beqz	v1,8001923c <binary_user_check_icode_start+0x228c>
80018d54:	02602021 	move	a0,s3
80018d58:	1000fff6 	b	80018d34 <binary_user_check_icode_start+0x1d84>
80018d5c:	02002821 	move	a1,s0
80018d60:	10600137 	beqz	v1,80019240 <binary_user_check_icode_start+0x2290>
80018d64:	02602021 	move	a0,s3
80018d68:	82030001 	lb	v1,1(s0)
80018d6c:	2402002d 	li	v0,45
80018d70:	14620003 	bne	v1,v0,80018d80 <binary_user_check_icode_start+0x1dd0>
80018d74:	26110001 	addiu	s1,s0,1
80018d78:	10000008 	b	80018d9c <binary_user_check_icode_start+0x1dec>
80018d7c:	24070001 	li	a3,1
80018d80:	24020030 	li	v0,48
80018d84:	14620004 	bne	v1,v0,80018d98 <binary_user_check_icode_start+0x1de8>
80018d88:	00004021 	move	t0,zero
80018d8c:	24090030 	li	t1,48
80018d90:	1000000b 	b	80018dc0 <binary_user_check_icode_start+0x1e10>
80018d94:	00003821 	move	a3,zero
80018d98:	00003821 	move	a3,zero
80018d9c:	2402002a 	li	v0,42
80018da0:	10620003 	beq	v1,v0,80018db0 <binary_user_check_icode_start+0x1e00>
80018da4:	00004021 	move	t0,zero
80018da8:	10000005 	b	80018dc0 <binary_user_check_icode_start+0x1e10>
80018dac:	24090020 	li	t1,32
80018db0:	26110002 	addiu	s1,s0,2
80018db4:	8e480000 	lw	t0,0(s2)
80018db8:	26520004 	addiu	s2,s2,4
80018dbc:	24090020 	li	t1,32
80018dc0:	82230000 	lb	v1,0(s1)
80018dc4:	2402002d 	li	v0,45
80018dc8:	10620003 	beq	v1,v0,80018dd8 <binary_user_check_icode_start+0x1e28>
80018dcc:	24020030 	li	v0,48
80018dd0:	14620002 	bne	v1,v0,80018ddc <binary_user_check_icode_start+0x1e2c>
80018dd4:	00000000 	nop
80018dd8:	26310001 	addiu	s1,s1,1
80018ddc:	82260000 	lb	a2,0(s1)
80018de0:	00000000 	nop
80018de4:	24c2ffd0 	addiu	v0,a2,-48
80018de8:	304200ff 	andi	v0,v0,0xff
80018dec:	2c42000a 	sltiu	v0,v0,10
80018df0:	1040000f 	beqz	v0,80018e30 <binary_user_check_icode_start+0x1e80>
80018df4:	2402002e 	li	v0,46
80018df8:	00081040 	sll	v0,t0,0x1
80018dfc:	000818c0 	sll	v1,t0,0x3
80018e00:	00431021 	addu	v0,v0,v1
80018e04:	00461021 	addu	v0,v0,a2
80018e08:	2448ffd0 	addiu	t0,v0,-48
80018e0c:	26310001 	addiu	s1,s1,1
80018e10:	82260000 	lb	a2,0(s1)
80018e14:	00000000 	nop
80018e18:	24c2ffd0 	addiu	v0,a2,-48
80018e1c:	304200ff 	andi	v0,v0,0xff
80018e20:	2c42000a 	sltiu	v0,v0,10
80018e24:	1440fff5 	bnez	v0,80018dfc <binary_user_check_icode_start+0x1e4c>
80018e28:	00081040 	sll	v0,t0,0x1
80018e2c:	2402002e 	li	v0,46
80018e30:	14c20002 	bne	a2,v0,80018e3c <binary_user_check_icode_start+0x1e8c>
80018e34:	00000000 	nop
80018e38:	26310001 	addiu	s1,s1,1
80018e3c:	82230000 	lb	v1,0(s1)
80018e40:	00000000 	nop
80018e44:	2462ffd0 	addiu	v0,v1,-48
80018e48:	304200ff 	andi	v0,v0,0xff
80018e4c:	2c42000a 	sltiu	v0,v0,10
80018e50:	10400009 	beqz	v0,80018e78 <binary_user_check_icode_start+0x1ec8>
80018e54:	2402006c 	li	v0,108
80018e58:	26310001 	addiu	s1,s1,1
80018e5c:	82230000 	lb	v1,0(s1)
80018e60:	00000000 	nop
80018e64:	2462ffd0 	addiu	v0,v1,-48
80018e68:	304200ff 	andi	v0,v0,0xff
80018e6c:	2c42000a 	sltiu	v0,v0,10
80018e70:	1440fff9 	bnez	v0,80018e58 <binary_user_check_icode_start+0x1ea8>
80018e74:	2402006c 	li	v0,108
80018e78:	14620003 	bne	v1,v0,80018e88 <binary_user_check_icode_start+0x1ed8>
80018e7c:	00002021 	move	a0,zero
80018e80:	26310001 	addiu	s1,s1,1
80018e84:	24040001 	li	a0,1
80018e88:	82230000 	lb	v1,0(s1)
80018e8c:	00000000 	nop
80018e90:	2c620079 	sltiu	v0,v1,121
80018e94:	104000e3 	beqz	v0,80019224 <binary_user_check_icode_start+0x2274>
80018e98:	00031080 	sll	v0,v1,0x2
80018e9c:	3c030041 	lui	v1,0x41
80018ea0:	246395d4 	addiu	v1,v1,-27180
80018ea4:	00431021 	addu	v0,v0,v1
80018ea8:	8c420000 	lw	v0,0(v0)
80018eac:	00000000 	nop
80018eb0:	00400008 	jr	v0
80018eb4:	00000000 	nop
80018eb8:	10800004 	beqz	a0,80018ecc <binary_user_check_icode_start+0x1f1c>
80018ebc:	00000000 	nop
80018ec0:	8e450000 	lw	a1,0(s2)
80018ec4:	10000003 	b	80018ed4 <binary_user_check_icode_start+0x1f24>
80018ec8:	26520004 	addiu	s2,s2,4
80018ecc:	8e450000 	lw	a1,0(s2)
80018ed0:	26520004 	addiu	s2,s2,4
80018ed4:	afa80010 	sw	t0,16(sp)
80018ed8:	afa70014 	sw	a3,20(sp)
80018edc:	afa90018 	sw	t1,24(sp)
80018ee0:	afa0001c 	sw	zero,28(sp)
80018ee4:	27a40020 	addiu	a0,sp,32
80018ee8:	24060002 	li	a2,2
80018eec:	0c10091b 	jal	8040246c <end+0x246c>
80018ef0:	00003821 	move	a3,zero
80018ef4:	00403021 	move	a2,v0
80018ef8:	2c4203e9 	sltiu	v0,v0,1001
80018efc:	14400007 	bnez	v0,80018f1c <binary_user_check_icode_start+0x1f6c>
80018f00:	02602021 	move	a0,s3
80018f04:	3c050041 	lui	a1,0x41
80018f08:	24a595b8 	addiu	a1,a1,-27208
80018f0c:	0280f809 	jalr	s4
80018f10:	24060018 	li	a2,24
80018f14:	1000ffff 	b	80018f14 <binary_user_check_icode_start+0x1f64>
80018f18:	00000000 	nop
80018f1c:	0280f809 	jalr	s4
80018f20:	27a50020 	addiu	a1,sp,32
80018f24:	1000ff7d 	b	80018d1c <binary_user_check_icode_start+0x1d6c>
80018f28:	26300001 	addiu	s0,s1,1
80018f2c:	10800004 	beqz	a0,80018f40 <binary_user_check_icode_start+0x1f90>
80018f30:	00000000 	nop
80018f34:	8e450000 	lw	a1,0(s2)
80018f38:	10000003 	b	80018f48 <binary_user_check_icode_start+0x1f98>
80018f3c:	26520004 	addiu	s2,s2,4
80018f40:	8e450000 	lw	a1,0(s2)
80018f44:	26520004 	addiu	s2,s2,4
80018f48:	04a10003 	bgez	a1,80018f58 <binary_user_check_icode_start+0x1fa8>
80018f4c:	00001021 	move	v0,zero
80018f50:	00052823 	negu	a1,a1
80018f54:	24020001 	li	v0,1
80018f58:	afa80010 	sw	t0,16(sp)
80018f5c:	afa70014 	sw	a3,20(sp)
80018f60:	afa90018 	sw	t1,24(sp)
80018f64:	afa0001c 	sw	zero,28(sp)
80018f68:	27a40020 	addiu	a0,sp,32
80018f6c:	2406000a 	li	a2,10
80018f70:	0c10091b 	jal	8040246c <end+0x246c>
80018f74:	00403821 	move	a3,v0
80018f78:	00403021 	move	a2,v0
80018f7c:	2c4203e9 	sltiu	v0,v0,1001
80018f80:	14400007 	bnez	v0,80018fa0 <binary_user_check_icode_start+0x1ff0>
80018f84:	02602021 	move	a0,s3
80018f88:	3c050041 	lui	a1,0x41
80018f8c:	24a595b8 	addiu	a1,a1,-27208
80018f90:	0280f809 	jalr	s4
80018f94:	24060018 	li	a2,24
80018f98:	1000ffff 	b	80018f98 <binary_user_check_icode_start+0x1fe8>
80018f9c:	00000000 	nop
80018fa0:	0280f809 	jalr	s4
80018fa4:	27a50020 	addiu	a1,sp,32
80018fa8:	1000ff5c 	b	80018d1c <binary_user_check_icode_start+0x1d6c>
80018fac:	26300001 	addiu	s0,s1,1
80018fb0:	10800004 	beqz	a0,80018fc4 <binary_user_check_icode_start+0x2014>
80018fb4:	00000000 	nop
80018fb8:	8e450000 	lw	a1,0(s2)
80018fbc:	10000003 	b	80018fcc <binary_user_check_icode_start+0x201c>
80018fc0:	26520004 	addiu	s2,s2,4
80018fc4:	8e450000 	lw	a1,0(s2)
80018fc8:	26520004 	addiu	s2,s2,4
80018fcc:	afa80010 	sw	t0,16(sp)
80018fd0:	afa70014 	sw	a3,20(sp)
80018fd4:	afa90018 	sw	t1,24(sp)
80018fd8:	afa0001c 	sw	zero,28(sp)
80018fdc:	27a40020 	addiu	a0,sp,32
80018fe0:	24060008 	li	a2,8
80018fe4:	0c10091b 	jal	8040246c <end+0x246c>
80018fe8:	00003821 	move	a3,zero
80018fec:	00403021 	move	a2,v0
80018ff0:	2c4203e9 	sltiu	v0,v0,1001
80018ff4:	14400007 	bnez	v0,80019014 <binary_user_check_icode_start+0x2064>
80018ff8:	02602021 	move	a0,s3
80018ffc:	3c050041 	lui	a1,0x41
80019000:	24a595b8 	addiu	a1,a1,-27208
80019004:	0280f809 	jalr	s4
80019008:	24060018 	li	a2,24
8001900c:	1000ffff 	b	8001900c <binary_user_check_icode_start+0x205c>
80019010:	00000000 	nop
80019014:	0280f809 	jalr	s4
80019018:	27a50020 	addiu	a1,sp,32
8001901c:	1000ff3f 	b	80018d1c <binary_user_check_icode_start+0x1d6c>
80019020:	26300001 	addiu	s0,s1,1
80019024:	10800004 	beqz	a0,80019038 <binary_user_check_icode_start+0x2088>
80019028:	00000000 	nop
8001902c:	8e450000 	lw	a1,0(s2)
80019030:	10000003 	b	80019040 <binary_user_check_icode_start+0x2090>
80019034:	26520004 	addiu	s2,s2,4
80019038:	8e450000 	lw	a1,0(s2)
8001903c:	26520004 	addiu	s2,s2,4
80019040:	afa80010 	sw	t0,16(sp)
80019044:	afa70014 	sw	a3,20(sp)
80019048:	afa90018 	sw	t1,24(sp)
8001904c:	afa0001c 	sw	zero,28(sp)
80019050:	27a40020 	addiu	a0,sp,32
80019054:	2406000a 	li	a2,10
80019058:	0c10091b 	jal	8040246c <end+0x246c>
8001905c:	00003821 	move	a3,zero
80019060:	00403021 	move	a2,v0
80019064:	2c4203e9 	sltiu	v0,v0,1001
80019068:	14400007 	bnez	v0,80019088 <binary_user_check_icode_start+0x20d8>
8001906c:	02602021 	move	a0,s3
80019070:	3c050041 	lui	a1,0x41
80019074:	24a595b8 	addiu	a1,a1,-27208
80019078:	0280f809 	jalr	s4
8001907c:	24060018 	li	a2,24
80019080:	1000ffff 	b	80019080 <binary_user_check_icode_start+0x20d0>
80019084:	00000000 	nop
80019088:	0280f809 	jalr	s4
8001908c:	27a50020 	addiu	a1,sp,32
80019090:	1000ff22 	b	80018d1c <binary_user_check_icode_start+0x1d6c>
80019094:	26300001 	addiu	s0,s1,1
80019098:	10800004 	beqz	a0,800190ac <binary_user_check_icode_start+0x20fc>
8001909c:	00000000 	nop
800190a0:	8e450000 	lw	a1,0(s2)
800190a4:	10000003 	b	800190b4 <binary_user_check_icode_start+0x2104>
800190a8:	26520004 	addiu	s2,s2,4
800190ac:	8e450000 	lw	a1,0(s2)
800190b0:	26520004 	addiu	s2,s2,4
800190b4:	afa80010 	sw	t0,16(sp)
800190b8:	afa70014 	sw	a3,20(sp)
800190bc:	afa90018 	sw	t1,24(sp)
800190c0:	afa0001c 	sw	zero,28(sp)
800190c4:	27a40020 	addiu	a0,sp,32
800190c8:	24060010 	li	a2,16
800190cc:	0c10091b 	jal	8040246c <end+0x246c>
800190d0:	00003821 	move	a3,zero
800190d4:	00403021 	move	a2,v0
800190d8:	2c4203e9 	sltiu	v0,v0,1001
800190dc:	14400007 	bnez	v0,800190fc <binary_user_check_icode_start+0x214c>
800190e0:	02602021 	move	a0,s3
800190e4:	3c050041 	lui	a1,0x41
800190e8:	24a595b8 	addiu	a1,a1,-27208
800190ec:	0280f809 	jalr	s4
800190f0:	24060018 	li	a2,24
800190f4:	1000ffff 	b	800190f4 <binary_user_check_icode_start+0x2144>
800190f8:	00000000 	nop
800190fc:	0280f809 	jalr	s4
80019100:	27a50020 	addiu	a1,sp,32
80019104:	1000ff05 	b	80018d1c <binary_user_check_icode_start+0x1d6c>
80019108:	26300001 	addiu	s0,s1,1
8001910c:	10800004 	beqz	a0,80019120 <binary_user_check_icode_start+0x2170>
80019110:	00000000 	nop
80019114:	8e450000 	lw	a1,0(s2)
80019118:	10000003 	b	80019128 <binary_user_check_icode_start+0x2178>
8001911c:	26520004 	addiu	s2,s2,4
80019120:	8e450000 	lw	a1,0(s2)
80019124:	26520004 	addiu	s2,s2,4
80019128:	afa80010 	sw	t0,16(sp)
8001912c:	afa70014 	sw	a3,20(sp)
80019130:	afa90018 	sw	t1,24(sp)
80019134:	24020001 	li	v0,1
80019138:	afa2001c 	sw	v0,28(sp)
8001913c:	27a40020 	addiu	a0,sp,32
80019140:	24060010 	li	a2,16
80019144:	0c10091b 	jal	8040246c <end+0x246c>
80019148:	00003821 	move	a3,zero
8001914c:	00403021 	move	a2,v0
80019150:	2c4203e9 	sltiu	v0,v0,1001
80019154:	14400007 	bnez	v0,80019174 <binary_user_check_icode_start+0x21c4>
80019158:	02602021 	move	a0,s3
8001915c:	3c050041 	lui	a1,0x41
80019160:	24a595b8 	addiu	a1,a1,-27208
80019164:	0280f809 	jalr	s4
80019168:	24060018 	li	a2,24
8001916c:	1000ffff 	b	8001916c <binary_user_check_icode_start+0x21bc>
80019170:	00000000 	nop
80019174:	0280f809 	jalr	s4
80019178:	27a50020 	addiu	a1,sp,32
8001917c:	1000fee7 	b	80018d1c <binary_user_check_icode_start+0x1d6c>
80019180:	26300001 	addiu	s0,s1,1
80019184:	26500004 	addiu	s0,s2,4
80019188:	27a40020 	addiu	a0,sp,32
8001918c:	82450003 	lb	a1,3(s2)
80019190:	0c1008b4 	jal	804022d0 <end+0x22d0>
80019194:	01003021 	move	a2,t0
80019198:	00403021 	move	a2,v0
8001919c:	2c4203e9 	sltiu	v0,v0,1001
800191a0:	14400007 	bnez	v0,800191c0 <binary_user_check_icode_start+0x2210>
800191a4:	02602021 	move	a0,s3
800191a8:	3c050041 	lui	a1,0x41
800191ac:	24a595b8 	addiu	a1,a1,-27208
800191b0:	0280f809 	jalr	s4
800191b4:	24060018 	li	a2,24
800191b8:	1000ffff 	b	800191b8 <binary_user_check_icode_start+0x2208>
800191bc:	00000000 	nop
800191c0:	0280f809 	jalr	s4
800191c4:	27a50020 	addiu	a1,sp,32
800191c8:	1000001a 	b	80019234 <binary_user_check_icode_start+0x2284>
800191cc:	02009021 	move	s2,s0
800191d0:	26500004 	addiu	s0,s2,4
800191d4:	27a40020 	addiu	a0,sp,32
800191d8:	8e450000 	lw	a1,0(s2)
800191dc:	0c1008d3 	jal	8040234c <end+0x234c>
800191e0:	01003021 	move	a2,t0
800191e4:	00403021 	move	a2,v0
800191e8:	2c4203e9 	sltiu	v0,v0,1001
800191ec:	14400007 	bnez	v0,8001920c <binary_user_check_icode_start+0x225c>
800191f0:	02602021 	move	a0,s3
800191f4:	3c050041 	lui	a1,0x41
800191f8:	24a595b8 	addiu	a1,a1,-27208
800191fc:	0280f809 	jalr	s4
80019200:	24060018 	li	a2,24
80019204:	1000ffff 	b	80019204 <binary_user_check_icode_start+0x2254>
80019208:	00000000 	nop
8001920c:	0280f809 	jalr	s4
80019210:	27a50020 	addiu	a1,sp,32
80019214:	10000007 	b	80019234 <binary_user_check_icode_start+0x2284>
80019218:	02009021 	move	s2,s0
8001921c:	10000005 	b	80019234 <binary_user_check_icode_start+0x2284>
80019220:	2631ffff 	addiu	s1,s1,-1
80019224:	02602021 	move	a0,s3
80019228:	02202821 	move	a1,s1
8001922c:	0280f809 	jalr	s4
80019230:	24060001 	li	a2,1
80019234:	1000feb9 	b	80018d1c <binary_user_check_icode_start+0x1d6c>
80019238:	26300001 	addiu	s0,s1,1
8001923c:	02602021 	move	a0,s3
80019240:	3c050041 	lui	a1,0x41
80019244:	24a593d0 	addiu	a1,a1,-27696
80019248:	0280f809 	jalr	s4
8001924c:	24060001 	li	a2,1
80019250:	8fbf041c 	lw	ra,1052(sp)
80019254:	8fb40418 	lw	s4,1048(sp)
80019258:	8fb30414 	lw	s3,1044(sp)
8001925c:	8fb20410 	lw	s2,1040(sp)
80019260:	8fb1040c 	lw	s1,1036(sp)
80019264:	8fb00408 	lw	s0,1032(sp)
80019268:	03e00008 	jr	ra
8001926c:	27bd0420 	addiu	sp,sp,1056
80019270:	1060fff2 	beqz	v1,8001923c <binary_user_check_icode_start+0x228c>
80019274:	02602021 	move	a0,s3
80019278:	1000feae 	b	80018d34 <binary_user_check_icode_start+0x1d84>
8001927c:	02002821 	move	a1,s0
80019280:	00052e00 	sll	a1,a1,0x18
80019284:	1cc00002 	bgtz	a2,80019290 <binary_user_check_icode_start+0x22e0>
80019288:	00052e03 	sra	a1,a1,0x18
8001928c:	24060001 	li	a2,1
80019290:	10e00014 	beqz	a3,800192e4 <binary_user_check_icode_start+0x2334>
80019294:	28c20002 	slti	v0,a2,2
80019298:	14400016 	bnez	v0,800192f4 <binary_user_check_icode_start+0x2344>
8001929c:	a0850000 	sb	a1,0(a0)
800192a0:	24030001 	li	v1,1
800192a4:	24050020 	li	a1,32
800192a8:	00831021 	addu	v0,a0,v1
800192ac:	24630001 	addiu	v1,v1,1
800192b0:	10c30010 	beq	a2,v1,800192f4 <binary_user_check_icode_start+0x2344>
800192b4:	a0450000 	sb	a1,0(v0)
800192b8:	1000fffc 	b	800192ac <binary_user_check_icode_start+0x22fc>
800192bc:	00831021 	addu	v0,a0,v1
800192c0:	00001821 	move	v1,zero
800192c4:	24080020 	li	t0,32
800192c8:	00641021 	addu	v0,v1,a0
800192cc:	24630001 	addiu	v1,v1,1
800192d0:	1467fffd 	bne	v1,a3,800192c8 <binary_user_check_icode_start+0x2318>
800192d4:	a0480000 	sb	t0,0(v0)
800192d8:	00c41021 	addu	v0,a2,a0
800192dc:	10000005 	b	800192f4 <binary_user_check_icode_start+0x2344>
800192e0:	a045ffff 	sb	a1,-1(v0)
800192e4:	24c7ffff 	addiu	a3,a2,-1
800192e8:	1ce0fff5 	bgtz	a3,800192c0 <binary_user_check_icode_start+0x2310>
800192ec:	00c41021 	addu	v0,a2,a0
800192f0:	a045ffff 	sb	a1,-1(v0)
800192f4:	03e00008 	jr	ra
800192f8:	00c01021 	move	v0,a2
800192fc:	80a20000 	lb	v0,0(a1)
80019300:	00000000 	nop
80019304:	14400003 	bnez	v0,80019314 <binary_user_check_icode_start+0x2364>
80019308:	24a30001 	addiu	v1,a1,1
8001930c:	10000007 	b	8001932c <binary_user_check_icode_start+0x237c>
80019310:	00004021 	move	t0,zero
80019314:	00004021 	move	t0,zero
80019318:	25080001 	addiu	t0,t0,1
8001931c:	80620000 	lb	v0,0(v1)
80019320:	00000000 	nop
80019324:	1440fffc 	bnez	v0,80019318 <binary_user_check_icode_start+0x2368>
80019328:	24630001 	addiu	v1,v1,1
8001932c:	00c8102a 	slt	v0,a2,t0
80019330:	10400002 	beqz	v0,8001933c <binary_user_check_icode_start+0x238c>
80019334:	00000000 	nop
80019338:	01003021 	move	a2,t0
8001933c:	14e00031 	bnez	a3,80019404 <binary_user_check_icode_start+0x2454>
80019340:	00c83823 	subu	a3,a2,t0
80019344:	1000002b 	b	800193f4 <binary_user_check_icode_start+0x2444>
80019348:	00000000 	nop
8001934c:	00003821 	move	a3,zero
80019350:	00871021 	addu	v0,a0,a3
80019354:	00a71821 	addu	v1,a1,a3
80019358:	90630000 	lbu	v1,0(v1)
8001935c:	24e70001 	addiu	a3,a3,1
80019360:	1507fffb 	bne	t0,a3,80019350 <binary_user_check_icode_start+0x23a0>
80019364:	a0430000 	sb	v1,0(v0)
80019368:	0106102a 	slt	v0,t0,a2
8001936c:	10400029 	beqz	v0,80019414 <binary_user_check_icode_start+0x2464>
80019370:	00001821 	move	v1,zero
80019374:	00881021 	addu	v0,a0,t0
80019378:	24050020 	li	a1,32
8001937c:	00c82023 	subu	a0,a2,t0
80019380:	a0450000 	sb	a1,0(v0)
80019384:	24630001 	addiu	v1,v1,1
80019388:	10640022 	beq	v1,a0,80019414 <binary_user_check_icode_start+0x2464>
8001938c:	24420001 	addiu	v0,v0,1
80019390:	1000fffc 	b	80019384 <binary_user_check_icode_start+0x23d4>
80019394:	a0450000 	sb	a1,0(v0)
80019398:	00001821 	move	v1,zero
8001939c:	24090020 	li	t1,32
800193a0:	00831021 	addu	v0,a0,v1
800193a4:	24630001 	addiu	v1,v1,1
800193a8:	1467fffd 	bne	v1,a3,800193a0 <binary_user_check_icode_start+0x23f0>
800193ac:	a0490000 	sb	t1,0(v0)
800193b0:	00e6102a 	slt	v0,a3,a2
800193b4:	10400017 	beqz	v0,80019414 <binary_user_check_icode_start+0x2464>
800193b8:	00872021 	addu	a0,a0,a3
800193bc:	00e61023 	subu	v0,a3,a2
800193c0:	01021021 	addu	v0,t0,v0
800193c4:	00a21821 	addu	v1,a1,v0
800193c8:	00002821 	move	a1,zero
800193cc:	00c73823 	subu	a3,a2,a3
800193d0:	90620000 	lbu	v0,0(v1)
800193d4:	00000000 	nop
800193d8:	a0820000 	sb	v0,0(a0)
800193dc:	24a50001 	addiu	a1,a1,1
800193e0:	24630001 	addiu	v1,v1,1
800193e4:	10a7000b 	beq	a1,a3,80019414 <binary_user_check_icode_start+0x2464>
800193e8:	24840001 	addiu	a0,a0,1
800193ec:	1000fff8 	b	800193d0 <binary_user_check_icode_start+0x2420>
800193f0:	00000000 	nop
800193f4:	1ce0ffe8 	bgtz	a3,80019398 <binary_user_check_icode_start+0x23e8>
800193f8:	00e6102a 	slt	v0,a3,a2
800193fc:	1000ffed 	b	800193b4 <binary_user_check_icode_start+0x2404>
80019400:	00000000 	nop
80019404:	1d00ffd1 	bgtz	t0,8001934c <binary_user_check_icode_start+0x239c>
80019408:	0106102a 	slt	v0,t0,a2
8001940c:	1000ffd7 	b	8001936c <binary_user_check_icode_start+0x23bc>
80019410:	00000000 	nop
80019414:	03e00008 	jr	ra
80019418:	00c01021 	move	v0,a2
8001941c:	8fa90010 	lw	t1,16(sp)
80019420:	8fac0014 	lw	t4,20(sp)
80019424:	8fab001c 	lw	t3,28(sp)
80019428:	83aa001b 	lb	t2,27(sp)
8001942c:	00804021 	move	t0,a0
80019430:	14c00002 	bnez	a2,8001943c <binary_user_check_icode_start+0x248c>
80019434:	00a6001b 	divu	zero,a1,a2
80019438:	0007000d 	break	0x7
8001943c:	00001810 	mfhi	v1
80019440:	2862000a 	slti	v0,v1,10
80019444:	10400004 	beqz	v0,80019458 <binary_user_check_icode_start+0x24a8>
80019448:	24620030 	addiu	v0,v1,48
8001944c:	a1020000 	sb	v0,0(t0)
80019450:	1000000c 	b	80019484 <binary_user_check_icode_start+0x24d4>
80019454:	25080001 	addiu	t0,t0,1
80019458:	11600005 	beqz	t3,80019470 <binary_user_check_icode_start+0x24c0>
8001945c:	24620057 	addiu	v0,v1,87
80019460:	24620037 	addiu	v0,v1,55
80019464:	a1020000 	sb	v0,0(t0)
80019468:	10000003 	b	80019478 <binary_user_check_icode_start+0x24c8>
8001946c:	25080001 	addiu	t0,t0,1
80019470:	a1020000 	sb	v0,0(t0)
80019474:	25080001 	addiu	t0,t0,1
80019478:	14c00002 	bnez	a2,80019484 <binary_user_check_icode_start+0x24d4>
8001947c:	00a6001b 	divu	zero,a1,a2
80019480:	0007000d 	break	0x7
80019484:	00002812 	mflo	a1
80019488:	14a0ffe9 	bnez	a1,80019430 <binary_user_check_icode_start+0x2480>
8001948c:	00000000 	nop
80019490:	10e00005 	beqz	a3,800194a8 <binary_user_check_icode_start+0x24f8>
80019494:	01043023 	subu	a2,t0,a0
80019498:	2402002d 	li	v0,45
8001949c:	a1020000 	sb	v0,0(t0)
800194a0:	25080001 	addiu	t0,t0,1
800194a4:	01043023 	subu	a2,t0,a0
800194a8:	0126102a 	slt	v0,t1,a2
800194ac:	10400002 	beqz	v0,800194b8 <binary_user_check_icode_start+0x2508>
800194b0:	00000000 	nop
800194b4:	00c04821 	move	t1,a2
800194b8:	11800002 	beqz	t4,800194c4 <binary_user_check_icode_start+0x2514>
800194bc:	00000000 	nop
800194c0:	240a0020 	li	t2,32
800194c4:	10e00033 	beqz	a3,80019594 <binary_user_check_icode_start+0x25e4>
800194c8:	00c9102a 	slt	v0,a2,t1
800194cc:	15800031 	bnez	t4,80019594 <binary_user_check_icode_start+0x25e4>
800194d0:	00000000 	nop
800194d4:	24020030 	li	v0,48
800194d8:	1542002e 	bne	t2,v0,80019594 <binary_user_check_icode_start+0x25e4>
800194dc:	00c9102a 	slt	v0,a2,t1
800194e0:	24c6ffff 	addiu	a2,a2,-1
800194e4:	2528ffff 	addiu	t0,t1,-1
800194e8:	00c8102a 	slt	v0,a2,t0
800194ec:	10400008 	beqz	v0,80019510 <binary_user_check_icode_start+0x2560>
800194f0:	01061023 	subu	v0,t0,a2
800194f4:	00861821 	addu	v1,a0,a2
800194f8:	00002821 	move	a1,zero
800194fc:	24070030 	li	a3,48
80019500:	a0670000 	sb	a3,0(v1)
80019504:	24a50001 	addiu	a1,a1,1
80019508:	14a2fffd 	bne	a1,v0,80019500 <binary_user_check_icode_start+0x2550>
8001950c:	24630001 	addiu	v1,v1,1
80019510:	00891821 	addu	v1,a0,t1
80019514:	2402002d 	li	v0,45
80019518:	1000000d 	b	80019550 <binary_user_check_icode_start+0x25a0>
8001951c:	a062ffff 	sb	v0,-1(v1)
80019520:	a0aa0000 	sb	t2,0(a1)
80019524:	24630001 	addiu	v1,v1,1
80019528:	01261023 	subu	v0,t1,a2
8001952c:	1462fffc 	bne	v1,v0,80019520 <binary_user_check_icode_start+0x2570>
80019530:	24a50001 	addiu	a1,a1,1
80019534:	11800006 	beqz	t4,80019550 <binary_user_check_icode_start+0x25a0>
80019538:	00000000 	nop
8001953c:	24c6ffff 	addiu	a2,a2,-1
80019540:	1cc00005 	bgtz	a2,80019558 <binary_user_check_icode_start+0x25a8>
80019544:	00003821 	move	a3,zero
80019548:	03e00008 	jr	ra
8001954c:	01201021 	move	v0,t1
80019550:	1000fffb 	b	80019540 <binary_user_check_icode_start+0x2590>
80019554:	2526ffff 	addiu	a2,t1,-1
80019558:	00802821 	move	a1,a0
8001955c:	00862021 	addu	a0,a0,a2
80019560:	80a20000 	lb	v0,0(a1)
80019564:	90830000 	lbu	v1,0(a0)
80019568:	00000000 	nop
8001956c:	a0a30000 	sb	v1,0(a1)
80019570:	a0820000 	sb	v0,0(a0)
80019574:	24e70001 	addiu	a3,a3,1
80019578:	24c6ffff 	addiu	a2,a2,-1
8001957c:	24a50001 	addiu	a1,a1,1
80019580:	00e6102a 	slt	v0,a3,a2
80019584:	10400008 	beqz	v0,800195a8 <binary_user_check_icode_start+0x25f8>
80019588:	2484ffff 	addiu	a0,a0,-1
8001958c:	1000fff4 	b	80019560 <binary_user_check_icode_start+0x25b0>
80019590:	00000000 	nop
80019594:	1040ffe7 	beqz	v0,80019534 <binary_user_check_icode_start+0x2584>
80019598:	00000000 	nop
8001959c:	00862821 	addu	a1,a0,a2
800195a0:	1000ffdf 	b	80019520 <binary_user_check_icode_start+0x2570>
800195a4:	00001821 	move	v1,zero
800195a8:	01201021 	move	v0,t1
800195ac:	03e00008 	jr	ra
800195b0:	00000000 	nop
	...
800195c0:	27bdffe8 	addiu	sp,sp,-24
800195c4:	afbf0010 	sw	ra,16(sp)
800195c8:	0c100b0c 	jal	80402c30 <end+0x2c30>
800195cc:	00002021 	move	a0,zero
800195d0:	8fbf0010 	lw	ra,16(sp)
800195d4:	00000000 	nop
800195d8:	03e00008 	jr	ra
800195dc:	27bd0018 	addiu	sp,sp,24
800195e0:	27bdffe8 	addiu	sp,sp,-24
800195e4:	afbf0010 	sw	ra,16(sp)
800195e8:	3c020040 	lui	v0,0x40
800195ec:	8c437000 	lw	v1,28672(v0)
800195f0:	3c020041 	lui	v0,0x41
800195f4:	0c100446 	jal	80401118 <end+0x1118>
800195f8:	ac43afd0 	sw	v1,-20528(v0)
800195fc:	0c100984 	jal	80402610 <end+0x2610>
80019600:	00000000 	nop
80019604:	8fbf0010 	lw	ra,16(sp)
80019608:	00000000 	nop
8001960c:	03e00008 	jr	ra
80019610:	27bd0018 	addiu	sp,sp,24
	...
80019620:	30820003 	andi	v0,a0,0x3
80019624:	14400004 	bnez	v0,80019638 <binary_user_check_icode_start+0x2688>
80019628:	00c53021 	addu	a2,a2,a1
8001962c:	30a20003 	andi	v0,a1,0x3
80019630:	10400018 	beqz	v0,80019694 <binary_user_check_icode_start+0x26e4>
80019634:	24a20003 	addiu	v0,a1,3
80019638:	00a6102b 	sltu	v0,a1,a2
8001963c:	1440000d 	bnez	v0,80019674 <binary_user_check_icode_start+0x26c4>
80019640:	00a01821 	move	v1,a1
80019644:	03e00008 	jr	ra
80019648:	00000000 	nop
8001964c:	8c820000 	lw	v0,0(a0)
80019650:	00000000 	nop
80019654:	aca20000 	sw	v0,0(a1)
80019658:	24a50004 	addiu	a1,a1,4
8001965c:	24630007 	addiu	v1,v1,7
80019660:	0066182b 	sltu	v1,v1,a2
80019664:	1060fff4 	beqz	v1,80019638 <binary_user_check_icode_start+0x2688>
80019668:	24840004 	addiu	a0,a0,4
8001966c:	1000fff7 	b	8001964c <binary_user_check_icode_start+0x269c>
80019670:	00a01821 	move	v1,a1
80019674:	90820000 	lbu	v0,0(a0)
80019678:	00000000 	nop
8001967c:	a0620000 	sb	v0,0(v1)
80019680:	24630001 	addiu	v1,v1,1
80019684:	1066ffef 	beq	v1,a2,80019644 <binary_user_check_icode_start+0x2694>
80019688:	24840001 	addiu	a0,a0,1
8001968c:	1000fff9 	b	80019674 <binary_user_check_icode_start+0x26c4>
80019690:	00000000 	nop
80019694:	0046102b 	sltu	v0,v0,a2
80019698:	1440ffec 	bnez	v0,8001964c <binary_user_check_icode_start+0x269c>
8001969c:	00a01821 	move	v1,a1
800196a0:	1000ffe6 	b	8001963c <binary_user_check_icode_start+0x268c>
800196a4:	00a6102b 	sltu	v0,a1,a2
800196a8:	24a2ffff 	addiu	v0,a1,-1
800196ac:	04400007 	bltz	v0,800196cc <binary_user_check_icode_start+0x271c>
800196b0:	00801821 	move	v1,a0
800196b4:	00821021 	addu	v0,a0,v0
800196b8:	24420001 	addiu	v0,v0,1
800196bc:	a0600000 	sb	zero,0(v1)
800196c0:	24630001 	addiu	v1,v1,1
800196c4:	1462fffd 	bne	v1,v0,800196bc <binary_user_check_icode_start+0x270c>
800196c8:	00000000 	nop
800196cc:	03e00008 	jr	ra
800196d0:	00000000 	nop
800196d4:	27bdffd8 	addiu	sp,sp,-40
800196d8:	afbf0024 	sw	ra,36(sp)
800196dc:	afb20020 	sw	s2,32(sp)
800196e0:	afb1001c 	sw	s1,28(sp)
800196e4:	afb00018 	sw	s0,24(sp)
800196e8:	2402f000 	li	v0,-4096
800196ec:	00828824 	and	s1,a0,v0
800196f0:	00111a82 	srl	v1,s1,0xa
800196f4:	3c020040 	lui	v0,0x40
800196f8:	8c427008 	lw	v0,28680(v0)
800196fc:	00000000 	nop
80019700:	00621821 	addu	v1,v1,v0
80019704:	8c620000 	lw	v0,0(v1)
80019708:	00000000 	nop
8001970c:	30460ffe 	andi	a2,v0,0xffe
80019710:	8c620000 	lw	v0,0(v1)
80019714:	00000000 	nop
80019718:	30420001 	andi	v0,v0,0x1
8001971c:	14400007 	bnez	v0,8001973c <binary_user_check_icode_start+0x278c>
80019720:	34d20600 	ori	s2,a2,0x600
80019724:	3c040041 	lui	a0,0x41
80019728:	248497d8 	addiu	a0,a0,-26664
8001972c:	24050059 	li	a1,89
80019730:	3c060041 	lui	a2,0x41
80019734:	0c10048a 	jal	80401228 <end+0x1228>
80019738:	24c697e0 	addiu	a2,a2,-26656
8001973c:	00002021 	move	a0,zero
80019740:	3c057f3f 	lui	a1,0x7f3f
80019744:	34a5e000 	ori	a1,a1,0xe000
80019748:	0c100b28 	jal	80402ca0 <end+0x2ca0>
8001974c:	02403021 	move	a2,s2
80019750:	04410007 	bgez	v0,80019770 <binary_user_check_icode_start+0x27c0>
80019754:	02202021 	move	a0,s1
80019758:	3c040041 	lui	a0,0x41
8001975c:	248497d8 	addiu	a0,a0,-26664
80019760:	2405005e 	li	a1,94
80019764:	3c060041 	lui	a2,0x41
80019768:	0c10048a 	jal	80401228 <end+0x1228>
8001976c:	24c69818 	addiu	a2,a2,-26600
80019770:	3c107f3f 	lui	s0,0x7f3f
80019774:	3605e000 	ori	a1,s0,0xe000
80019778:	0c10099c 	jal	80402670 <end+0x2670>
8001977c:	24061000 	li	a2,4096
80019780:	afb20010 	sw	s2,16(sp)
80019784:	00002021 	move	a0,zero
80019788:	3605e000 	ori	a1,s0,0xe000
8001978c:	00003021 	move	a2,zero
80019790:	0c100b37 	jal	80402cdc <end+0x2cdc>
80019794:	02203821 	move	a3,s1
80019798:	04410007 	bgez	v0,800197b8 <binary_user_check_icode_start+0x2808>
8001979c:	00002021 	move	a0,zero
800197a0:	3c040041 	lui	a0,0x41
800197a4:	248497d8 	addiu	a0,a0,-26664
800197a8:	24050064 	li	a1,100
800197ac:	3c060041 	lui	a2,0x41
800197b0:	0c10048a 	jal	80401228 <end+0x1228>
800197b4:	24c69840 	addiu	a2,a2,-26560
800197b8:	3c057f3f 	lui	a1,0x7f3f
800197bc:	0c100b49 	jal	80402d24 <end+0x2d24>
800197c0:	34a5e000 	ori	a1,a1,0xe000
800197c4:	04410006 	bgez	v0,800197e0 <binary_user_check_icode_start+0x2830>
800197c8:	3c040041 	lui	a0,0x41
800197cc:	248497d8 	addiu	a0,a0,-26664
800197d0:	24050067 	li	a1,103
800197d4:	3c060041 	lui	a2,0x41
800197d8:	0c10048a 	jal	80401228 <end+0x1228>
800197dc:	24c69864 	addiu	a2,a2,-26524
800197e0:	8fbf0024 	lw	ra,36(sp)
800197e4:	8fb20020 	lw	s2,32(sp)
800197e8:	8fb1001c 	lw	s1,28(sp)
800197ec:	8fb00018 	lw	s0,24(sp)
800197f0:	03e00008 	jr	ra
800197f4:	27bd0028 	addiu	sp,sp,40
800197f8:	27bdffd8 	addiu	sp,sp,-40
800197fc:	afbf0020 	sw	ra,32(sp)
80019800:	afb1001c 	sw	s1,28(sp)
80019804:	afb00018 	sw	s0,24(sp)
80019808:	00803021 	move	a2,a0
8001980c:	00058300 	sll	s0,a1,0xc
80019810:	00052880 	sll	a1,a1,0x2
80019814:	3c020040 	lui	v0,0x40
80019818:	8c427008 	lw	v0,28680(v0)
8001981c:	00000000 	nop
80019820:	00a22821 	addu	a1,a1,v0
80019824:	8ca20000 	lw	v0,0(a1)
80019828:	00000000 	nop
8001982c:	30430fff 	andi	v1,v0,0xfff
80019830:	8ca20000 	lw	v0,0(a1)
80019834:	00000000 	nop
80019838:	30420400 	andi	v0,v0,0x400
8001983c:	10400023 	beqz	v0,800198cc <binary_user_check_icode_start+0x291c>
80019840:	34620200 	ori	v0,v1,0x200
80019844:	8ca20000 	lw	v0,0(a1)
80019848:	00000000 	nop
8001984c:	30420004 	andi	v0,v0,0x4
80019850:	10400010 	beqz	v0,80019894 <binary_user_check_icode_start+0x28e4>
80019854:	34710601 	ori	s1,v1,0x601
80019858:	34710604 	ori	s1,v1,0x604
8001985c:	afb10010 	sw	s1,16(sp)
80019860:	00002021 	move	a0,zero
80019864:	02002821 	move	a1,s0
80019868:	0c100b37 	jal	80402cdc <end+0x2cdc>
8001986c:	02003821 	move	a3,s0
80019870:	0440001b 	bltz	v0,800198e0 <binary_user_check_icode_start+0x2930>
80019874:	00002021 	move	a0,zero
80019878:	afb10010 	sw	s1,16(sp)
8001987c:	02002821 	move	a1,s0
80019880:	00003021 	move	a2,zero
80019884:	0c100b37 	jal	80402cdc <end+0x2cdc>
80019888:	02003821 	move	a3,s0
8001988c:	10000014 	b	800198e0 <binary_user_check_icode_start+0x2930>
80019890:	00000000 	nop
80019894:	afb10010 	sw	s1,16(sp)
80019898:	00002021 	move	a0,zero
8001989c:	02002821 	move	a1,s0
800198a0:	0c100b37 	jal	80402cdc <end+0x2cdc>
800198a4:	02003821 	move	a3,s0
800198a8:	0440000d 	bltz	v0,800198e0 <binary_user_check_icode_start+0x2930>
800198ac:	00002021 	move	a0,zero
800198b0:	afb10010 	sw	s1,16(sp)
800198b4:	02002821 	move	a1,s0
800198b8:	00003021 	move	a2,zero
800198bc:	0c100b37 	jal	80402cdc <end+0x2cdc>
800198c0:	02003821 	move	a3,s0
800198c4:	10000006 	b	800198e0 <binary_user_check_icode_start+0x2930>
800198c8:	00000000 	nop
800198cc:	afa20010 	sw	v0,16(sp)
800198d0:	00002021 	move	a0,zero
800198d4:	02002821 	move	a1,s0
800198d8:	0c100b37 	jal	80402cdc <end+0x2cdc>
800198dc:	02003821 	move	a3,s0
800198e0:	8fbf0020 	lw	ra,32(sp)
800198e4:	8fb1001c 	lw	s1,28(sp)
800198e8:	8fb00018 	lw	s0,24(sp)
800198ec:	03e00008 	jr	ra
800198f0:	27bd0028 	addiu	sp,sp,40
800198f4:	27bdffc0 	addiu	sp,sp,-64
800198f8:	afbf003c 	sw	ra,60(sp)
800198fc:	afbe0038 	sw	s8,56(sp)
80019900:	afb70034 	sw	s7,52(sp)
80019904:	afb60030 	sw	s6,48(sp)
80019908:	afb5002c 	sw	s5,44(sp)
8001990c:	afb40028 	sw	s4,40(sp)
80019910:	afb30024 	sw	s3,36(sp)
80019914:	afb20020 	sw	s2,32(sp)
80019918:	afb1001c 	sw	s1,28(sp)
8001991c:	afb00018 	sw	s0,24(sp)
80019920:	3c040040 	lui	a0,0x40
80019924:	0c100ac4 	jal	80402b10 <end+0x2b10>
80019928:	24842724 	addiu	a0,a0,10020
8001992c:	afa00010 	sw	zero,16(sp)
80019930:	afa00014 	sw	zero,20(sp)
80019934:	2404253f 	li	a0,9535
80019938:	00002821 	move	a1,zero
8001993c:	00003021 	move	a2,zero
80019940:	0c10043c 	jal	804010f0 <end+0x10f0>
80019944:	00003821 	move	a3,zero
80019948:	14400011 	bnez	v0,80019990 <binary_user_check_icode_start+0x29e0>
8001994c:	0040f021 	move	s8,v0
80019950:	0c100af2 	jal	80402bc8 <end+0x2bc8>
80019954:	00000000 	nop
80019958:	304203ff 	andi	v0,v0,0x3ff
8001995c:	00022080 	sll	a0,v0,0x2
80019960:	00021940 	sll	v1,v0,0x5
80019964:	00641823 	subu	v1,v1,a0
80019968:	00621821 	addu	v1,v1,v0
8001996c:	000318c0 	sll	v1,v1,0x3
80019970:	3c020040 	lui	v0,0x40
80019974:	8c427000 	lw	v0,28672(v0)
80019978:	00000000 	nop
8001997c:	00621821 	addu	v1,v1,v0
80019980:	3c020041 	lui	v0,0x41
80019984:	ac43afd0 	sw	v1,-20528(v0)
80019988:	10000036 	b	80019a64 <binary_user_check_icode_start+0x2ab4>
8001998c:	00001021 	move	v0,zero
80019990:	0000b821 	move	s7,zero
80019994:	3c030040 	lui	v1,0x40
80019998:	8c62700c 	lw	v0,28684(v1)
8001999c:	00000000 	nop
800199a0:	02e21021 	addu	v0,s7,v0
800199a4:	8c420000 	lw	v0,0(v0)
800199a8:	00000000 	nop
800199ac:	30420200 	andi	v0,v0,0x200
800199b0:	1040001a 	beqz	v0,80019a1c <binary_user_check_icode_start+0x2a6c>
800199b4:	3c020041 	lui	v0,0x41
800199b8:	0017a200 	sll	s4,s7,0x8
800199bc:	00178d00 	sll	s1,s7,0x14
800199c0:	00178280 	sll	s0,s7,0xa
800199c4:	00009021 	move	s2,zero
800199c8:	244298ac 	addiu	v0,v0,-26452
800199cc:	8c530000 	lw	s3,0(v0)
800199d0:	3c160040 	lui	s6,0x40
800199d4:	24150400 	li	s5,1024
800199d8:	0271102b 	sltu	v0,s3,s1
800199dc:	1440000f 	bnez	v0,80019a1c <binary_user_check_icode_start+0x2a6c>
800199e0:	02922821 	addu	a1,s4,s2
800199e4:	8ec27008 	lw	v0,28680(s6)
800199e8:	00000000 	nop
800199ec:	02021021 	addu	v0,s0,v0
800199f0:	8c420000 	lw	v0,0(v0)
800199f4:	00000000 	nop
800199f8:	30420200 	andi	v0,v0,0x200
800199fc:	10400003 	beqz	v0,80019a0c <binary_user_check_icode_start+0x2a5c>
80019a00:	00000000 	nop
80019a04:	0c100a12 	jal	80402848 <end+0x2848>
80019a08:	03c02021 	move	a0,s8
80019a0c:	26520001 	addiu	s2,s2,1
80019a10:	26311000 	addiu	s1,s1,4096
80019a14:	1655fff0 	bne	s2,s5,800199d8 <binary_user_check_icode_start+0x2a28>
80019a18:	26100004 	addiu	s0,s0,4
80019a1c:	26f70004 	addiu	s7,s7,4
80019a20:	240307f4 	li	v1,2036
80019a24:	16e3ffdc 	bne	s7,v1,80019998 <binary_user_check_icode_start+0x29e8>
80019a28:	3c030040 	lui	v1,0x40
80019a2c:	03c02021 	move	a0,s8
80019a30:	3c057f3f 	lui	a1,0x7f3f
80019a34:	34a5f000 	ori	a1,a1,0xf000
80019a38:	0c100b28 	jal	80402ca0 <end+0x2ca0>
80019a3c:	24060600 	li	a2,1536
80019a40:	03c02021 	move	a0,s8
80019a44:	3c050040 	lui	a1,0x40
80019a48:	24a51044 	addiu	a1,a1,4164
80019a4c:	0c100b19 	jal	80402c64 <end+0x2c64>
80019a50:	3c067f40 	lui	a2,0x7f40
80019a54:	03c02021 	move	a0,s8
80019a58:	0c100b57 	jal	80402d5c <end+0x2d5c>
80019a5c:	24050001 	li	a1,1
80019a60:	03c01021 	move	v0,s8
80019a64:	8fbf003c 	lw	ra,60(sp)
80019a68:	8fbe0038 	lw	s8,56(sp)
80019a6c:	8fb70034 	lw	s7,52(sp)
80019a70:	8fb60030 	lw	s6,48(sp)
80019a74:	8fb5002c 	lw	s5,44(sp)
80019a78:	8fb40028 	lw	s4,40(sp)
80019a7c:	8fb30024 	lw	s3,36(sp)
80019a80:	8fb20020 	lw	s2,32(sp)
80019a84:	8fb1001c 	lw	s1,28(sp)
80019a88:	8fb00018 	lw	s0,24(sp)
80019a8c:	03e00008 	jr	ra
80019a90:	27bd0040 	addiu	sp,sp,64
80019a94:	27bdffe8 	addiu	sp,sp,-24
80019a98:	afbf0010 	sw	ra,16(sp)
80019a9c:	3c040041 	lui	a0,0x41
80019aa0:	248497d8 	addiu	a0,a0,-26664
80019aa4:	240500e9 	li	a1,233
80019aa8:	3c060041 	lui	a2,0x41
80019aac:	0c10048a 	jal	80401228 <end+0x1228>
80019ab0:	24c69894 	addiu	a2,a2,-26476
	...
80019ac0:	27bdffe8 	addiu	sp,sp,-24
80019ac4:	afbf0014 	sw	ra,20(sp)
80019ac8:	afb00010 	sw	s0,16(sp)
80019acc:	3c020040 	lui	v0,0x40
80019ad0:	8c427010 	lw	v0,28688(v0)
80019ad4:	00000000 	nop
80019ad8:	14400013 	bnez	v0,80019b28 <binary_user_check_icode_start+0x2b78>
80019adc:	00808021 	move	s0,a0
80019ae0:	00002021 	move	a0,zero
80019ae4:	3c057f3f 	lui	a1,0x7f3f
80019ae8:	34a5f000 	ori	a1,a1,0xf000
80019aec:	0c100b28 	jal	80402ca0 <end+0x2ca0>
80019af0:	24060600 	li	a2,1536
80019af4:	04400007 	bltz	v0,80019b14 <binary_user_check_icode_start+0x2b64>
80019af8:	3c050040 	lui	a1,0x40
80019afc:	00002021 	move	a0,zero
80019b00:	24a51044 	addiu	a1,a1,4164
80019b04:	0c100b19 	jal	80402c64 <end+0x2c64>
80019b08:	3c067f40 	lui	a2,0x7f40
80019b0c:	04410007 	bgez	v0,80019b2c <binary_user_check_icode_start+0x2b7c>
80019b10:	3c020040 	lui	v0,0x40
80019b14:	3c040041 	lui	a0,0x41
80019b18:	0c10047a 	jal	804011e8 <end+0x11e8>
80019b1c:	248498b0 	addiu	a0,a0,-26448
80019b20:	10000003 	b	80019b30 <binary_user_check_icode_start+0x2b80>
80019b24:	00000000 	nop
80019b28:	3c020040 	lui	v0,0x40
80019b2c:	ac507010 	sw	s0,28688(v0)
80019b30:	8fbf0014 	lw	ra,20(sp)
80019b34:	8fb00010 	lw	s0,16(sp)
80019b38:	03e00008 	jr	ra
80019b3c:	27bd0018 	addiu	sp,sp,24
80019b40:	27bdffe0 	addiu	sp,sp,-32
80019b44:	afbf0018 	sw	ra,24(sp)
80019b48:	00042e00 	sll	a1,a0,0x18
80019b4c:	00052e03 	sra	a1,a1,0x18
80019b50:	afa00010 	sw	zero,16(sp)
80019b54:	afa00014 	sw	zero,20(sp)
80019b58:	24042537 	li	a0,9527
80019b5c:	00003021 	move	a2,zero
80019b60:	0c10043c 	jal	804010f0 <end+0x10f0>
80019b64:	00003821 	move	a3,zero
80019b68:	8fbf0018 	lw	ra,24(sp)
80019b6c:	00000000 	nop
80019b70:	03e00008 	jr	ra
80019b74:	27bd0020 	addiu	sp,sp,32
80019b78:	27bdffe0 	addiu	sp,sp,-32
80019b7c:	afbf0018 	sw	ra,24(sp)
80019b80:	afa00010 	sw	zero,16(sp)
80019b84:	afa00014 	sw	zero,20(sp)
80019b88:	24042538 	li	a0,9528
80019b8c:	00002821 	move	a1,zero
80019b90:	00003021 	move	a2,zero
80019b94:	0c10043c 	jal	804010f0 <end+0x10f0>
80019b98:	00003821 	move	a3,zero
80019b9c:	8fbf0018 	lw	ra,24(sp)
80019ba0:	00000000 	nop
80019ba4:	03e00008 	jr	ra
80019ba8:	27bd0020 	addiu	sp,sp,32
80019bac:	27bdffe0 	addiu	sp,sp,-32
80019bb0:	afbf0018 	sw	ra,24(sp)
80019bb4:	afa00010 	sw	zero,16(sp)
80019bb8:	afa00014 	sw	zero,20(sp)
80019bbc:	24042539 	li	a0,9529
80019bc0:	00002821 	move	a1,zero
80019bc4:	00003021 	move	a2,zero
80019bc8:	0c10043c 	jal	804010f0 <end+0x10f0>
80019bcc:	00003821 	move	a3,zero
80019bd0:	8fbf0018 	lw	ra,24(sp)
80019bd4:	00000000 	nop
80019bd8:	03e00008 	jr	ra
80019bdc:	27bd0020 	addiu	sp,sp,32
80019be0:	27bdffe0 	addiu	sp,sp,-32
80019be4:	afbf0018 	sw	ra,24(sp)
80019be8:	00802821 	move	a1,a0
80019bec:	afa00010 	sw	zero,16(sp)
80019bf0:	afa00014 	sw	zero,20(sp)
80019bf4:	2404253a 	li	a0,9530
80019bf8:	00003021 	move	a2,zero
80019bfc:	0c10043c 	jal	804010f0 <end+0x10f0>
80019c00:	00003821 	move	a3,zero
80019c04:	8fbf0018 	lw	ra,24(sp)
80019c08:	00000000 	nop
80019c0c:	03e00008 	jr	ra
80019c10:	27bd0020 	addiu	sp,sp,32
80019c14:	27bdffe0 	addiu	sp,sp,-32
80019c18:	afbf0018 	sw	ra,24(sp)
80019c1c:	00801021 	move	v0,a0
80019c20:	00a01821 	move	v1,a1
80019c24:	00c03821 	move	a3,a2
80019c28:	afa00010 	sw	zero,16(sp)
80019c2c:	afa00014 	sw	zero,20(sp)
80019c30:	2404253b 	li	a0,9531
80019c34:	00402821 	move	a1,v0
80019c38:	0c10043c 	jal	804010f0 <end+0x10f0>
80019c3c:	00603021 	move	a2,v1
80019c40:	8fbf0018 	lw	ra,24(sp)
80019c44:	00000000 	nop
80019c48:	03e00008 	jr	ra
80019c4c:	27bd0020 	addiu	sp,sp,32
80019c50:	27bdffe0 	addiu	sp,sp,-32
80019c54:	afbf0018 	sw	ra,24(sp)
80019c58:	00801021 	move	v0,a0
80019c5c:	00a01821 	move	v1,a1
80019c60:	00c03821 	move	a3,a2
80019c64:	afa00010 	sw	zero,16(sp)
80019c68:	afa00014 	sw	zero,20(sp)
80019c6c:	2404253c 	li	a0,9532
80019c70:	00402821 	move	a1,v0
80019c74:	0c10043c 	jal	804010f0 <end+0x10f0>
80019c78:	00603021 	move	a2,v1
80019c7c:	8fbf0018 	lw	ra,24(sp)
80019c80:	00000000 	nop
80019c84:	03e00008 	jr	ra
80019c88:	27bd0020 	addiu	sp,sp,32
80019c8c:	27bdffe0 	addiu	sp,sp,-32
80019c90:	afbf0018 	sw	ra,24(sp)
80019c94:	00801821 	move	v1,a0
80019c98:	00a04021 	move	t0,a1
80019c9c:	00c04821 	move	t1,a2
80019ca0:	afa70010 	sw	a3,16(sp)
80019ca4:	8fa20030 	lw	v0,48(sp)
80019ca8:	00000000 	nop
80019cac:	afa20014 	sw	v0,20(sp)
80019cb0:	2404253d 	li	a0,9533
80019cb4:	00602821 	move	a1,v1
80019cb8:	01003021 	move	a2,t0
80019cbc:	0c10043c 	jal	804010f0 <end+0x10f0>
80019cc0:	01203821 	move	a3,t1
80019cc4:	8fbf0018 	lw	ra,24(sp)
80019cc8:	00000000 	nop
80019ccc:	03e00008 	jr	ra
80019cd0:	27bd0020 	addiu	sp,sp,32
80019cd4:	27bdffe0 	addiu	sp,sp,-32
80019cd8:	afbf0018 	sw	ra,24(sp)
80019cdc:	00801021 	move	v0,a0
80019ce0:	00a03021 	move	a2,a1
80019ce4:	afa00010 	sw	zero,16(sp)
80019ce8:	afa00014 	sw	zero,20(sp)
80019cec:	2404253e 	li	a0,9534
80019cf0:	00402821 	move	a1,v0
80019cf4:	0c10043c 	jal	804010f0 <end+0x10f0>
80019cf8:	00003821 	move	a3,zero
80019cfc:	8fbf0018 	lw	ra,24(sp)
80019d00:	00000000 	nop
80019d04:	03e00008 	jr	ra
80019d08:	27bd0020 	addiu	sp,sp,32
80019d0c:	27bdffe0 	addiu	sp,sp,-32
80019d10:	afbf0018 	sw	ra,24(sp)
80019d14:	00801021 	move	v0,a0
80019d18:	00a03021 	move	a2,a1
80019d1c:	afa00010 	sw	zero,16(sp)
80019d20:	afa00014 	sw	zero,20(sp)
80019d24:	24042540 	li	a0,9536
80019d28:	00402821 	move	a1,v0
80019d2c:	0c10043c 	jal	804010f0 <end+0x10f0>
80019d30:	00003821 	move	a3,zero
80019d34:	8fbf0018 	lw	ra,24(sp)
80019d38:	00000000 	nop
80019d3c:	03e00008 	jr	ra
80019d40:	27bd0020 	addiu	sp,sp,32
80019d44:	27bdffe0 	addiu	sp,sp,-32
80019d48:	afbf0018 	sw	ra,24(sp)
80019d4c:	00801021 	move	v0,a0
80019d50:	00a03021 	move	a2,a1
80019d54:	afa00010 	sw	zero,16(sp)
80019d58:	afa00014 	sw	zero,20(sp)
80019d5c:	24042541 	li	a0,9537
80019d60:	00402821 	move	a1,v0
80019d64:	0c10043c 	jal	804010f0 <end+0x10f0>
80019d68:	00003821 	move	a3,zero
80019d6c:	8fbf0018 	lw	ra,24(sp)
80019d70:	00000000 	nop
80019d74:	03e00008 	jr	ra
80019d78:	27bd0020 	addiu	sp,sp,32
80019d7c:	27bdffe0 	addiu	sp,sp,-32
80019d80:	afbf0018 	sw	ra,24(sp)
80019d84:	00802821 	move	a1,a0
80019d88:	afa00010 	sw	zero,16(sp)
80019d8c:	afa00014 	sw	zero,20(sp)
80019d90:	24042542 	li	a0,9538
80019d94:	00003021 	move	a2,zero
80019d98:	0c10043c 	jal	804010f0 <end+0x10f0>
80019d9c:	00003821 	move	a3,zero
80019da0:	8fbf0018 	lw	ra,24(sp)
80019da4:	00000000 	nop
80019da8:	03e00008 	jr	ra
80019dac:	27bd0020 	addiu	sp,sp,32
80019db0:	27bdffe0 	addiu	sp,sp,-32
80019db4:	afbf0018 	sw	ra,24(sp)
80019db8:	00801021 	move	v0,a0
80019dbc:	00a01821 	move	v1,a1
80019dc0:	00c04021 	move	t0,a2
80019dc4:	afa70010 	sw	a3,16(sp)
80019dc8:	afa00014 	sw	zero,20(sp)
80019dcc:	24042543 	li	a0,9539
80019dd0:	00402821 	move	a1,v0
80019dd4:	00603021 	move	a2,v1
80019dd8:	0c10043c 	jal	804010f0 <end+0x10f0>
80019ddc:	01003821 	move	a3,t0
80019de0:	8fbf0018 	lw	ra,24(sp)
80019de4:	00000000 	nop
80019de8:	03e00008 	jr	ra
80019dec:	27bd0020 	addiu	sp,sp,32
80019df0:	27bdffe0 	addiu	sp,sp,-32
80019df4:	afbf0018 	sw	ra,24(sp)
80019df8:	00802821 	move	a1,a0
80019dfc:	afa00010 	sw	zero,16(sp)
80019e00:	afa00014 	sw	zero,20(sp)
80019e04:	24042544 	li	a0,9540
80019e08:	00003021 	move	a2,zero
80019e0c:	0c10043c 	jal	804010f0 <end+0x10f0>
80019e10:	00003821 	move	a3,zero
80019e14:	8fbf0018 	lw	ra,24(sp)
80019e18:	00000000 	nop
80019e1c:	03e00008 	jr	ra
80019e20:	27bd0020 	addiu	sp,sp,32
80019e24:	27bdffe0 	addiu	sp,sp,-32
80019e28:	afbf0018 	sw	ra,24(sp)
80019e2c:	afa00010 	sw	zero,16(sp)
80019e30:	afa00014 	sw	zero,20(sp)
80019e34:	24042545 	li	a0,9541
80019e38:	00002821 	move	a1,zero
80019e3c:	00003021 	move	a2,zero
80019e40:	0c10043c 	jal	804010f0 <end+0x10f0>
80019e44:	00003821 	move	a3,zero
80019e48:	8fbf0018 	lw	ra,24(sp)
80019e4c:	00000000 	nop
80019e50:	03e00008 	jr	ra
80019e54:	27bd0020 	addiu	sp,sp,32
	...
80019e60:	27bdffd8 	addiu	sp,sp,-40
80019e64:	afbf0024 	sw	ra,36(sp)
80019e68:	afb40020 	sw	s4,32(sp)
80019e6c:	afb3001c 	sw	s3,28(sp)
80019e70:	afb20018 	sw	s2,24(sp)
80019e74:	afb10014 	sw	s1,20(sp)
80019e78:	afb00010 	sw	s0,16(sp)
80019e7c:	0080a021 	move	s4,a0
80019e80:	00a09821 	move	s3,a1
80019e84:	00c09021 	move	s2,a2
80019e88:	00e08821 	move	s1,a3
80019e8c:	10000003 	b	80019e9c <binary_user_check_icode_start+0x2eec>
80019e90:	2410fffa 	li	s0,-6
80019e94:	0c100aff 	jal	80402bfc <end+0x2bfc>
80019e98:	00000000 	nop
80019e9c:	02802021 	move	a0,s4
80019ea0:	02602821 	move	a1,s3
80019ea4:	02403021 	move	a2,s2
80019ea8:	0c100b80 	jal	80402e00 <end+0x2e00>
80019eac:	02203821 	move	a3,s1
80019eb0:	1050fff8 	beq	v0,s0,80019e94 <binary_user_check_icode_start+0x2ee4>
80019eb4:	00000000 	nop
80019eb8:	10400007 	beqz	v0,80019ed8 <binary_user_check_icode_start+0x2f28>
80019ebc:	3c040041 	lui	a0,0x41
80019ec0:	248498cc 	addiu	a0,a0,-26420
80019ec4:	2405001c 	li	a1,28
80019ec8:	3c060041 	lui	a2,0x41
80019ecc:	24c698d4 	addiu	a2,a2,-26412
80019ed0:	0c10048a 	jal	80401228 <end+0x1228>
80019ed4:	00403821 	move	a3,v0
80019ed8:	8fbf0024 	lw	ra,36(sp)
80019edc:	8fb40020 	lw	s4,32(sp)
80019ee0:	8fb3001c 	lw	s3,28(sp)
80019ee4:	8fb20018 	lw	s2,24(sp)
80019ee8:	8fb10014 	lw	s1,20(sp)
80019eec:	8fb00010 	lw	s0,16(sp)
80019ef0:	03e00008 	jr	ra
80019ef4:	27bd0028 	addiu	sp,sp,40
80019ef8:	27bdffe0 	addiu	sp,sp,-32
80019efc:	afbf0018 	sw	ra,24(sp)
80019f00:	afb10014 	sw	s1,20(sp)
80019f04:	afb00010 	sw	s0,16(sp)
80019f08:	00808021 	move	s0,a0
80019f0c:	00c08821 	move	s1,a2
80019f10:	0c100b90 	jal	80402e40 <end+0x2e40>
80019f14:	00a02021 	move	a0,a1
80019f18:	12000006 	beqz	s0,80019f34 <binary_user_check_icode_start+0x2f84>
80019f1c:	3c020041 	lui	v0,0x41
80019f20:	8c42afd0 	lw	v0,-20528(v0)
80019f24:	00000000 	nop
80019f28:	8c4200c8 	lw	v0,200(v0)
80019f2c:	00000000 	nop
80019f30:	ae020000 	sw	v0,0(s0)
80019f34:	12200006 	beqz	s1,80019f50 <binary_user_check_icode_start+0x2fa0>
80019f38:	3c020041 	lui	v0,0x41
80019f3c:	8c42afd0 	lw	v0,-20528(v0)
80019f40:	00000000 	nop
80019f44:	8c4200d4 	lw	v0,212(v0)
80019f48:	00000000 	nop
80019f4c:	ae220000 	sw	v0,0(s1)
80019f50:	3c020041 	lui	v0,0x41
80019f54:	8c42afd0 	lw	v0,-20528(v0)
80019f58:	00000000 	nop
80019f5c:	8c4200c4 	lw	v0,196(v0)
80019f60:	8fbf0018 	lw	ra,24(sp)
80019f64:	8fb10014 	lw	s1,20(sp)
80019f68:	8fb00010 	lw	s0,16(sp)
80019f6c:	03e00008 	jr	ra
80019f70:	27bd0020 	addiu	sp,sp,32
	...
80019f80:	80820000 	lb	v0,0(a0)
80019f84:	00000000 	nop
80019f88:	10400006 	beqz	v0,80019fa4 <binary_user_check_icode_start+0x2ff4>
80019f8c:	00001821 	move	v1,zero
80019f90:	24840001 	addiu	a0,a0,1
80019f94:	80820000 	lb	v0,0(a0)
80019f98:	00000000 	nop
80019f9c:	1440fffc 	bnez	v0,80019f90 <binary_user_check_icode_start+0x2fe0>
80019fa0:	24630001 	addiu	v1,v1,1
80019fa4:	03e00008 	jr	ra
80019fa8:	00601021 	move	v0,v1
80019fac:	00801821 	move	v1,a0
80019fb0:	80a20000 	lb	v0,0(a1)
80019fb4:	00000000 	nop
80019fb8:	a0620000 	sb	v0,0(v1)
80019fbc:	24630001 	addiu	v1,v1,1
80019fc0:	1440fffb 	bnez	v0,80019fb0 <binary_user_check_icode_start+0x3000>
80019fc4:	24a50001 	addiu	a1,a1,1
80019fc8:	03e00008 	jr	ra
80019fcc:	00801021 	move	v0,a0
80019fd0:	00801021 	move	v0,a0
80019fd4:	00052e00 	sll	a1,a1,0x18
80019fd8:	80830000 	lb	v1,0(a0)
80019fdc:	00000000 	nop
80019fe0:	1460000c 	bnez	v1,8001a014 <binary_user_check_icode_start+0x3064>
80019fe4:	00052e03 	sra	a1,a1,0x18
80019fe8:	03e00008 	jr	ra
80019fec:	00001021 	move	v0,zero
80019ff0:	10a3000a 	beq	a1,v1,8001a01c <binary_user_check_icode_start+0x306c>
80019ff4:	00000000 	nop
80019ff8:	24420001 	addiu	v0,v0,1
80019ffc:	80430000 	lb	v1,0(v0)
8001a000:	00000000 	nop
8001a004:	1460fffa 	bnez	v1,80019ff0 <binary_user_check_icode_start+0x3040>
8001a008:	00000000 	nop
8001a00c:	03e00008 	jr	ra
8001a010:	00001021 	move	v0,zero
8001a014:	14a3fff8 	bne	a1,v1,80019ff8 <binary_user_check_icode_start+0x3048>
8001a018:	00000000 	nop
8001a01c:	03e00008 	jr	ra
8001a020:	00000000 	nop
8001a024:	10c0000a 	beqz	a2,8001a050 <binary_user_check_icode_start+0x30a0>
8001a028:	24c2ffff 	addiu	v0,a2,-1
8001a02c:	00801821 	move	v1,a0
8001a030:	00821021 	addu	v0,a0,v0
8001a034:	24460001 	addiu	a2,v0,1
8001a038:	90a20000 	lbu	v0,0(a1)
8001a03c:	00000000 	nop
8001a040:	a0620000 	sb	v0,0(v1)
8001a044:	24630001 	addiu	v1,v1,1
8001a048:	1466fffb 	bne	v1,a2,8001a038 <binary_user_check_icode_start+0x3088>
8001a04c:	24a50001 	addiu	a1,a1,1
8001a050:	03e00008 	jr	ra
8001a054:	00801021 	move	v0,a0
8001a058:	80830000 	lb	v1,0(a0)
8001a05c:	00000000 	nop
8001a060:	1060000c 	beqz	v1,8001a094 <binary_user_check_icode_start+0x30e4>
8001a064:	00000000 	nop
8001a068:	10000014 	b	8001a0bc <binary_user_check_icode_start+0x310c>
8001a06c:	00000000 	nop
8001a070:	24840001 	addiu	a0,a0,1
8001a074:	80830000 	lb	v1,0(a0)
8001a078:	00000000 	nop
8001a07c:	10600005 	beqz	v1,8001a094 <binary_user_check_icode_start+0x30e4>
8001a080:	24a50001 	addiu	a1,a1,1
8001a084:	80a20000 	lb	v0,0(a1)
8001a088:	00000000 	nop
8001a08c:	1043fff8 	beq	v0,v1,8001a070 <binary_user_check_icode_start+0x30c0>
8001a090:	00000000 	nop
8001a094:	306300ff 	andi	v1,v1,0xff
8001a098:	90a50000 	lbu	a1,0(a1)
8001a09c:	00000000 	nop
8001a0a0:	0065102b 	sltu	v0,v1,a1
8001a0a4:	10400003 	beqz	v0,8001a0b4 <binary_user_check_icode_start+0x3104>
8001a0a8:	00000000 	nop
8001a0ac:	03e00008 	jr	ra
8001a0b0:	2402ffff 	li	v0,-1
8001a0b4:	03e00008 	jr	ra
8001a0b8:	00a3102b 	sltu	v0,a1,v1
8001a0bc:	80a20000 	lb	v0,0(a1)
8001a0c0:	00000000 	nop
8001a0c4:	1443fff4 	bne	v0,v1,8001a098 <binary_user_check_icode_start+0x30e8>
8001a0c8:	306300ff 	andi	v1,v1,0xff
8001a0cc:	1000ffe9 	b	8001a074 <binary_user_check_icode_start+0x30c4>
8001a0d0:	24840001 	addiu	a0,a0,1
	...
8001a0e0:	27bdffe8 	addiu	sp,sp,-24
8001a0e4:	afbf0010 	sw	ra,16(sp)
8001a0e8:	00803021 	move	a2,a0
8001a0ec:	3c020041 	lui	v0,0x41
8001a0f0:	8c449a78 	lw	a0,-25992(v0)
8001a0f4:	00000000 	nop
8001a0f8:	14800017 	bnez	a0,8001a158 <binary_user_check_icode_start+0x31a8>
8001a0fc:	3c020041 	lui	v0,0x41
8001a100:	1000000e 	b	8001a13c <binary_user_check_icode_start+0x318c>
8001a104:	00000000 	nop
8001a108:	8c820000 	lw	v0,0(a0)
8001a10c:	00000000 	nop
8001a110:	14c20006 	bne	a2,v0,8001a12c <binary_user_check_icode_start+0x317c>
8001a114:	24630004 	addiu	v1,v1,4
8001a118:	aca40000 	sw	a0,0(a1)
8001a11c:	10000014 	b	8001a170 <binary_user_check_icode_start+0x31c0>
8001a120:	00001021 	move	v0,zero
8001a124:	3c020041 	lui	v0,0x41
8001a128:	24439a7c 	addiu	v1,v0,-25988
8001a12c:	8c640000 	lw	a0,0(v1)
8001a130:	00000000 	nop
8001a134:	1480fff4 	bnez	a0,8001a108 <binary_user_check_icode_start+0x3158>
8001a138:	3c020041 	lui	v0,0x41
8001a13c:	8c42afd0 	lw	v0,-20528(v0)
8001a140:	3c040041 	lui	a0,0x41
8001a144:	8c4500a4 	lw	a1,164(v0)
8001a148:	0c10047a 	jal	804011e8 <end+0x11e8>
8001a14c:	248498ec 	addiu	a0,a0,-26388
8001a150:	10000007 	b	8001a170 <binary_user_check_icode_start+0x31c0>
8001a154:	2402fffd 	li	v0,-3
8001a158:	8c820000 	lw	v0,0(a0)
8001a15c:	00000000 	nop
8001a160:	14c2fff0 	bne	a2,v0,8001a124 <binary_user_check_icode_start+0x3174>
8001a164:	00000000 	nop
8001a168:	1000ffec 	b	8001a11c <binary_user_check_icode_start+0x316c>
8001a16c:	aca40000 	sw	a0,0(a1)
8001a170:	8fbf0010 	lw	ra,16(sp)
8001a174:	00000000 	nop
8001a178:	03e00008 	jr	ra
8001a17c:	27bd0018 	addiu	sp,sp,24
8001a180:	3c020040 	lui	v0,0x40
8001a184:	8c46700c 	lw	a2,28684(v0)
8001a188:	3c055fc0 	lui	a1,0x5fc0
8001a18c:	3c080040 	lui	t0,0x40
8001a190:	3c025fc1 	lui	v0,0x5fc1
8001a194:	3447f000 	ori	a3,v0,0xf000
8001a198:	00051582 	srl	v0,a1,0x16
8001a19c:	00021080 	sll	v0,v0,0x2
8001a1a0:	00c21021 	addu	v0,a2,v0
8001a1a4:	8c420000 	lw	v0,0(v0)
8001a1a8:	00000000 	nop
8001a1ac:	30420200 	andi	v0,v0,0x200
8001a1b0:	14400003 	bnez	v0,8001a1c0 <binary_user_check_icode_start+0x3210>
8001a1b4:	00000000 	nop
8001a1b8:	03e00008 	jr	ra
8001a1bc:	ac850000 	sw	a1,0(a0)
8001a1c0:	00051302 	srl	v0,a1,0xc
8001a1c4:	00021080 	sll	v0,v0,0x2
8001a1c8:	8d037008 	lw	v1,28680(t0)
8001a1cc:	00000000 	nop
8001a1d0:	00431021 	addu	v0,v0,v1
8001a1d4:	8c420000 	lw	v0,0(v0)
8001a1d8:	00000000 	nop
8001a1dc:	30420200 	andi	v0,v0,0x200
8001a1e0:	14400004 	bnez	v0,8001a1f4 <binary_user_check_icode_start+0x3244>
8001a1e4:	24a51000 	addiu	a1,a1,4096
8001a1e8:	24a5f000 	addiu	a1,a1,-4096
8001a1ec:	03e00008 	jr	ra
8001a1f0:	ac850000 	sw	a1,0(a0)
8001a1f4:	14a7ffe8 	bne	a1,a3,8001a198 <binary_user_check_icode_start+0x31e8>
8001a1f8:	2402fff8 	li	v0,-8
8001a1fc:	03e00008 	jr	ra
8001a200:	00000000 	nop
8001a204:	27bdffe8 	addiu	sp,sp,-24
8001a208:	afbf0010 	sw	ra,16(sp)
8001a20c:	00802821 	move	a1,a0
8001a210:	0c100b49 	jal	80402d24 <end+0x2d24>
8001a214:	00002021 	move	a0,zero
8001a218:	8fbf0010 	lw	ra,16(sp)
8001a21c:	00000000 	nop
8001a220:	03e00008 	jr	ra
8001a224:	27bd0018 	addiu	sp,sp,24
8001a228:	28820020 	slti	v0,a0,32
8001a22c:	10400010 	beqz	v0,8001a270 <binary_user_check_icode_start+0x32c0>
8001a230:	00041b00 	sll	v1,a0,0xc
8001a234:	3c025fc0 	lui	v0,0x5fc0
8001a238:	00622021 	addu	a0,v1,v0
8001a23c:	00041282 	srl	v0,a0,0xa
8001a240:	3c030040 	lui	v1,0x40
8001a244:	8c637008 	lw	v1,28680(v1)
8001a248:	00000000 	nop
8001a24c:	00431021 	addu	v0,v0,v1
8001a250:	8c420000 	lw	v0,0(v0)
8001a254:	00000000 	nop
8001a258:	30420200 	andi	v0,v0,0x200
8001a25c:	10400004 	beqz	v0,8001a270 <binary_user_check_icode_start+0x32c0>
8001a260:	00000000 	nop
8001a264:	aca40000 	sw	a0,0(a1)
8001a268:	03e00008 	jr	ra
8001a26c:	00001021 	move	v0,zero
8001a270:	03e00008 	jr	ra
8001a274:	2402fffd 	li	v0,-3
8001a278:	27bdffe8 	addiu	sp,sp,-24
8001a27c:	afbf0010 	sw	ra,16(sp)
8001a280:	0c100cbd 	jal	804032f4 <end+0x32f4>
8001a284:	00000000 	nop
8001a288:	00021d80 	sll	v1,v0,0x16
8001a28c:	3c026000 	lui	v0,0x6000
8001a290:	00621021 	addu	v0,v1,v0
8001a294:	8fbf0010 	lw	ra,16(sp)
8001a298:	00000000 	nop
8001a29c:	03e00008 	jr	ra
8001a2a0:	27bd0018 	addiu	sp,sp,24
8001a2a4:	3c02a040 	lui	v0,0xa040
8001a2a8:	00821021 	addu	v0,a0,v0
8001a2ac:	03e00008 	jr	ra
8001a2b0:	00021302 	srl	v0,v0,0xc
8001a2b4:	00042300 	sll	a0,a0,0xc
8001a2b8:	3c025fc0 	lui	v0,0x5fc0
8001a2bc:	03e00008 	jr	ra
8001a2c0:	00821021 	addu	v0,a0,v0
8001a2c4:	27bdffe0 	addiu	sp,sp,-32
8001a2c8:	afbf001c 	sw	ra,28(sp)
8001a2cc:	afb00018 	sw	s0,24(sp)
8001a2d0:	0c100c9e 	jal	80403278 <end+0x3278>
8001a2d4:	27a50014 	addiu	a1,sp,20
8001a2d8:	04400011 	bltz	v0,8001a320 <binary_user_check_icode_start+0x3370>
8001a2dc:	00408021 	move	s0,v0
8001a2e0:	8fa20014 	lw	v0,20(sp)
8001a2e4:	00000000 	nop
8001a2e8:	8c440000 	lw	a0,0(v0)
8001a2ec:	0c100c4c 	jal	80403130 <end+0x3130>
8001a2f0:	27a50010 	addiu	a1,sp,16
8001a2f4:	0440000a 	bltz	v0,8001a320 <binary_user_check_icode_start+0x3370>
8001a2f8:	00408021 	move	s0,v0
8001a2fc:	8fa20010 	lw	v0,16(sp)
8001a300:	00000000 	nop
8001a304:	8c420010 	lw	v0,16(v0)
8001a308:	8fa40014 	lw	a0,20(sp)
8001a30c:	0040f809 	jalr	v0
8001a310:	00000000 	nop
8001a314:	8fa40014 	lw	a0,20(sp)
8001a318:	0c100c95 	jal	80403254 <end+0x3254>
8001a31c:	00408021 	move	s0,v0
8001a320:	02001021 	move	v0,s0
8001a324:	8fbf001c 	lw	ra,28(sp)
8001a328:	8fb00018 	lw	s0,24(sp)
8001a32c:	03e00008 	jr	ra
8001a330:	27bd0020 	addiu	sp,sp,32
8001a334:	27bdffe0 	addiu	sp,sp,-32
8001a338:	afbf0018 	sw	ra,24(sp)
8001a33c:	afb10014 	sw	s1,20(sp)
8001a340:	afb00010 	sw	s0,16(sp)
8001a344:	00008021 	move	s0,zero
8001a348:	24110020 	li	s1,32
8001a34c:	0c100cc5 	jal	80403314 <end+0x3314>
8001a350:	02002021 	move	a0,s0
8001a354:	26100001 	addiu	s0,s0,1
8001a358:	1611fffc 	bne	s0,s1,8001a34c <binary_user_check_icode_start+0x339c>
8001a35c:	00000000 	nop
8001a360:	8fbf0018 	lw	ra,24(sp)
8001a364:	8fb10014 	lw	s1,20(sp)
8001a368:	8fb00010 	lw	s0,16(sp)
8001a36c:	03e00008 	jr	ra
8001a370:	27bd0020 	addiu	sp,sp,32
8001a374:	27bdffb8 	addiu	sp,sp,-72
8001a378:	afbf0040 	sw	ra,64(sp)
8001a37c:	afb7003c 	sw	s7,60(sp)
8001a380:	afb60038 	sw	s6,56(sp)
8001a384:	afb50034 	sw	s5,52(sp)
8001a388:	afb40030 	sw	s4,48(sp)
8001a38c:	afb3002c 	sw	s3,44(sp)
8001a390:	afb20028 	sw	s2,40(sp)
8001a394:	afb10024 	sw	s1,36(sp)
8001a398:	afb00020 	sw	s0,32(sp)
8001a39c:	00a0b821 	move	s7,a1
8001a3a0:	0c100c9e 	jal	80403278 <end+0x3278>
8001a3a4:	27a50018 	addiu	a1,sp,24
8001a3a8:	0440004f 	bltz	v0,8001a4e8 <binary_user_check_icode_start+0x3538>
8001a3ac:	00409821 	move	s3,v0
8001a3b0:	0c100cc5 	jal	80403314 <end+0x3314>
8001a3b4:	02e02021 	move	a0,s7
8001a3b8:	00178300 	sll	s0,s7,0xc
8001a3bc:	3c025fc0 	lui	v0,0x5fc0
8001a3c0:	8fa40018 	lw	a0,24(sp)
8001a3c4:	0c100cb2 	jal	804032c8 <end+0x32c8>
8001a3c8:	02028021 	addu	s0,s0,v0
8001a3cc:	0040a821 	move	s5,v0
8001a3d0:	0c100cb2 	jal	804032c8 <end+0x32c8>
8001a3d4:	02002021 	move	a0,s0
8001a3d8:	00409021 	move	s2,v0
8001a3dc:	8fa50018 	lw	a1,24(sp)
8001a3e0:	0200b021 	move	s6,s0
8001a3e4:	00051302 	srl	v0,a1,0xc
8001a3e8:	00021080 	sll	v0,v0,0x2
8001a3ec:	3c030040 	lui	v1,0x40
8001a3f0:	8c637008 	lw	v1,28680(v1)
8001a3f4:	00000000 	nop
8001a3f8:	00431021 	addu	v0,v0,v1
8001a3fc:	8c420000 	lw	v0,0(v0)
8001a400:	00000000 	nop
8001a404:	30420604 	andi	v0,v0,0x604
8001a408:	afa20010 	sw	v0,16(sp)
8001a40c:	00002021 	move	a0,zero
8001a410:	00003021 	move	a2,zero
8001a414:	0c100b37 	jal	80402cdc <end+0x2cdc>
8001a418:	02003821 	move	a3,s0
8001a41c:	04400024 	bltz	v0,8001a4b0 <binary_user_check_icode_start+0x3500>
8001a420:	00409821 	move	s3,v0
8001a424:	00151582 	srl	v0,s5,0x16
8001a428:	00021080 	sll	v0,v0,0x2
8001a42c:	3c030040 	lui	v1,0x40
8001a430:	8c63700c 	lw	v1,28684(v1)
8001a434:	00000000 	nop
8001a438:	00431021 	addu	v0,v0,v1
8001a43c:	8c420000 	lw	v0,0(v0)
8001a440:	00000000 	nop
8001a444:	10400027 	beqz	v0,8001a4e4 <binary_user_check_icode_start+0x3534>
8001a448:	00008821 	move	s1,zero
8001a44c:	3c140040 	lui	s4,0x40
8001a450:	3c100040 	lui	s0,0x40
8001a454:	02b12821 	addu	a1,s5,s1
8001a458:	00051302 	srl	v0,a1,0xc
8001a45c:	00021080 	sll	v0,v0,0x2
8001a460:	8e837008 	lw	v1,28680(s4)
8001a464:	00000000 	nop
8001a468:	00431021 	addu	v0,v0,v1
8001a46c:	8c430000 	lw	v1,0(v0)
8001a470:	00000000 	nop
8001a474:	30620200 	andi	v0,v1,0x200
8001a478:	10400008 	beqz	v0,8001a49c <binary_user_check_icode_start+0x34ec>
8001a47c:	30620604 	andi	v0,v1,0x604
8001a480:	afa20010 	sw	v0,16(sp)
8001a484:	00002021 	move	a0,zero
8001a488:	00003021 	move	a2,zero
8001a48c:	0c100b37 	jal	80402cdc <end+0x2cdc>
8001a490:	02513821 	addu	a3,s2,s1
8001a494:	04400006 	bltz	v0,8001a4b0 <binary_user_check_icode_start+0x3500>
8001a498:	00409821 	move	s3,v0
8001a49c:	26311000 	addiu	s1,s1,4096
8001a4a0:	12300010 	beq	s1,s0,8001a4e4 <binary_user_check_icode_start+0x3534>
8001a4a4:	02b12821 	addu	a1,s5,s1
8001a4a8:	1000ffec 	b	8001a45c <binary_user_check_icode_start+0x34ac>
8001a4ac:	00051302 	srl	v0,a1,0xc
8001a4b0:	00002021 	move	a0,zero
8001a4b4:	0c100b49 	jal	80402d24 <end+0x2d24>
8001a4b8:	02c02821 	move	a1,s6
8001a4bc:	00008021 	move	s0,zero
8001a4c0:	3c110040 	lui	s1,0x40
8001a4c4:	00002021 	move	a0,zero
8001a4c8:	0c100b49 	jal	80402d24 <end+0x2d24>
8001a4cc:	02502821 	addu	a1,s2,s0
8001a4d0:	26101000 	addiu	s0,s0,4096
8001a4d4:	12110004 	beq	s0,s1,8001a4e8 <binary_user_check_icode_start+0x3538>
8001a4d8:	00002021 	move	a0,zero
8001a4dc:	1000fffa 	b	8001a4c8 <binary_user_check_icode_start+0x3518>
8001a4e0:	00000000 	nop
8001a4e4:	02e09821 	move	s3,s7
8001a4e8:	02601021 	move	v0,s3
8001a4ec:	8fbf0040 	lw	ra,64(sp)
8001a4f0:	8fb7003c 	lw	s7,60(sp)
8001a4f4:	8fb60038 	lw	s6,56(sp)
8001a4f8:	8fb50034 	lw	s5,52(sp)
8001a4fc:	8fb40030 	lw	s4,48(sp)
8001a500:	8fb3002c 	lw	s3,44(sp)
8001a504:	8fb20028 	lw	s2,40(sp)
8001a508:	8fb10024 	lw	s1,36(sp)
8001a50c:	8fb00020 	lw	s0,32(sp)
8001a510:	03e00008 	jr	ra
8001a514:	27bd0048 	addiu	sp,sp,72
8001a518:	27bdffd8 	addiu	sp,sp,-40
8001a51c:	afbf0024 	sw	ra,36(sp)
8001a520:	afb20020 	sw	s2,32(sp)
8001a524:	afb1001c 	sw	s1,28(sp)
8001a528:	afb00018 	sw	s0,24(sp)
8001a52c:	00809021 	move	s2,a0
8001a530:	00a08021 	move	s0,a1
8001a534:	00c08821 	move	s1,a2
8001a538:	0c100c9e 	jal	80403278 <end+0x3278>
8001a53c:	27a50014 	addiu	a1,sp,20
8001a540:	04400028 	bltz	v0,8001a5e4 <binary_user_check_icode_start+0x3634>
8001a544:	00402021 	move	a0,v0
8001a548:	8fa20014 	lw	v0,20(sp)
8001a54c:	00000000 	nop
8001a550:	8c440000 	lw	a0,0(v0)
8001a554:	0c100c4c 	jal	80403130 <end+0x3130>
8001a558:	27a50010 	addiu	a1,sp,16
8001a55c:	04400021 	bltz	v0,8001a5e4 <binary_user_check_icode_start+0x3634>
8001a560:	00402021 	move	a0,v0
8001a564:	8fa70014 	lw	a3,20(sp)
8001a568:	00000000 	nop
8001a56c:	8ce20008 	lw	v0,8(a3)
8001a570:	00000000 	nop
8001a574:	30420003 	andi	v0,v0,0x3
8001a578:	24030001 	li	v1,1
8001a57c:	1443000a 	bne	v0,v1,8001a5a8 <binary_user_check_icode_start+0x35f8>
8001a580:	02002821 	move	a1,s0
8001a584:	3c020041 	lui	v0,0x41
8001a588:	8c42afd0 	lw	v0,-20528(v0)
8001a58c:	3c040041 	lui	a0,0x41
8001a590:	2484990c 	addiu	a0,a0,-26356
8001a594:	8c4500a4 	lw	a1,164(v0)
8001a598:	0c10047a 	jal	804011e8 <end+0x11e8>
8001a59c:	02403021 	move	a2,s2
8001a5a0:	10000010 	b	8001a5e4 <binary_user_check_icode_start+0x3634>
8001a5a4:	2404fffd 	li	a0,-3
8001a5a8:	8fa20010 	lw	v0,16(sp)
8001a5ac:	00000000 	nop
8001a5b0:	8c420008 	lw	v0,8(v0)
8001a5b4:	00e02021 	move	a0,a3
8001a5b8:	8ce70004 	lw	a3,4(a3)
8001a5bc:	0040f809 	jalr	v0
8001a5c0:	02203021 	move	a2,s1
8001a5c4:	04400007 	bltz	v0,8001a5e4 <binary_user_check_icode_start+0x3634>
8001a5c8:	00402021 	move	a0,v0
8001a5cc:	8fa30014 	lw	v1,20(sp)
8001a5d0:	00000000 	nop
8001a5d4:	8c620004 	lw	v0,4(v1)
8001a5d8:	00000000 	nop
8001a5dc:	00821021 	addu	v0,a0,v0
8001a5e0:	ac620004 	sw	v0,4(v1)
8001a5e4:	00801021 	move	v0,a0
8001a5e8:	8fbf0024 	lw	ra,36(sp)
8001a5ec:	8fb20020 	lw	s2,32(sp)
8001a5f0:	8fb1001c 	lw	s1,28(sp)
8001a5f4:	8fb00018 	lw	s0,24(sp)
8001a5f8:	03e00008 	jr	ra
8001a5fc:	27bd0028 	addiu	sp,sp,40
8001a600:	27bdffd8 	addiu	sp,sp,-40
8001a604:	afbf0020 	sw	ra,32(sp)
8001a608:	afb3001c 	sw	s3,28(sp)
8001a60c:	afb20018 	sw	s2,24(sp)
8001a610:	afb10014 	sw	s1,20(sp)
8001a614:	afb00010 	sw	s0,16(sp)
8001a618:	00809821 	move	s3,a0
8001a61c:	00a09021 	move	s2,a1
8001a620:	14c00003 	bnez	a2,8001a630 <binary_user_check_icode_start+0x3680>
8001a624:	00c08821 	move	s1,a2
8001a628:	10000010 	b	8001a66c <binary_user_check_icode_start+0x36bc>
8001a62c:	00001021 	move	v0,zero
8001a630:	00008021 	move	s0,zero
8001a634:	00001821 	move	v1,zero
8001a638:	02602021 	move	a0,s3
8001a63c:	02432821 	addu	a1,s2,v1
8001a640:	0c100d5a 	jal	80403568 <end+0x3568>
8001a644:	02233023 	subu	a2,s1,v1
8001a648:	04400008 	bltz	v0,8001a66c <binary_user_check_icode_start+0x36bc>
8001a64c:	00000000 	nop
8001a650:	10400005 	beqz	v0,8001a668 <binary_user_check_icode_start+0x36b8>
8001a654:	00000000 	nop
8001a658:	02028021 	addu	s0,s0,v0
8001a65c:	0211102b 	sltu	v0,s0,s1
8001a660:	1440fff5 	bnez	v0,8001a638 <binary_user_check_icode_start+0x3688>
8001a664:	02001821 	move	v1,s0
8001a668:	02001021 	move	v0,s0
8001a66c:	8fbf0020 	lw	ra,32(sp)
8001a670:	8fb3001c 	lw	s3,28(sp)
8001a674:	8fb20018 	lw	s2,24(sp)
8001a678:	8fb10014 	lw	s1,20(sp)
8001a67c:	8fb00010 	lw	s0,16(sp)
8001a680:	03e00008 	jr	ra
8001a684:	27bd0028 	addiu	sp,sp,40
8001a688:	27bdffd8 	addiu	sp,sp,-40
8001a68c:	afbf0024 	sw	ra,36(sp)
8001a690:	afb20020 	sw	s2,32(sp)
8001a694:	afb1001c 	sw	s1,28(sp)
8001a698:	afb00018 	sw	s0,24(sp)
8001a69c:	00809021 	move	s2,a0
8001a6a0:	00a08021 	move	s0,a1
8001a6a4:	00c08821 	move	s1,a2
8001a6a8:	0c100c9e 	jal	80403278 <end+0x3278>
8001a6ac:	27a50014 	addiu	a1,sp,20
8001a6b0:	04400027 	bltz	v0,8001a750 <binary_user_check_icode_start+0x37a0>
8001a6b4:	00402021 	move	a0,v0
8001a6b8:	8fa20014 	lw	v0,20(sp)
8001a6bc:	00000000 	nop
8001a6c0:	8c440000 	lw	a0,0(v0)
8001a6c4:	0c100c4c 	jal	80403130 <end+0x3130>
8001a6c8:	27a50010 	addiu	a1,sp,16
8001a6cc:	04400020 	bltz	v0,8001a750 <binary_user_check_icode_start+0x37a0>
8001a6d0:	00402021 	move	a0,v0
8001a6d4:	8fa30014 	lw	v1,20(sp)
8001a6d8:	00000000 	nop
8001a6dc:	8c620008 	lw	v0,8(v1)
8001a6e0:	00000000 	nop
8001a6e4:	30420003 	andi	v0,v0,0x3
8001a6e8:	1440000a 	bnez	v0,8001a714 <binary_user_check_icode_start+0x3764>
8001a6ec:	02002821 	move	a1,s0
8001a6f0:	3c020041 	lui	v0,0x41
8001a6f4:	8c42afd0 	lw	v0,-20528(v0)
8001a6f8:	3c040041 	lui	a0,0x41
8001a6fc:	24849928 	addiu	a0,a0,-26328
8001a700:	8c4500a4 	lw	a1,164(v0)
8001a704:	0c10047a 	jal	804011e8 <end+0x11e8>
8001a708:	02403021 	move	a2,s2
8001a70c:	10000010 	b	8001a750 <binary_user_check_icode_start+0x37a0>
8001a710:	2404fffd 	li	a0,-3
8001a714:	8fa20010 	lw	v0,16(sp)
8001a718:	00000000 	nop
8001a71c:	8c42000c 	lw	v0,12(v0)
8001a720:	00602021 	move	a0,v1
8001a724:	8c670004 	lw	a3,4(v1)
8001a728:	0040f809 	jalr	v0
8001a72c:	02203021 	move	a2,s1
8001a730:	18400007 	blez	v0,8001a750 <binary_user_check_icode_start+0x37a0>
8001a734:	00402021 	move	a0,v0
8001a738:	8fa30014 	lw	v1,20(sp)
8001a73c:	00000000 	nop
8001a740:	8c620004 	lw	v0,4(v1)
8001a744:	00000000 	nop
8001a748:	00821021 	addu	v0,a0,v0
8001a74c:	ac620004 	sw	v0,4(v1)
8001a750:	00801021 	move	v0,a0
8001a754:	8fbf0024 	lw	ra,36(sp)
8001a758:	8fb20020 	lw	s2,32(sp)
8001a75c:	8fb1001c 	lw	s1,28(sp)
8001a760:	8fb00018 	lw	s0,24(sp)
8001a764:	03e00008 	jr	ra
8001a768:	27bd0028 	addiu	sp,sp,40
8001a76c:	27bdffe0 	addiu	sp,sp,-32
8001a770:	afbf001c 	sw	ra,28(sp)
8001a774:	afb00018 	sw	s0,24(sp)
8001a778:	00a08021 	move	s0,a1
8001a77c:	0c100c9e 	jal	80403278 <end+0x3278>
8001a780:	27a50010 	addiu	a1,sp,16
8001a784:	04400005 	bltz	v0,8001a79c <binary_user_check_icode_start+0x37ec>
8001a788:	00000000 	nop
8001a78c:	8fa20010 	lw	v0,16(sp)
8001a790:	00000000 	nop
8001a794:	ac500004 	sw	s0,4(v0)
8001a798:	00001021 	move	v0,zero
8001a79c:	8fbf001c 	lw	ra,28(sp)
8001a7a0:	8fb00018 	lw	s0,24(sp)
8001a7a4:	03e00008 	jr	ra
8001a7a8:	27bd0020 	addiu	sp,sp,32
8001a7ac:	27bdffe0 	addiu	sp,sp,-32
8001a7b0:	afbf001c 	sw	ra,28(sp)
8001a7b4:	afb00018 	sw	s0,24(sp)
8001a7b8:	00a08021 	move	s0,a1
8001a7bc:	0c100c9e 	jal	80403278 <end+0x3278>
8001a7c0:	27a50014 	addiu	a1,sp,20
8001a7c4:	04400012 	bltz	v0,8001a810 <binary_user_check_icode_start+0x3860>
8001a7c8:	00000000 	nop
8001a7cc:	8fa20014 	lw	v0,20(sp)
8001a7d0:	00000000 	nop
8001a7d4:	8c440000 	lw	a0,0(v0)
8001a7d8:	0c100c4c 	jal	80403130 <end+0x3130>
8001a7dc:	27a50010 	addiu	a1,sp,16
8001a7e0:	0440000b 	bltz	v0,8001a810 <binary_user_check_icode_start+0x3860>
8001a7e4:	00000000 	nop
8001a7e8:	a2000000 	sb	zero,0(s0)
8001a7ec:	ae000080 	sw	zero,128(s0)
8001a7f0:	ae000084 	sw	zero,132(s0)
8001a7f4:	8fa20010 	lw	v0,16(sp)
8001a7f8:	00000000 	nop
8001a7fc:	ae020088 	sw	v0,136(s0)
8001a800:	8c420014 	lw	v0,20(v0)
8001a804:	8fa40014 	lw	a0,20(sp)
8001a808:	0040f809 	jalr	v0
8001a80c:	02002821 	move	a1,s0
8001a810:	8fbf001c 	lw	ra,28(sp)
8001a814:	8fb00018 	lw	s0,24(sp)
8001a818:	03e00008 	jr	ra
8001a81c:	27bd0020 	addiu	sp,sp,32
8001a820:	27bdffe0 	addiu	sp,sp,-32
8001a824:	afbf0018 	sw	ra,24(sp)
8001a828:	afb10014 	sw	s1,20(sp)
8001a82c:	afb00010 	sw	s0,16(sp)
8001a830:	00a08021 	move	s0,a1
8001a834:	0c100e58 	jal	80403960 <end+0x3960>
8001a838:	00002821 	move	a1,zero
8001a83c:	04400008 	bltz	v0,8001a860 <binary_user_check_icode_start+0x38b0>
8001a840:	00408821 	move	s1,v0
8001a844:	00402021 	move	a0,v0
8001a848:	0c100dff 	jal	804037fc <end+0x37fc>
8001a84c:	02002821 	move	a1,s0
8001a850:	00408021 	move	s0,v0
8001a854:	0c100cc5 	jal	80403314 <end+0x3314>
8001a858:	02202021 	move	a0,s1
8001a85c:	02008821 	move	s1,s0
8001a860:	02201021 	move	v0,s1
8001a864:	8fbf0018 	lw	ra,24(sp)
8001a868:	8fb10014 	lw	s1,20(sp)
8001a86c:	8fb00010 	lw	s0,16(sp)
8001a870:	03e00008 	jr	ra
8001a874:	27bd0020 	addiu	sp,sp,32
	...
8001a880:	00041582 	srl	v0,a0,0x16
8001a884:	00021080 	sll	v0,v0,0x2
8001a888:	3c030040 	lui	v1,0x40
8001a88c:	8c63700c 	lw	v1,28684(v1)
8001a890:	00000000 	nop
8001a894:	00431021 	addu	v0,v0,v1
8001a898:	8c420000 	lw	v0,0(v0)
8001a89c:	00000000 	nop
8001a8a0:	30420200 	andi	v0,v0,0x200
8001a8a4:	10400016 	beqz	v0,8001a900 <binary_user_check_icode_start+0x3950>
8001a8a8:	3c030040 	lui	v1,0x40
8001a8ac:	00041302 	srl	v0,a0,0xc
8001a8b0:	00021080 	sll	v0,v0,0x2
8001a8b4:	8c637008 	lw	v1,28680(v1)
8001a8b8:	00000000 	nop
8001a8bc:	00431021 	addu	v0,v0,v1
8001a8c0:	8c440000 	lw	a0,0(v0)
8001a8c4:	00000000 	nop
8001a8c8:	30820200 	andi	v0,a0,0x200
8001a8cc:	1040000c 	beqz	v0,8001a900 <binary_user_check_icode_start+0x3950>
8001a8d0:	00000000 	nop
8001a8d4:	00041302 	srl	v0,a0,0xc
8001a8d8:	00021880 	sll	v1,v0,0x2
8001a8dc:	00021100 	sll	v0,v0,0x4
8001a8e0:	00431023 	subu	v0,v0,v1
8001a8e4:	3c030040 	lui	v1,0x40
8001a8e8:	8c637004 	lw	v1,28676(v1)
8001a8ec:	00000000 	nop
8001a8f0:	00431021 	addu	v0,v0,v1
8001a8f4:	94420008 	lhu	v0,8(v0)
8001a8f8:	03e00008 	jr	ra
8001a8fc:	00000000 	nop
8001a900:	03e00008 	jr	ra
8001a904:	00001021 	move	v0,zero
	...
8001a910:	27bdffd0 	addiu	sp,sp,-48
8001a914:	afbf002c 	sw	ra,44(sp)
8001a918:	afb40028 	sw	s4,40(sp)
8001a91c:	afb30024 	sw	s3,36(sp)
8001a920:	afb20020 	sw	s2,32(sp)
8001a924:	afb1001c 	sw	s1,28(sp)
8001a928:	afb00018 	sw	s0,24(sp)
8001a92c:	00809021 	move	s2,a0
8001a930:	00a08821 	move	s1,a1
8001a934:	0c100c74 	jal	804031d0 <end+0x31d0>
8001a938:	27a40010 	addiu	a0,sp,16
8001a93c:	04410006 	bgez	v0,8001a958 <binary_user_check_icode_start+0x39a8>
8001a940:	00408021 	move	s0,v0
8001a944:	3c040041 	lui	a0,0x41
8001a948:	0c10047a 	jal	804011e8 <end+0x11e8>
8001a94c:	24849950 	addiu	a0,a0,-26288
8001a950:	1000002f 	b	8001aa10 <binary_user_check_icode_start+0x3a60>
8001a954:	02001021 	move	v0,s0
8001a958:	02402021 	move	a0,s2
8001a95c:	8fa60010 	lw	a2,16(sp)
8001a960:	0c1010a5 	jal	80404294 <end+0x4294>
8001a964:	02202821 	move	a1,s1
8001a968:	04410007 	bgez	v0,8001a988 <binary_user_check_icode_start+0x39d8>
8001a96c:	00408021 	move	s0,v0
8001a970:	3c040041 	lui	a0,0x41
8001a974:	24849968 	addiu	a0,a0,-26264
8001a978:	0c10047a 	jal	804011e8 <end+0x11e8>
8001a97c:	02402821 	move	a1,s2
8001a980:	10000023 	b	8001aa10 <binary_user_check_icode_start+0x3a60>
8001a984:	02001021 	move	v0,s0
8001a988:	8fa40010 	lw	a0,16(sp)
8001a98c:	0c100cb2 	jal	804032c8 <end+0x32c8>
8001a990:	00000000 	nop
8001a994:	8fa40010 	lw	a0,16(sp)
8001a998:	00000000 	nop
8001a99c:	8c920090 	lw	s2,144(a0)
8001a9a0:	8c93000c 	lw	s3,12(a0)
8001a9a4:	1640000a 	bnez	s2,8001a9d0 <binary_user_check_icode_start+0x3a20>
8001a9a8:	0040a021 	move	s4,v0
8001a9ac:	0c100cbd 	jal	804032f4 <end+0x32f4>
8001a9b0:	00000000 	nop
8001a9b4:	10000015 	b	8001aa0c <binary_user_check_icode_start+0x3a5c>
8001a9b8:	00408021 	move	s0,v0
8001a9bc:	3c040041 	lui	a0,0x41
8001a9c0:	0c10047a 	jal	804011e8 <end+0x11e8>
8001a9c4:	24849980 	addiu	a0,a0,-26240
8001a9c8:	10000011 	b	8001aa10 <binary_user_check_icode_start+0x3a60>
8001a9cc:	02001021 	move	v0,s0
8001a9d0:	00008821 	move	s1,zero
8001a9d4:	02602021 	move	a0,s3
8001a9d8:	02202821 	move	a1,s1
8001a9dc:	0c1010c4 	jal	80404310 <end+0x4310>
8001a9e0:	02343021 	addu	a2,s1,s4
8001a9e4:	0440fff5 	bltz	v0,8001a9bc <binary_user_check_icode_start+0x3a0c>
8001a9e8:	00408021 	move	s0,v0
8001a9ec:	26311000 	addiu	s1,s1,4096
8001a9f0:	0232102b 	sltu	v0,s1,s2
8001a9f4:	1440fff8 	bnez	v0,8001a9d8 <binary_user_check_icode_start+0x3a28>
8001a9f8:	02602021 	move	a0,s3
8001a9fc:	8fa40010 	lw	a0,16(sp)
8001aa00:	0c100cbd 	jal	804032f4 <end+0x32f4>
8001aa04:	00000000 	nop
8001aa08:	00408021 	move	s0,v0
8001aa0c:	02001021 	move	v0,s0
8001aa10:	8fbf002c 	lw	ra,44(sp)
8001aa14:	8fb40028 	lw	s4,40(sp)
8001aa18:	8fb30024 	lw	s3,36(sp)
8001aa1c:	8fb20020 	lw	s2,32(sp)
8001aa20:	8fb1001c 	lw	s1,28(sp)
8001aa24:	8fb00018 	lw	s0,24(sp)
8001aa28:	03e00008 	jr	ra
8001aa2c:	27bd0030 	addiu	sp,sp,48
8001aa30:	27bdffd8 	addiu	sp,sp,-40
8001aa34:	afbf0020 	sw	ra,32(sp)
8001aa38:	afb3001c 	sw	s3,28(sp)
8001aa3c:	afb20018 	sw	s2,24(sp)
8001aa40:	afb10014 	sw	s1,20(sp)
8001aa44:	afb00010 	sw	s0,16(sp)
8001aa48:	8c91000c 	lw	s1,12(a0)
8001aa4c:	8c920090 	lw	s2,144(a0)
8001aa50:	0c100cb2 	jal	804032c8 <end+0x32c8>
8001aa54:	00000000 	nop
8001aa58:	12400009 	beqz	s2,8001aa80 <binary_user_check_icode_start+0x3ad0>
8001aa5c:	00409821 	move	s3,v0
8001aa60:	00008021 	move	s0,zero
8001aa64:	02202021 	move	a0,s1
8001aa68:	0c1010fe 	jal	804043f8 <end+0x43f8>
8001aa6c:	02002821 	move	a1,s0
8001aa70:	26101000 	addiu	s0,s0,4096
8001aa74:	0212102b 	sltu	v0,s0,s2
8001aa78:	1440fffb 	bnez	v0,8001aa68 <binary_user_check_icode_start+0x3ab8>
8001aa7c:	02202021 	move	a0,s1
8001aa80:	0c1010f1 	jal	804043c4 <end+0x43c4>
8001aa84:	02202021 	move	a0,s1
8001aa88:	0441000b 	bgez	v0,8001aab8 <binary_user_check_icode_start+0x3b08>
8001aa8c:	00408021 	move	s0,v0
8001aa90:	3c040041 	lui	a0,0x41
8001aa94:	0c10047a 	jal	804011e8 <end+0x11e8>
8001aa98:	24849998 	addiu	a0,a0,-26216
8001aa9c:	10000013 	b	8001aaec <binary_user_check_icode_start+0x3b3c>
8001aaa0:	02001021 	move	v0,s0
8001aaa4:	3c040041 	lui	a0,0x41
8001aaa8:	0c10047a 	jal	804011e8 <end+0x11e8>
8001aaac:	248499b0 	addiu	a0,a0,-26192
8001aab0:	1000000e 	b	8001aaec <binary_user_check_icode_start+0x3b3c>
8001aab4:	02001021 	move	v0,s0
8001aab8:	1240000a 	beqz	s2,8001aae4 <binary_user_check_icode_start+0x3b34>
8001aabc:	00008821 	move	s1,zero
8001aac0:	00002021 	move	a0,zero
8001aac4:	0c100b49 	jal	80402d24 <end+0x2d24>
8001aac8:	02332821 	addu	a1,s1,s3
8001aacc:	0440fff5 	bltz	v0,8001aaa4 <binary_user_check_icode_start+0x3af4>
8001aad0:	00408021 	move	s0,v0
8001aad4:	26311000 	addiu	s1,s1,4096
8001aad8:	0232102b 	sltu	v0,s1,s2
8001aadc:	1440fff9 	bnez	v0,8001aac4 <binary_user_check_icode_start+0x3b14>
8001aae0:	00002021 	move	a0,zero
8001aae4:	00008021 	move	s0,zero
8001aae8:	02001021 	move	v0,s0
8001aaec:	8fbf0020 	lw	ra,32(sp)
8001aaf0:	8fb3001c 	lw	s3,28(sp)
8001aaf4:	8fb20018 	lw	s2,24(sp)
8001aaf8:	8fb10014 	lw	s1,20(sp)
8001aafc:	8fb00010 	lw	s0,16(sp)
8001ab00:	03e00008 	jr	ra
8001ab04:	27bd0028 	addiu	sp,sp,40
8001ab08:	27bdffe0 	addiu	sp,sp,-32
8001ab0c:	afbf001c 	sw	ra,28(sp)
8001ab10:	afb20018 	sw	s2,24(sp)
8001ab14:	afb10014 	sw	s1,20(sp)
8001ab18:	afb00010 	sw	s0,16(sp)
8001ab1c:	00a09021 	move	s2,a1
8001ab20:	00c08021 	move	s0,a2
8001ab24:	8c830090 	lw	v1,144(a0)
8001ab28:	00000000 	nop
8001ab2c:	0067102b 	sltu	v0,v1,a3
8001ab30:	10400003 	beqz	v0,8001ab40 <binary_user_check_icode_start+0x3b90>
8001ab34:	00e08821 	move	s1,a3
8001ab38:	1000000d 	b	8001ab70 <binary_user_check_icode_start+0x3bc0>
8001ab3c:	00001021 	move	v0,zero
8001ab40:	00e61021 	addu	v0,a3,a2
8001ab44:	0062102b 	sltu	v0,v1,v0
8001ab48:	10400002 	beqz	v0,8001ab54 <binary_user_check_icode_start+0x3ba4>
8001ab4c:	00000000 	nop
8001ab50:	00678023 	subu	s0,v1,a3
8001ab54:	0c100cb2 	jal	804032c8 <end+0x32c8>
8001ab58:	00000000 	nop
8001ab5c:	00512021 	addu	a0,v0,s1
8001ab60:	02402821 	move	a1,s2
8001ab64:	0c10099c 	jal	80402670 <end+0x2670>
8001ab68:	02003021 	move	a2,s0
8001ab6c:	02001021 	move	v0,s0
8001ab70:	8fbf001c 	lw	ra,28(sp)
8001ab74:	8fb20018 	lw	s2,24(sp)
8001ab78:	8fb10014 	lw	s1,20(sp)
8001ab7c:	8fb00010 	lw	s0,16(sp)
8001ab80:	03e00008 	jr	ra
8001ab84:	27bd0020 	addiu	sp,sp,32
8001ab88:	27bdffd8 	addiu	sp,sp,-40
8001ab8c:	afbf0020 	sw	ra,32(sp)
8001ab90:	afb1001c 	sw	s1,28(sp)
8001ab94:	afb00018 	sw	s0,24(sp)
8001ab98:	00a08021 	move	s0,a1
8001ab9c:	00c08821 	move	s1,a2
8001aba0:	0c100c9e 	jal	80403278 <end+0x3278>
8001aba4:	27a50010 	addiu	a1,sp,16
8001aba8:	04400029 	bltz	v0,8001ac50 <binary_user_check_icode_start+0x3ca0>
8001abac:	3c030041 	lui	v1,0x41
8001abb0:	8fa40010 	lw	a0,16(sp)
8001abb4:	00000000 	nop
8001abb8:	8c820000 	lw	v0,0(a0)
8001abbc:	8c639a88 	lw	v1,-25976(v1)
8001abc0:	00000000 	nop
8001abc4:	14430022 	bne	v0,v1,8001ac50 <binary_user_check_icode_start+0x3ca0>
8001abc8:	2402fffd 	li	v0,-3
8001abcc:	0c100cb2 	jal	804032c8 <end+0x32c8>
8001abd0:	00000000 	nop
8001abd4:	00502021 	addu	a0,v0,s0
8001abd8:	3c02003f 	lui	v0,0x3f
8001abdc:	3442ffff 	ori	v0,v0,0xffff
8001abe0:	0050102b 	sltu	v0,v0,s0
8001abe4:	1440001a 	bnez	v0,8001ac50 <binary_user_check_icode_start+0x3ca0>
8001abe8:	2402fff9 	li	v0,-7
8001abec:	00041582 	srl	v0,a0,0x16
8001abf0:	00021080 	sll	v0,v0,0x2
8001abf4:	3c030040 	lui	v1,0x40
8001abf8:	8c63700c 	lw	v1,28684(v1)
8001abfc:	00000000 	nop
8001ac00:	00431021 	addu	v0,v0,v1
8001ac04:	8c420000 	lw	v0,0(v0)
8001ac08:	00000000 	nop
8001ac0c:	30420200 	andi	v0,v0,0x200
8001ac10:	1040000f 	beqz	v0,8001ac50 <binary_user_check_icode_start+0x3ca0>
8001ac14:	2402fff9 	li	v0,-7
8001ac18:	00041302 	srl	v0,a0,0xc
8001ac1c:	00021080 	sll	v0,v0,0x2
8001ac20:	3c030040 	lui	v1,0x40
8001ac24:	8c637008 	lw	v1,28680(v1)
8001ac28:	00000000 	nop
8001ac2c:	00431021 	addu	v0,v0,v1
8001ac30:	8c420000 	lw	v0,0(v0)
8001ac34:	00000000 	nop
8001ac38:	30420200 	andi	v0,v0,0x200
8001ac3c:	10400003 	beqz	v0,8001ac4c <binary_user_check_icode_start+0x3c9c>
8001ac40:	00001021 	move	v0,zero
8001ac44:	10000002 	b	8001ac50 <binary_user_check_icode_start+0x3ca0>
8001ac48:	ae240000 	sw	a0,0(s1)
8001ac4c:	2402fff9 	li	v0,-7
8001ac50:	8fbf0020 	lw	ra,32(sp)
8001ac54:	8fb1001c 	lw	s1,28(sp)
8001ac58:	8fb00018 	lw	s0,24(sp)
8001ac5c:	03e00008 	jr	ra
8001ac60:	27bd0028 	addiu	sp,sp,40
8001ac64:	27bdffd8 	addiu	sp,sp,-40
8001ac68:	afbf0024 	sw	ra,36(sp)
8001ac6c:	afb40020 	sw	s4,32(sp)
8001ac70:	afb3001c 	sw	s3,28(sp)
8001ac74:	afb20018 	sw	s2,24(sp)
8001ac78:	afb10014 	sw	s1,20(sp)
8001ac7c:	afb00010 	sw	s0,16(sp)
8001ac80:	00808821 	move	s1,a0
8001ac84:	00a0a021 	move	s4,a1
8001ac88:	00c09021 	move	s2,a2
8001ac8c:	00e68021 	addu	s0,a3,a2
8001ac90:	3c020040 	lui	v0,0x40
8001ac94:	0050102b 	sltu	v0,v0,s0
8001ac98:	10400003 	beqz	v0,8001aca8 <binary_user_check_icode_start+0x3cf8>
8001ac9c:	00e09821 	move	s3,a3
8001aca0:	10000014 	b	8001acf4 <binary_user_check_icode_start+0x3d44>
8001aca4:	2402fff9 	li	v0,-7
8001aca8:	8c820090 	lw	v0,144(a0)
8001acac:	00000000 	nop
8001acb0:	0050102b 	sltu	v0,v0,s0
8001acb4:	10400008 	beqz	v0,8001acd8 <binary_user_check_icode_start+0x3d28>
8001acb8:	00000000 	nop
8001acbc:	0c100cbd 	jal	804032f4 <end+0x32f4>
8001acc0:	00000000 	nop
8001acc4:	00402021 	move	a0,v0
8001acc8:	0c100f70 	jal	80403dc0 <end+0x3dc0>
8001accc:	02002821 	move	a1,s0
8001acd0:	04400008 	bltz	v0,8001acf4 <binary_user_check_icode_start+0x3d44>
8001acd4:	00000000 	nop
8001acd8:	0c100cb2 	jal	804032c8 <end+0x32c8>
8001acdc:	02202021 	move	a0,s1
8001ace0:	02802021 	move	a0,s4
8001ace4:	00532821 	addu	a1,v0,s3
8001ace8:	0c10099c 	jal	80402670 <end+0x2670>
8001acec:	02403021 	move	a2,s2
8001acf0:	02401021 	move	v0,s2
8001acf4:	8fbf0024 	lw	ra,36(sp)
8001acf8:	8fb40020 	lw	s4,32(sp)
8001acfc:	8fb3001c 	lw	s3,28(sp)
8001ad00:	8fb20018 	lw	s2,24(sp)
8001ad04:	8fb10014 	lw	s1,20(sp)
8001ad08:	8fb00010 	lw	s0,16(sp)
8001ad0c:	03e00008 	jr	ra
8001ad10:	27bd0028 	addiu	sp,sp,40
8001ad14:	27bdffe0 	addiu	sp,sp,-32
8001ad18:	afbf0018 	sw	ra,24(sp)
8001ad1c:	afb10014 	sw	s1,20(sp)
8001ad20:	afb00010 	sw	s0,16(sp)
8001ad24:	00808021 	move	s0,a0
8001ad28:	00a08821 	move	s1,a1
8001ad2c:	00a02021 	move	a0,a1
8001ad30:	0c100bff 	jal	80402ffc <end+0x2ffc>
8001ad34:	26050010 	addiu	a1,s0,16
8001ad38:	8e020090 	lw	v0,144(s0)
8001ad3c:	00000000 	nop
8001ad40:	ae220080 	sw	v0,128(s1)
8001ad44:	8e020094 	lw	v0,148(s0)
8001ad48:	00000000 	nop
8001ad4c:	38420001 	xori	v0,v0,0x1
8001ad50:	2c420001 	sltiu	v0,v0,1
8001ad54:	ae220084 	sw	v0,132(s1)
8001ad58:	00001021 	move	v0,zero
8001ad5c:	8fbf0018 	lw	ra,24(sp)
8001ad60:	8fb10014 	lw	s1,20(sp)
8001ad64:	8fb00010 	lw	s0,16(sp)
8001ad68:	03e00008 	jr	ra
8001ad6c:	27bd0020 	addiu	sp,sp,32
8001ad70:	27bdffb8 	addiu	sp,sp,-72
8001ad74:	afbf0044 	sw	ra,68(sp)
8001ad78:	afbe0040 	sw	s8,64(sp)
8001ad7c:	afb7003c 	sw	s7,60(sp)
8001ad80:	afb60038 	sw	s6,56(sp)
8001ad84:	afb50034 	sw	s5,52(sp)
8001ad88:	afb40030 	sw	s4,48(sp)
8001ad8c:	afb3002c 	sw	s3,44(sp)
8001ad90:	afb20028 	sw	s2,40(sp)
8001ad94:	afb10024 	sw	s1,36(sp)
8001ad98:	afb00020 	sw	s0,32(sp)
8001ad9c:	3c020040 	lui	v0,0x40
8001ada0:	0045102b 	sltu	v0,v0,a1
8001ada4:	10400003 	beqz	v0,8001adb4 <binary_user_check_icode_start+0x3e04>
8001ada8:	00a08821 	move	s1,a1
8001adac:	10000049 	b	8001aed4 <binary_user_check_icode_start+0x3f24>
8001adb0:	2410fff9 	li	s0,-7
8001adb4:	0c100c9e 	jal	80403278 <end+0x3278>
8001adb8:	27a50018 	addiu	a1,sp,24
8001adbc:	04400045 	bltz	v0,8001aed4 <binary_user_check_icode_start+0x3f24>
8001adc0:	00408021 	move	s0,v0
8001adc4:	8fa50018 	lw	a1,24(sp)
8001adc8:	00000000 	nop
8001adcc:	8ca20000 	lw	v0,0(a1)
8001add0:	3c030041 	lui	v1,0x41
8001add4:	8c639a88 	lw	v1,-25976(v1)
8001add8:	00000000 	nop
8001addc:	10430008 	beq	v0,v1,8001ae00 <binary_user_check_icode_start+0x3e50>
8001ade0:	2410fffd 	li	s0,-3
8001ade4:	1000003c 	b	8001aed8 <binary_user_check_icode_start+0x3f28>
8001ade8:	02001021 	move	v0,s0
8001adec:	02602021 	move	a0,s3
8001adf0:	0c1010e2 	jal	80404388 <end+0x4388>
8001adf4:	02e02821 	move	a1,s7
8001adf8:	10000037 	b	8001aed8 <binary_user_check_icode_start+0x3f28>
8001adfc:	02001021 	move	v0,s0
8001ae00:	8cb3000c 	lw	s3,12(a1)
8001ae04:	8cb70090 	lw	s7,144(a1)
8001ae08:	02602021 	move	a0,s3
8001ae0c:	0c1010e2 	jal	80404388 <end+0x4388>
8001ae10:	02202821 	move	a1,s1
8001ae14:	0440002f 	bltz	v0,8001aed4 <binary_user_check_icode_start+0x3f24>
8001ae18:	00408021 	move	s0,v0
8001ae1c:	8fa40018 	lw	a0,24(sp)
8001ae20:	0c100cb2 	jal	804032c8 <end+0x32c8>
8001ae24:	26f60fff 	addiu	s6,s7,4095
8001ae28:	0040f021 	move	s8,v0
8001ae2c:	2402f000 	li	v0,-4096
8001ae30:	02c29024 	and	s2,s6,v0
8001ae34:	26350fff 	addiu	s5,s1,4095
8001ae38:	02a2a024 	and	s4,s5,v0
8001ae3c:	0254102b 	sltu	v0,s2,s4
8001ae40:	1040000d 	beqz	v0,8001ae78 <binary_user_check_icode_start+0x3ec8>
8001ae44:	2402f000 	li	v0,-4096
8001ae48:	025e8821 	addu	s1,s2,s8
8001ae4c:	02602021 	move	a0,s3
8001ae50:	02402821 	move	a1,s2
8001ae54:	0c1010c4 	jal	80404310 <end+0x4310>
8001ae58:	02203021 	move	a2,s1
8001ae5c:	0440ffe3 	bltz	v0,8001adec <binary_user_check_icode_start+0x3e3c>
8001ae60:	00408021 	move	s0,v0
8001ae64:	26521000 	addiu	s2,s2,4096
8001ae68:	0254102b 	sltu	v0,s2,s4
8001ae6c:	1440fff7 	bnez	v0,8001ae4c <binary_user_check_icode_start+0x3e9c>
8001ae70:	26311000 	addiu	s1,s1,4096
8001ae74:	2402f000 	li	v0,-4096
8001ae78:	02a28024 	and	s0,s5,v0
8001ae7c:	02c29024 	and	s2,s6,v0
8001ae80:	0212102b 	sltu	v0,s0,s2
8001ae84:	10400012 	beqz	v0,8001aed0 <binary_user_check_icode_start+0x3f20>
8001ae88:	03d08821 	addu	s1,s8,s0
8001ae8c:	00002021 	move	a0,zero
8001ae90:	0c100b49 	jal	80402d24 <end+0x2d24>
8001ae94:	02202821 	move	a1,s1
8001ae98:	0441000a 	bgez	v0,8001aec4 <binary_user_check_icode_start+0x3f14>
8001ae9c:	26101000 	addiu	s0,s0,4096
8001aea0:	2610f000 	addiu	s0,s0,-4096
8001aea4:	afa20010 	sw	v0,16(sp)
8001aea8:	3c040041 	lui	a0,0x41
8001aeac:	248499cc 	addiu	a0,a0,-26164
8001aeb0:	24050113 	li	a1,275
8001aeb4:	3c060041 	lui	a2,0x41
8001aeb8:	24c699d4 	addiu	a2,a2,-26156
8001aebc:	0c10048a 	jal	80401228 <end+0x1228>
8001aec0:	02203821 	move	a3,s1
8001aec4:	0212102b 	sltu	v0,s0,s2
8001aec8:	1440fff0 	bnez	v0,8001ae8c <binary_user_check_icode_start+0x3edc>
8001aecc:	26311000 	addiu	s1,s1,4096
8001aed0:	00008021 	move	s0,zero
8001aed4:	02001021 	move	v0,s0
8001aed8:	8fbf0044 	lw	ra,68(sp)
8001aedc:	8fbe0040 	lw	s8,64(sp)
8001aee0:	8fb7003c 	lw	s7,60(sp)
8001aee4:	8fb60038 	lw	s6,56(sp)
8001aee8:	8fb50034 	lw	s5,52(sp)
8001aeec:	8fb40030 	lw	s4,48(sp)
8001aef0:	8fb3002c 	lw	s3,44(sp)
8001aef4:	8fb20028 	lw	s2,40(sp)
8001aef8:	8fb10024 	lw	s1,36(sp)
8001aefc:	8fb00020 	lw	s0,32(sp)
8001af00:	03e00008 	jr	ra
8001af04:	27bd0048 	addiu	sp,sp,72
8001af08:	27bdffe8 	addiu	sp,sp,-24
8001af0c:	afbf0010 	sw	ra,16(sp)
8001af10:	0c10110d 	jal	80404434 <end+0x4434>
8001af14:	00000000 	nop
8001af18:	8fbf0010 	lw	ra,16(sp)
8001af1c:	00000000 	nop
8001af20:	03e00008 	jr	ra
8001af24:	27bd0018 	addiu	sp,sp,24
8001af28:	27bdffe8 	addiu	sp,sp,-24
8001af2c:	afbf0010 	sw	ra,16(sp)
8001af30:	0c101125 	jal	80404494 <end+0x4494>
8001af34:	00000000 	nop
8001af38:	8fbf0010 	lw	ra,16(sp)
8001af3c:	00000000 	nop
8001af40:	03e00008 	jr	ra
8001af44:	27bd0018 	addiu	sp,sp,24
	...
8001af50:	27bdffd0 	addiu	sp,sp,-48
8001af54:	afbf002c 	sw	ra,44(sp)
8001af58:	afb20028 	sw	s2,40(sp)
8001af5c:	afb10024 	sw	s1,36(sp)
8001af60:	afb00020 	sw	s0,32(sp)
8001af64:	00809021 	move	s2,a0
8001af68:	0c100c74 	jal	804031d0 <end+0x31d0>
8001af6c:	27a40018 	addiu	a0,sp,24
8001af70:	04400056 	bltz	v0,8001b0cc <binary_user_check_icode_start+0x411c>
8001af74:	00408021 	move	s0,v0
8001af78:	00002021 	move	a0,zero
8001af7c:	8fa50018 	lw	a1,24(sp)
8001af80:	0c100b28 	jal	80402ca0 <end+0x2ca0>
8001af84:	24060604 	li	a2,1540
8001af88:	04400050 	bltz	v0,8001b0cc <binary_user_check_icode_start+0x411c>
8001af8c:	00408021 	move	s0,v0
8001af90:	0c100c74 	jal	804031d0 <end+0x31d0>
8001af94:	27a4001c 	addiu	a0,sp,28
8001af98:	04400049 	bltz	v0,8001b0c0 <binary_user_check_icode_start+0x4110>
8001af9c:	00408021 	move	s0,v0
8001afa0:	00002021 	move	a0,zero
8001afa4:	8fa5001c 	lw	a1,28(sp)
8001afa8:	0c100b28 	jal	80402ca0 <end+0x2ca0>
8001afac:	24060604 	li	a2,1540
8001afb0:	04400043 	bltz	v0,8001b0c0 <binary_user_check_icode_start+0x4110>
8001afb4:	00408021 	move	s0,v0
8001afb8:	8fa40018 	lw	a0,24(sp)
8001afbc:	0c100cb2 	jal	804032c8 <end+0x32c8>
8001afc0:	00000000 	nop
8001afc4:	00408821 	move	s1,v0
8001afc8:	00002021 	move	a0,zero
8001afcc:	00402821 	move	a1,v0
8001afd0:	0c100b28 	jal	80402ca0 <end+0x2ca0>
8001afd4:	24060604 	li	a2,1540
8001afd8:	04400036 	bltz	v0,8001b0b4 <binary_user_check_icode_start+0x4104>
8001afdc:	00408021 	move	s0,v0
8001afe0:	8fa4001c 	lw	a0,28(sp)
8001afe4:	0c100cb2 	jal	804032c8 <end+0x32c8>
8001afe8:	00000000 	nop
8001afec:	24030604 	li	v1,1540
8001aff0:	afa30010 	sw	v1,16(sp)
8001aff4:	00002021 	move	a0,zero
8001aff8:	02202821 	move	a1,s1
8001affc:	00003021 	move	a2,zero
8001b000:	0c100b37 	jal	80402cdc <end+0x2cdc>
8001b004:	00403821 	move	a3,v0
8001b008:	04400027 	bltz	v0,8001b0a8 <binary_user_check_icode_start+0x40f8>
8001b00c:	00408021 	move	s0,v0
8001b010:	3c040041 	lui	a0,0x41
8001b014:	8c839aa4 	lw	v1,-25948(a0)
8001b018:	8fa20018 	lw	v0,24(sp)
8001b01c:	00000000 	nop
8001b020:	ac430000 	sw	v1,0(v0)
8001b024:	8fa20018 	lw	v0,24(sp)
8001b028:	00000000 	nop
8001b02c:	ac400008 	sw	zero,8(v0)
8001b030:	8c839aa4 	lw	v1,-25948(a0)
8001b034:	8fa2001c 	lw	v0,28(sp)
8001b038:	00000000 	nop
8001b03c:	ac430000 	sw	v1,0(v0)
8001b040:	24030001 	li	v1,1
8001b044:	8fa2001c 	lw	v0,28(sp)
8001b048:	00000000 	nop
8001b04c:	ac430008 	sw	v1,8(v0)
8001b050:	3c020041 	lui	v0,0x41
8001b054:	8c45afd0 	lw	a1,-20528(v0)
8001b058:	00111302 	srl	v0,s1,0xc
8001b05c:	00021080 	sll	v0,v0,0x2
8001b060:	3c030040 	lui	v1,0x40
8001b064:	8c637008 	lw	v1,28680(v1)
8001b068:	00000000 	nop
8001b06c:	00431021 	addu	v0,v0,v1
8001b070:	8c460000 	lw	a2,0(v0)
8001b074:	3c040041 	lui	a0,0x41
8001b078:	8ca500a4 	lw	a1,164(a1)
8001b07c:	0c10047a 	jal	804011e8 <end+0x11e8>
8001b080:	24849a04 	addiu	a0,a0,-26108
8001b084:	8fa40018 	lw	a0,24(sp)
8001b088:	0c100cbd 	jal	804032f4 <end+0x32f4>
8001b08c:	00008021 	move	s0,zero
8001b090:	ae420000 	sw	v0,0(s2)
8001b094:	8fa4001c 	lw	a0,28(sp)
8001b098:	0c100cbd 	jal	804032f4 <end+0x32f4>
8001b09c:	00000000 	nop
8001b0a0:	1000000a 	b	8001b0cc <binary_user_check_icode_start+0x411c>
8001b0a4:	ae420004 	sw	v0,4(s2)
8001b0a8:	00002021 	move	a0,zero
8001b0ac:	0c100b49 	jal	80402d24 <end+0x2d24>
8001b0b0:	02202821 	move	a1,s1
8001b0b4:	8fa5001c 	lw	a1,28(sp)
8001b0b8:	0c100b49 	jal	80402d24 <end+0x2d24>
8001b0bc:	00002021 	move	a0,zero
8001b0c0:	8fa50018 	lw	a1,24(sp)
8001b0c4:	0c100b49 	jal	80402d24 <end+0x2d24>
8001b0c8:	00002021 	move	a0,zero
8001b0cc:	02001021 	move	v0,s0
8001b0d0:	8fbf002c 	lw	ra,44(sp)
8001b0d4:	8fb20028 	lw	s2,40(sp)
8001b0d8:	8fb10024 	lw	s1,36(sp)
8001b0dc:	8fb00020 	lw	s0,32(sp)
8001b0e0:	03e00008 	jr	ra
8001b0e4:	27bd0030 	addiu	sp,sp,48
8001b0e8:	03e00008 	jr	ra
8001b0ec:	00000000 	nop
8001b0f0:	27bdffe0 	addiu	sp,sp,-32
8001b0f4:	afbf0018 	sw	ra,24(sp)
8001b0f8:	0c100c9e 	jal	80403278 <end+0x3278>
8001b0fc:	27a50010 	addiu	a1,sp,16
8001b100:	04400007 	bltz	v0,8001b120 <binary_user_check_icode_start+0x4170>
8001b104:	00000000 	nop
8001b108:	8fa40010 	lw	a0,16(sp)
8001b10c:	0c100cb2 	jal	804032c8 <end+0x32c8>
8001b110:	00000000 	nop
8001b114:	8fa40010 	lw	a0,16(sp)
8001b118:	0c10104e 	jal	80404138 <end+0x4138>
8001b11c:	00402821 	move	a1,v0
8001b120:	8fbf0018 	lw	ra,24(sp)
8001b124:	00000000 	nop
8001b128:	03e00008 	jr	ra
8001b12c:	27bd0020 	addiu	sp,sp,32
8001b130:	03e00008 	jr	ra
8001b134:	00000000 	nop
8001b138:	03e00008 	jr	ra
8001b13c:	00c01021 	move	v0,a2
8001b140:	27bdffe0 	addiu	sp,sp,-32
8001b144:	afbf0018 	sw	ra,24(sp)
8001b148:	afb10014 	sw	s1,20(sp)
8001b14c:	afb00010 	sw	s0,16(sp)
8001b150:	0c100cb2 	jal	804032c8 <end+0x32c8>
8001b154:	00a08021 	move	s0,a1
8001b158:	00408821 	move	s1,v0
8001b15c:	02002021 	move	a0,s0
8001b160:	3c050041 	lui	a1,0x41
8001b164:	0c100bff 	jal	80402ffc <end+0x2ffc>
8001b168:	24a59a18 	addiu	a1,a1,-26088
8001b16c:	8e220004 	lw	v0,4(s1)
8001b170:	8e230000 	lw	v1,0(s1)
8001b174:	00000000 	nop
8001b178:	00431023 	subu	v0,v0,v1
8001b17c:	ae020080 	sw	v0,128(s0)
8001b180:	ae000084 	sw	zero,132(s0)
8001b184:	3c020041 	lui	v0,0x41
8001b188:	24429aa4 	addiu	v0,v0,-25948
8001b18c:	ae020088 	sw	v0,136(s0)
8001b190:	00001021 	move	v0,zero
8001b194:	8fbf0018 	lw	ra,24(sp)
8001b198:	8fb10014 	lw	s1,20(sp)
8001b19c:	8fb00010 	lw	s0,16(sp)
8001b1a0:	03e00008 	jr	ra
8001b1a4:	27bd0020 	addiu	sp,sp,32
8001b1a8:	27bdffe8 	addiu	sp,sp,-24
8001b1ac:	afbf0010 	sw	ra,16(sp)
8001b1b0:	0c100cb2 	jal	804032c8 <end+0x32c8>
8001b1b4:	00000000 	nop
8001b1b8:	00002021 	move	a0,zero
8001b1bc:	0c100b49 	jal	80402d24 <end+0x2d24>
8001b1c0:	00402821 	move	a1,v0
8001b1c4:	00001021 	move	v0,zero
8001b1c8:	8fbf0010 	lw	ra,16(sp)
8001b1cc:	00000000 	nop
8001b1d0:	03e00008 	jr	ra
8001b1d4:	27bd0018 	addiu	sp,sp,24
	...
8001b1e0:	27bdffd8 	addiu	sp,sp,-40
8001b1e4:	afbf0020 	sw	ra,32(sp)
8001b1e8:	afb1001c 	sw	s1,28(sp)
8001b1ec:	afb00018 	sw	s0,24(sp)
8001b1f0:	00801821 	move	v1,a0
8001b1f4:	00a04021 	move	t0,a1
8001b1f8:	00c08021 	move	s0,a2
8001b1fc:	00e08821 	move	s1,a3
8001b200:	3c020040 	lui	v0,0x40
8001b204:	8c427000 	lw	v0,28672(v0)
8001b208:	00000000 	nop
8001b20c:	8c44018c 	lw	a0,396(v0)
8001b210:	00602821 	move	a1,v1
8001b214:	01003021 	move	a2,t0
8001b218:	0c100bac 	jal	80402eb0 <end+0x2eb0>
8001b21c:	24070600 	li	a3,1536
8001b220:	27a40010 	addiu	a0,sp,16
8001b224:	02002821 	move	a1,s0
8001b228:	0c100bd2 	jal	80402f48 <end+0x2f48>
8001b22c:	02203021 	move	a2,s1
8001b230:	8fbf0020 	lw	ra,32(sp)
8001b234:	8fb1001c 	lw	s1,28(sp)
8001b238:	8fb00018 	lw	s0,24(sp)
8001b23c:	03e00008 	jr	ra
8001b240:	27bd0028 	addiu	sp,sp,40
8001b244:	27bdffd0 	addiu	sp,sp,-48
8001b248:	afbf0028 	sw	ra,40(sp)
8001b24c:	afb30024 	sw	s3,36(sp)
8001b250:	afb20020 	sw	s2,32(sp)
8001b254:	afb1001c 	sw	s1,28(sp)
8001b258:	afb00018 	sw	s0,24(sp)
8001b25c:	00808821 	move	s1,a0
8001b260:	00a09021 	move	s2,a1
8001b264:	00c09821 	move	s3,a2
8001b268:	3c020040 	lui	v0,0x40
8001b26c:	0c100bf4 	jal	80402fd0 <end+0x2fd0>
8001b270:	24505000 	addiu	s0,v0,20480
8001b274:	28420400 	slti	v0,v0,1024
8001b278:	1040000a 	beqz	v0,8001b2a4 <binary_user_check_icode_start+0x42f4>
8001b27c:	2402fff6 	li	v0,-10
8001b280:	02002021 	move	a0,s0
8001b284:	0c100bff 	jal	80402ffc <end+0x2ffc>
8001b288:	02202821 	move	a1,s1
8001b28c:	ae120400 	sw	s2,1024(s0)
8001b290:	24040001 	li	a0,1
8001b294:	02002821 	move	a1,s0
8001b298:	02603021 	move	a2,s3
8001b29c:	0c10108c 	jal	80404230 <end+0x4230>
8001b2a0:	27a70010 	addiu	a3,sp,16
8001b2a4:	8fbf0028 	lw	ra,40(sp)
8001b2a8:	8fb30024 	lw	s3,36(sp)
8001b2ac:	8fb20020 	lw	s2,32(sp)
8001b2b0:	8fb1001c 	lw	s1,28(sp)
8001b2b4:	8fb00018 	lw	s0,24(sp)
8001b2b8:	03e00008 	jr	ra
8001b2bc:	27bd0030 	addiu	sp,sp,48
8001b2c0:	27bdffd8 	addiu	sp,sp,-40
8001b2c4:	afbf0024 	sw	ra,36(sp)
8001b2c8:	afb00020 	sw	s0,32(sp)
8001b2cc:	00c08021 	move	s0,a2
8001b2d0:	3c020040 	lui	v0,0x40
8001b2d4:	24435000 	addiu	v1,v0,20480
8001b2d8:	ac445000 	sw	a0,20480(v0)
8001b2dc:	ac650004 	sw	a1,4(v1)
8001b2e0:	24040002 	li	a0,2
8001b2e4:	00602821 	move	a1,v1
8001b2e8:	0c10108c 	jal	80404230 <end+0x4230>
8001b2ec:	27a70018 	addiu	a3,sp,24
8001b2f0:	0440000d 	bltz	v0,8001b328 <binary_user_check_icode_start+0x4378>
8001b2f4:	24030200 	li	v1,512
8001b2f8:	8fa70018 	lw	a3,24(sp)
8001b2fc:	2402fbfb 	li	v0,-1029
8001b300:	00e21024 	and	v0,a3,v0
8001b304:	10430008 	beq	v0,v1,8001b328 <binary_user_check_icode_start+0x4378>
8001b308:	00001021 	move	v0,zero
8001b30c:	afb00010 	sw	s0,16(sp)
8001b310:	3c040041 	lui	a0,0x41
8001b314:	24849a20 	addiu	a0,a0,-26080
8001b318:	2405004a 	li	a1,74
8001b31c:	3c060041 	lui	a2,0x41
8001b320:	0c10048a 	jal	80401228 <end+0x1228>
8001b324:	24c69a28 	addiu	a2,a2,-26072
8001b328:	8fbf0024 	lw	ra,36(sp)
8001b32c:	8fb00020 	lw	s0,32(sp)
8001b330:	03e00008 	jr	ra
8001b334:	27bd0028 	addiu	sp,sp,40
8001b338:	27bdffe8 	addiu	sp,sp,-24
8001b33c:	afbf0010 	sw	ra,16(sp)
8001b340:	3c020040 	lui	v0,0x40
8001b344:	24435000 	addiu	v1,v0,20480
8001b348:	ac445000 	sw	a0,20480(v0)
8001b34c:	ac650004 	sw	a1,4(v1)
8001b350:	24040003 	li	a0,3
8001b354:	00602821 	move	a1,v1
8001b358:	00003021 	move	a2,zero
8001b35c:	0c10108c 	jal	80404230 <end+0x4230>
8001b360:	00003821 	move	a3,zero
8001b364:	8fbf0010 	lw	ra,16(sp)
8001b368:	00000000 	nop
8001b36c:	03e00008 	jr	ra
8001b370:	27bd0018 	addiu	sp,sp,24
8001b374:	27bdffe8 	addiu	sp,sp,-24
8001b378:	afbf0010 	sw	ra,16(sp)
8001b37c:	3c050040 	lui	a1,0x40
8001b380:	aca45000 	sw	a0,20480(a1)
8001b384:	24040004 	li	a0,4
8001b388:	24a55000 	addiu	a1,a1,20480
8001b38c:	00003021 	move	a2,zero
8001b390:	0c10108c 	jal	80404230 <end+0x4230>
8001b394:	00003821 	move	a3,zero
8001b398:	8fbf0010 	lw	ra,16(sp)
8001b39c:	00000000 	nop
8001b3a0:	03e00008 	jr	ra
8001b3a4:	27bd0018 	addiu	sp,sp,24
8001b3a8:	27bdffe8 	addiu	sp,sp,-24
8001b3ac:	afbf0010 	sw	ra,16(sp)
8001b3b0:	3c020040 	lui	v0,0x40
8001b3b4:	24435000 	addiu	v1,v0,20480
8001b3b8:	ac445000 	sw	a0,20480(v0)
8001b3bc:	ac650004 	sw	a1,4(v1)
8001b3c0:	24040005 	li	a0,5
8001b3c4:	00602821 	move	a1,v1
8001b3c8:	00003021 	move	a2,zero
8001b3cc:	0c10108c 	jal	80404230 <end+0x4230>
8001b3d0:	00003821 	move	a3,zero
8001b3d4:	8fbf0010 	lw	ra,16(sp)
8001b3d8:	00000000 	nop
8001b3dc:	03e00008 	jr	ra
8001b3e0:	27bd0018 	addiu	sp,sp,24
8001b3e4:	27bdffe0 	addiu	sp,sp,-32
8001b3e8:	afbf0018 	sw	ra,24(sp)
8001b3ec:	afb10014 	sw	s1,20(sp)
8001b3f0:	afb00010 	sw	s0,16(sp)
8001b3f4:	00808821 	move	s1,a0
8001b3f8:	3c020040 	lui	v0,0x40
8001b3fc:	0c100bf4 	jal	80402fd0 <end+0x2fd0>
8001b400:	24505000 	addiu	s0,v0,20480
8001b404:	28420400 	slti	v0,v0,1024
8001b408:	10400009 	beqz	v0,8001b430 <binary_user_check_icode_start+0x4480>
8001b40c:	2402fff6 	li	v0,-10
8001b410:	02002021 	move	a0,s0
8001b414:	0c100bff 	jal	80402ffc <end+0x2ffc>
8001b418:	02202821 	move	a1,s1
8001b41c:	24040006 	li	a0,6
8001b420:	02002821 	move	a1,s0
8001b424:	00003021 	move	a2,zero
8001b428:	0c10108c 	jal	80404230 <end+0x4230>
8001b42c:	00003821 	move	a3,zero
8001b430:	8fbf0018 	lw	ra,24(sp)
8001b434:	8fb10014 	lw	s1,20(sp)
8001b438:	8fb00010 	lw	s0,16(sp)
8001b43c:	03e00008 	jr	ra
8001b440:	27bd0020 	addiu	sp,sp,32
8001b444:	27bdffe8 	addiu	sp,sp,-24
8001b448:	afbf0010 	sw	ra,16(sp)
8001b44c:	24040007 	li	a0,7
8001b450:	3c050040 	lui	a1,0x40
8001b454:	24a55000 	addiu	a1,a1,20480
8001b458:	00003021 	move	a2,zero
8001b45c:	0c10108c 	jal	80404230 <end+0x4230>
8001b460:	00003821 	move	a3,zero
8001b464:	8fbf0010 	lw	ra,16(sp)
8001b468:	00000000 	nop
8001b46c:	03e00008 	jr	ra
8001b470:	27bd0018 	addiu	sp,sp,24
	...
8001b480:	27bdffe0 	addiu	sp,sp,-32
8001b484:	afbf0018 	sw	ra,24(sp)
8001b488:	0c100c9e 	jal	80403278 <end+0x3278>
8001b48c:	27a50010 	addiu	a1,sp,16
8001b490:	04400008 	bltz	v0,8001b4b4 <binary_user_check_icode_start+0x4504>
8001b494:	3c030041 	lui	v1,0x41
8001b498:	8fa20010 	lw	v0,16(sp)
8001b49c:	00000000 	nop
8001b4a0:	8c420000 	lw	v0,0(v0)
8001b4a4:	8c639ac0 	lw	v1,-25920(v1)
8001b4a8:	00000000 	nop
8001b4ac:	00431026 	xor	v0,v0,v1
8001b4b0:	2c420001 	sltiu	v0,v0,1
8001b4b4:	8fbf0018 	lw	ra,24(sp)
8001b4b8:	00000000 	nop
8001b4bc:	03e00008 	jr	ra
8001b4c0:	27bd0020 	addiu	sp,sp,32
8001b4c4:	27bdffe0 	addiu	sp,sp,-32
8001b4c8:	afbf0018 	sw	ra,24(sp)
8001b4cc:	0c100c74 	jal	804031d0 <end+0x31d0>
8001b4d0:	27a40010 	addiu	a0,sp,16
8001b4d4:	04400012 	bltz	v0,8001b520 <binary_user_check_icode_start+0x4570>
8001b4d8:	00002021 	move	a0,zero
8001b4dc:	8fa50010 	lw	a1,16(sp)
8001b4e0:	0c100b28 	jal	80402ca0 <end+0x2ca0>
8001b4e4:	24060604 	li	a2,1540
8001b4e8:	0440000d 	bltz	v0,8001b520 <binary_user_check_icode_start+0x4570>
8001b4ec:	00000000 	nop
8001b4f0:	3c020041 	lui	v0,0x41
8001b4f4:	8c439ac0 	lw	v1,-25920(v0)
8001b4f8:	8fa20010 	lw	v0,16(sp)
8001b4fc:	00000000 	nop
8001b500:	ac430000 	sw	v1,0(v0)
8001b504:	24030002 	li	v1,2
8001b508:	8fa20010 	lw	v0,16(sp)
8001b50c:	00000000 	nop
8001b510:	ac430008 	sw	v1,8(v0)
8001b514:	8fa40010 	lw	a0,16(sp)
8001b518:	0c100cbd 	jal	804032f4 <end+0x32f4>
8001b51c:	00000000 	nop
8001b520:	8fbf0018 	lw	ra,24(sp)
8001b524:	00000000 	nop
8001b528:	03e00008 	jr	ra
8001b52c:	27bd0020 	addiu	sp,sp,32
8001b530:	27bdffe0 	addiu	sp,sp,-32
8001b534:	afbf0018 	sw	ra,24(sp)
8001b538:	afb10014 	sw	s1,20(sp)
8001b53c:	afb00010 	sw	s0,16(sp)
8001b540:	14c00005 	bnez	a2,8001b558 <binary_user_check_icode_start+0x45a8>
8001b544:	00a08821 	move	s1,a1
8001b548:	1000001d 	b	8001b5c0 <binary_user_check_icode_start+0x4610>
8001b54c:	00008021 	move	s0,zero
8001b550:	0c100aff 	jal	80402bfc <end+0x2bfc>
8001b554:	00000000 	nop
8001b558:	0c100b9d 	jal	80402e74 <end+0x2e74>
8001b55c:	00000000 	nop
8001b560:	1040fffb 	beqz	v0,8001b550 <binary_user_check_icode_start+0x45a0>
8001b564:	00408021 	move	s0,v0
8001b568:	2402000d 	li	v0,13
8001b56c:	12020009 	beq	s0,v0,8001b594 <binary_user_check_icode_start+0x45e4>
8001b570:	3c040041 	lui	a0,0x41
8001b574:	3c040041 	lui	a0,0x41
8001b578:	24849a68 	addiu	a0,a0,-26008
8001b57c:	0c10047a 	jal	804011e8 <end+0x11e8>
8001b580:	02002821 	move	a1,s0
8001b584:	06010007 	bgez	s0,8001b5a4 <binary_user_check_icode_start+0x45f4>
8001b588:	02001021 	move	v0,s0
8001b58c:	1000000d 	b	8001b5c4 <binary_user_check_icode_start+0x4614>
8001b590:	00000000 	nop
8001b594:	0c10047a 	jal	804011e8 <end+0x11e8>
8001b598:	24849994 	addiu	a0,a0,-26220
8001b59c:	10000005 	b	8001b5b4 <binary_user_check_icode_start+0x4604>
8001b5a0:	a2300000 	sb	s0,0(s1)
8001b5a4:	24020004 	li	v0,4
8001b5a8:	12020004 	beq	s0,v0,8001b5bc <binary_user_check_icode_start+0x460c>
8001b5ac:	00000000 	nop
8001b5b0:	a2300000 	sb	s0,0(s1)
8001b5b4:	10000002 	b	8001b5c0 <binary_user_check_icode_start+0x4610>
8001b5b8:	24100001 	li	s0,1
8001b5bc:	00008021 	move	s0,zero
8001b5c0:	02001021 	move	v0,s0
8001b5c4:	8fbf0018 	lw	ra,24(sp)
8001b5c8:	8fb10014 	lw	s1,20(sp)
8001b5cc:	8fb00010 	lw	s0,16(sp)
8001b5d0:	03e00008 	jr	ra
8001b5d4:	27bd0020 	addiu	sp,sp,32
8001b5d8:	27bdff50 	addiu	sp,sp,-176
8001b5dc:	afbf00a8 	sw	ra,168(sp)
8001b5e0:	afb500a4 	sw	s5,164(sp)
8001b5e4:	afb400a0 	sw	s4,160(sp)
8001b5e8:	afb3009c 	sw	s3,156(sp)
8001b5ec:	afb20098 	sw	s2,152(sp)
8001b5f0:	afb10094 	sw	s1,148(sp)
8001b5f4:	afb00090 	sw	s0,144(sp)
8001b5f8:	00a0a821 	move	s5,a1
8001b5fc:	14c00003 	bnez	a2,8001b60c <binary_user_check_icode_start+0x465c>
8001b600:	00c08821 	move	s1,a2
8001b604:	10000016 	b	8001b660 <binary_user_check_icode_start+0x46b0>
8001b608:	00009021 	move	s2,zero
8001b60c:	00001821 	move	v1,zero
8001b610:	00009021 	move	s2,zero
8001b614:	27b30010 	addiu	s3,sp,16
8001b618:	3c140041 	lui	s4,0x41
8001b61c:	02238023 	subu	s0,s1,v1
8001b620:	2e020080 	sltiu	v0,s0,128
8001b624:	14400002 	bnez	v0,8001b630 <binary_user_check_icode_start+0x4680>
8001b628:	02a32021 	addu	a0,s5,v1
8001b62c:	2410007f 	li	s0,127
8001b630:	27a50010 	addiu	a1,sp,16
8001b634:	0c10099c 	jal	80402670 <end+0x2670>
8001b638:	02003021 	move	a2,s0
8001b63c:	02701021 	addu	v0,s3,s0
8001b640:	a0400000 	sb	zero,0(v0)
8001b644:	26849a6c 	addiu	a0,s4,-26004
8001b648:	0c10047a 	jal	804011e8 <end+0x11e8>
8001b64c:	02602821 	move	a1,s3
8001b650:	02509021 	addu	s2,s2,s0
8001b654:	0251102b 	sltu	v0,s2,s1
8001b658:	1440fff0 	bnez	v0,8001b61c <binary_user_check_icode_start+0x466c>
8001b65c:	02401821 	move	v1,s2
8001b660:	02401021 	move	v0,s2
8001b664:	8fbf00a8 	lw	ra,168(sp)
8001b668:	8fb500a4 	lw	s5,164(sp)
8001b66c:	8fb400a0 	lw	s4,160(sp)
8001b670:	8fb3009c 	lw	s3,156(sp)
8001b674:	8fb20098 	lw	s2,152(sp)
8001b678:	8fb10094 	lw	s1,148(sp)
8001b67c:	8fb00090 	lw	s0,144(sp)
8001b680:	03e00008 	jr	ra
8001b684:	27bd00b0 	addiu	sp,sp,176
8001b688:	03e00008 	jr	ra
8001b68c:	00001021 	move	v0,zero
8001b690:	27bdffe8 	addiu	sp,sp,-24
8001b694:	afbf0010 	sw	ra,16(sp)
8001b698:	00a02021 	move	a0,a1
8001b69c:	3c050041 	lui	a1,0x41
8001b6a0:	0c100bff 	jal	80402ffc <end+0x2ffc>
8001b6a4:	24a59a70 	addiu	a1,a1,-26000
8001b6a8:	00001021 	move	v0,zero
8001b6ac:	8fbf0010 	lw	ra,16(sp)
8001b6b0:	00000000 	nop
8001b6b4:	03e00008 	jr	ra
8001b6b8:	27bd0018 	addiu	sp,sp,24
8001b6bc:	00000000 	nop
8001b6c0:	24020001 	li	v0,1
8001b6c4:	14c2000d 	bne	a2,v0,8001b6fc <binary_user_check_icode_start+0x474c>
8001b6c8:	00000000 	nop
8001b6cc:	80a20000 	lb	v0,0(a1)
8001b6d0:	00000000 	nop
8001b6d4:	1040000b 	beqz	v0,8001b704 <binary_user_check_icode_start+0x4754>
8001b6d8:	00003821 	move	a3,zero
8001b6dc:	00871021 	addu	v0,a0,a3
8001b6e0:	00a71821 	addu	v1,a1,a3
8001b6e4:	90630000 	lbu	v1,0(v1)
8001b6e8:	24e70001 	addiu	a3,a3,1
8001b6ec:	10c70005 	beq	a2,a3,8001b704 <binary_user_check_icode_start+0x4754>
8001b6f0:	a0430000 	sb	v1,0(v0)
8001b6f4:	1000fffa 	b	8001b6e0 <binary_user_check_icode_start+0x4730>
8001b6f8:	00871021 	addu	v0,a0,a3
8001b6fc:	1cc0fff7 	bgtz	a2,8001b6dc <binary_user_check_icode_start+0x472c>
8001b700:	00003821 	move	a3,zero
8001b704:	03e00008 	jr	ra
8001b708:	00000000 	nop
8001b70c:	27bdfdd8 	addiu	sp,sp,-552
8001b710:	afbf0220 	sw	ra,544(sp)
8001b714:	afb1021c 	sw	s1,540(sp)
8001b718:	afb00218 	sw	s0,536(sp)
8001b71c:	00808821 	move	s1,a0
8001b720:	afa60230 	sw	a2,560(sp)
8001b724:	afa70234 	sw	a3,564(sp)
8001b728:	00a08021 	move	s0,a1
8001b72c:	27a20230 	addiu	v0,sp,560
8001b730:	afa20210 	sw	v0,528(sp)
8001b734:	27a40010 	addiu	a0,sp,16
8001b738:	0c1009be 	jal	804026f8 <end+0x26f8>
8001b73c:	24050200 	li	a1,512
8001b740:	3c040040 	lui	a0,0x40
8001b744:	24844710 	addiu	a0,a0,18192
8001b748:	27a50010 	addiu	a1,sp,16
8001b74c:	8fa70210 	lw	a3,528(sp)
8001b750:	0c100510 	jal	80401440 <end+0x1440>
8001b754:	02003021 	move	a2,s0
8001b758:	0c100bf4 	jal	80402fd0 <end+0x2fd0>
8001b75c:	27a40010 	addiu	a0,sp,16
8001b760:	02202021 	move	a0,s1
8001b764:	27a50010 	addiu	a1,sp,16
8001b768:	0c100db6 	jal	804036d8 <end+0x36d8>
8001b76c:	00403021 	move	a2,v0
8001b770:	8fbf0220 	lw	ra,544(sp)
8001b774:	8fb1021c 	lw	s1,540(sp)
8001b778:	8fb00218 	lw	s0,536(sp)
8001b77c:	03e00008 	jr	ra
8001b780:	27bd0228 	addiu	sp,sp,552
	...
8001b790:	f7fffffe 	0xf7fffffe
	...
8001dfb0:	7f400000 	0x7f400000
8001dfb4:	7f800000 	0x7f800000
8001dfb8:	7fc00000 	0x7fc00000
8001dfbc:	7fdff000 	0x7fdff000
	...
8001efb0:	0000fffe 	0xfffe
8001efb4:	00003ba5 	0x3ba5
8001efb8:	41000000 	bc0f	8001efbc <binary_user_check_icode_start+0x800c>
8001efbc:	00000000 	nop
	...
8001f3a0:	02000000 	0x2000000
	...
8001f3c0:	00000001 	0x1
	...
80020360:	66617461 	0x66617461
80020364:	6c206572 	0x6c206572
80020368:	726f7220 	0x726f7220
8002036c:	696e2075 	0x696e2075
80020370:	7365725f 	0x7365725f
80020374:	6c705f50 	0x6c705f50
80020378:	72696e74 	0x72696e74
8002037c:	21000000 	addi	zero,t0,0
80020380:	00000000 	nop
80020384:	004019a0 	0x4019a0
80020388:	004019a8 	0x4019a8
8002038c:	004019a8 	0x4019a8
80020390:	004019a8 	0x4019a8
80020394:	004019a8 	0x4019a8
80020398:	004019a8 	0x4019a8
8002039c:	004019a8 	0x4019a8
800203a0:	004019a8 	0x4019a8
800203a4:	004019a8 	0x4019a8
800203a8:	004019a8 	0x4019a8
800203ac:	004019a8 	0x4019a8
800203b0:	004019a8 	0x4019a8
800203b4:	004019a8 	0x4019a8
800203b8:	004019a8 	0x4019a8
800203bc:	004019a8 	0x4019a8
800203c0:	004019a8 	0x4019a8
800203c4:	004019a8 	0x4019a8
800203c8:	004019a8 	0x4019a8
800203cc:	004019a8 	0x4019a8
800203d0:	004019a8 	0x4019a8
800203d4:	004019a8 	0x4019a8
800203d8:	004019a8 	0x4019a8
800203dc:	004019a8 	0x4019a8
800203e0:	004019a8 	0x4019a8
800203e4:	004019a8 	0x4019a8
800203e8:	004019a8 	0x4019a8
800203ec:	004019a8 	0x4019a8
800203f0:	004019a8 	0x4019a8
800203f4:	004019a8 	0x4019a8
800203f8:	004019a8 	0x4019a8
800203fc:	004019a8 	0x4019a8
80020400:	004019a8 	0x4019a8
80020404:	004019a8 	0x4019a8
80020408:	004019a8 	0x4019a8
8002040c:	004019a8 	0x4019a8
80020410:	004019a8 	0x4019a8
80020414:	004019a8 	0x4019a8
80020418:	004019a8 	0x4019a8
8002041c:	004019a8 	0x4019a8
80020420:	004019a8 	0x4019a8
80020424:	004019a8 	0x4019a8
80020428:	004019a8 	0x4019a8
8002042c:	004019a8 	0x4019a8
80020430:	004019a8 	0x4019a8
80020434:	004019a8 	0x4019a8
80020438:	004019a8 	0x4019a8
8002043c:	004019a8 	0x4019a8
80020440:	004019a8 	0x4019a8
80020444:	004019a8 	0x4019a8
80020448:	004019a8 	0x4019a8
8002044c:	004019a8 	0x4019a8
80020450:	004019a8 	0x4019a8
80020454:	004019a8 	0x4019a8
80020458:	004019a8 	0x4019a8
8002045c:	004019a8 	0x4019a8
80020460:	004019a8 	0x4019a8
80020464:	004019a8 	0x4019a8
80020468:	004019a8 	0x4019a8
8002046c:	004019a8 	0x4019a8
80020470:	004019a8 	0x4019a8
80020474:	004019a8 	0x4019a8
80020478:	004019a8 	0x4019a8
8002047c:	004019a8 	0x4019a8
80020480:	004019a8 	0x4019a8
80020484:	004019a8 	0x4019a8
80020488:	004019a8 	0x4019a8
8002048c:	004019a8 	0x4019a8
80020490:	004019a8 	0x4019a8
80020494:	0040168c 	syscall	0x1005a
80020498:	004019a8 	0x4019a8
8002049c:	004019a8 	0x4019a8
800204a0:	004019a8 	0x4019a8
800204a4:	004019a8 	0x4019a8
800204a8:	004019a8 	0x4019a8
800204ac:	004019a8 	0x4019a8
800204b0:	004019a8 	0x4019a8
800204b4:	004019a8 	0x4019a8
800204b8:	004019a8 	0x4019a8
800204bc:	004019a8 	0x4019a8
800204c0:	00401714 	0x401714
800204c4:	004019a8 	0x4019a8
800204c8:	004019a8 	0x4019a8
800204cc:	004019a8 	0x4019a8
800204d0:	004019a8 	0x4019a8
800204d4:	004019a8 	0x4019a8
800204d8:	0040178c 	syscall	0x1005e
800204dc:	004019a8 	0x4019a8
800204e0:	004019a8 	0x4019a8
800204e4:	0040187c 	0x40187c
800204e8:	004019a8 	0x4019a8
800204ec:	004019a8 	0x4019a8
800204f0:	004019a8 	0x4019a8
800204f4:	004019a8 	0x4019a8
800204f8:	004019a8 	0x4019a8
800204fc:	004019a8 	0x4019a8
80020500:	004019a8 	0x4019a8
80020504:	004019a8 	0x4019a8
80020508:	004019a8 	0x4019a8
8002050c:	00401614 	0x401614
80020510:	004018f8 	0x4018f8
80020514:	0040168c 	syscall	0x1005a
80020518:	004019a8 	0x4019a8
8002051c:	004019a8 	0x4019a8
80020520:	004019a8 	0x4019a8
80020524:	004019a8 	0x4019a8
80020528:	004019a8 	0x4019a8
8002052c:	004019a8 	0x4019a8
80020530:	004019a8 	0x4019a8
80020534:	004019a8 	0x4019a8
80020538:	004019a8 	0x4019a8
8002053c:	004019a8 	0x4019a8
80020540:	00401714 	0x401714
80020544:	004019a8 	0x4019a8
80020548:	004019a8 	0x4019a8
8002054c:	004019a8 	0x4019a8
80020550:	0040194c 	syscall	0x10065
80020554:	004019a8 	0x4019a8
80020558:	0040178c 	syscall	0x1005e
8002055c:	004019a8 	0x4019a8
80020560:	004019a8 	0x4019a8
80020564:	00401804 	sllv	v1,zero,v0
80020568:	66617461 	0x66617461
8002056c:	6c206572 	0x6c206572
80020570:	726f7220 	0x726f7220
80020574:	696e206c 	0x696e206c
80020578:	705f5072 	0x705f5072
8002057c:	696e7421 	0x696e7421
80020580:	00000000 	nop
80020584:	0040226c 	0x40226c
80020588:	00402274 	0x402274
8002058c:	00402274 	0x402274
80020590:	00402274 	0x402274
80020594:	00402274 	0x402274
80020598:	00402274 	0x402274
8002059c:	00402274 	0x402274
800205a0:	00402274 	0x402274
800205a4:	00402274 	0x402274
800205a8:	00402274 	0x402274
800205ac:	00402274 	0x402274
800205b0:	00402274 	0x402274
800205b4:	00402274 	0x402274
800205b8:	00402274 	0x402274
800205bc:	00402274 	0x402274
800205c0:	00402274 	0x402274
800205c4:	00402274 	0x402274
800205c8:	00402274 	0x402274
800205cc:	00402274 	0x402274
800205d0:	00402274 	0x402274
800205d4:	00402274 	0x402274
800205d8:	00402274 	0x402274
800205dc:	00402274 	0x402274
800205e0:	00402274 	0x402274
800205e4:	00402274 	0x402274
800205e8:	00402274 	0x402274
800205ec:	00402274 	0x402274
800205f0:	00402274 	0x402274
800205f4:	00402274 	0x402274
800205f8:	00402274 	0x402274
800205fc:	00402274 	0x402274
80020600:	00402274 	0x402274
80020604:	00402274 	0x402274
80020608:	00402274 	0x402274
8002060c:	00402274 	0x402274
80020610:	00402274 	0x402274
80020614:	00402274 	0x402274
80020618:	00402274 	0x402274
8002061c:	00402274 	0x402274
80020620:	00402274 	0x402274
80020624:	00402274 	0x402274
80020628:	00402274 	0x402274
8002062c:	00402274 	0x402274
80020630:	00402274 	0x402274
80020634:	00402274 	0x402274
80020638:	00402274 	0x402274
8002063c:	00402274 	0x402274
80020640:	00402274 	0x402274
80020644:	00402274 	0x402274
80020648:	00402274 	0x402274
8002064c:	00402274 	0x402274
80020650:	00402274 	0x402274
80020654:	00402274 	0x402274
80020658:	00402274 	0x402274
8002065c:	00402274 	0x402274
80020660:	00402274 	0x402274
80020664:	00402274 	0x402274
80020668:	00402274 	0x402274
8002066c:	00402274 	0x402274
80020670:	00402274 	0x402274
80020674:	00402274 	0x402274
80020678:	00402274 	0x402274
8002067c:	00402274 	0x402274
80020680:	00402274 	0x402274
80020684:	00402274 	0x402274
80020688:	00402274 	0x402274
8002068c:	00402274 	0x402274
80020690:	00402274 	0x402274
80020694:	00401f7c 	0x401f7c
80020698:	00402274 	0x402274
8002069c:	00402274 	0x402274
800206a0:	00402274 	0x402274
800206a4:	00402274 	0x402274
800206a8:	00402274 	0x402274
800206ac:	00402274 	0x402274
800206b0:	00402274 	0x402274
800206b4:	00402274 	0x402274
800206b8:	00402274 	0x402274
800206bc:	00402274 	0x402274
800206c0:	00402000 	0x402000
800206c4:	00402274 	0x402274
800206c8:	00402274 	0x402274
800206cc:	00402274 	0x402274
800206d0:	00402274 	0x402274
800206d4:	00402274 	0x402274
800206d8:	00402074 	0x402074
800206dc:	00402274 	0x402274
800206e0:	00402274 	0x402274
800206e4:	0040215c 	0x40215c
800206e8:	00402274 	0x402274
800206ec:	00402274 	0x402274
800206f0:	00402274 	0x402274
800206f4:	00402274 	0x402274
800206f8:	00402274 	0x402274
800206fc:	00402274 	0x402274
80020700:	00402274 	0x402274
80020704:	00402274 	0x402274
80020708:	00402274 	0x402274
8002070c:	00401f08 	0x401f08
80020710:	004021d4 	0x4021d4
80020714:	00401f7c 	0x401f7c
80020718:	00402274 	0x402274
8002071c:	00402274 	0x402274
80020720:	00402274 	0x402274
80020724:	00402274 	0x402274
80020728:	00402274 	0x402274
8002072c:	00402274 	0x402274
80020730:	00402274 	0x402274
80020734:	00402274 	0x402274
80020738:	00402274 	0x402274
8002073c:	00402274 	0x402274
80020740:	00402000 	0x402000
80020744:	00402274 	0x402274
80020748:	00402274 	0x402274
8002074c:	00402274 	0x402274
80020750:	00402220 	0x402220
80020754:	00402274 	0x402274
80020758:	00402074 	0x402074
8002075c:	00402274 	0x402274
80020760:	00402274 	0x402274
80020764:	004020e8 	0x4020e8
	...
80020770:	33200000 	andi	zero,t9,0x0
80020774:	70616e69 	0x70616e69
80020778:	63206174 	0x63206174
8002077c:	2025733a 	addi	a1,at,29498
80020780:	25643a20 	addiu	a0,t3,14880
80020784:	00000000 	nop
80020788:	666f726b 	0x666f726b
8002078c:	2e630000 	sltiu	v1,s3,0
80020790:	5e5e5e5e 	0x5e5e5e5e
80020794:	70616e69 	0x70616e69
80020798:	63206174 	0x63206174
8002079c:	20706766 	addi	s0,v1,26470
800207a0:	61756c74 	0x61756c74
800207a4:	5e5e5e5e 	0x5e5e5e5e
800207a8:	7065726d 	0x7065726d
800207ac:	20646f65 	addi	a0,v1,28517
800207b0:	736e2774 	0x736e2774
800207b4:	20686176 	addi	t0,v1,24950
800207b8:	65205054 	0x65205054
800207bc:	455f434f 	0x455f434f
800207c0:	5721215e 	0x5721215e
800207c4:	5e5e5e00 	0x5e5e5e00
800207c8:	5e5e7061 	0x5e5e7061
800207cc:	6e696320 	0x6e696320
800207d0:	61742070 	0x61742070
800207d4:	67666175 	0x67666175
800207d8:	6c745e5e 	0x6c745e5e
800207dc:	6d656d20 	0x6d656d20
800207e0:	616c6c6f 	0x616c6c6f
800207e4:	63206572 	0x63206572
800207e8:	726f725e 	0x726f725e
800207ec:	5e000000 	0x5e000000
800207f0:	5e5e7061 	0x5e5e7061
800207f4:	6e696320 	0x6e696320
800207f8:	61742070 	0x61742070
800207fc:	67666175 	0x67666175
80020800:	6c745e5e 	0x6c745e5e
80020804:	6d656d20 	0x6d656d20
80020808:	6d617020 	0x6d617020
8002080c:	6572726f 	0x6572726f
80020810:	725e5e00 	0x725e5e00
80020814:	5e5e7061 	0x5e5e7061
80020818:	6e696320 	0x6e696320
8002081c:	61742070 	0x61742070
80020820:	67666175 	0x67666175
80020824:	6c745e5e 	0x6c745e5e
80020828:	6d656d20 	0x6d656d20
8002082c:	756e6d61 	jalx	85b9b584 <end+0x579b584>
80020830:	7020666f 	0x7020666f
80020834:	7220746d 	0x7220746d
80020838:	70206572 	0x70206572
8002083c:	726f725e 	0x726f725e
80020840:	5e000000 	0x5e000000
80020844:	73666f72 	0x73666f72
80020848:	6b206e6f 	0x6b206e6f
8002084c:	7420696d 	jalx	8081a5b4 <end+0x41a5b4>
80020850:	706c656d 	0x706c656d
80020854:	656e7465 	0x656e7465
80020858:	64000000 	0x64000000
8002085c:	7f3fdfff 	0x7f3fdfff
80020860:	63616e6e 	0x63616e6e
80020864:	6f742073 	0x6f742073
80020868:	65742070 	0x65742070
8002086c:	67666175 	0x67666175
80020870:	6c742068 	0x6c742068
80020874:	616e646c 	0x616e646c
80020878:	65720a00 	0x65720a00
8002087c:	6970632e 	0x6970632e
80020880:	63000000 	0x63000000
80020884:	6572726f 	0x6572726f
80020888:	7220696e 	0x7220696e
8002088c:	20697063 	addi	t1,v1,28771
80020890:	5f73656e 	0x5f73656e
80020894:	643a2025 	0x643a2025
80020898:	64000000 	0x64000000
8002089c:	5b253038 	0x5b253038
800208a0:	785d2075 	0x785d2075
800208a4:	6e6b6e6f 	0x6e6b6e6f
800208a8:	776e2064 	jalx	8db88190 <end+0xd788190>
800208ac:	65766963 	0x65766963
800208b0:	65207479 	0x65207479
800208b4:	70652025 	0x70652025
800208b8:	640a0000 	0x640a0000
800208bc:	5b253038 	0x5b253038
800208c0:	785d2072 	0x785d2072
800208c4:	65616420 	0x65616420
800208c8:	2564202d 	addiu	a0,t3,8237
800208cc:	2d206261 	sltiu	zero,t1,25185
800208d0:	64206d6f 	0x64206d6f
800208d4:	64650a00 	0x64650a00
800208d8:	5b253038 	0x5b253038
800208dc:	785d2077 	0x785d2077
800208e0:	72697465 	0x72697465
800208e4:	20256420 	addi	a1,at,25632
800208e8:	2d2d2062 	sltiu	t5,t1,8290
800208ec:	6164206d 	0x6164206d
800208f0:	6f64650a 	0x6f64650a
800208f4:	00000000 	nop
800208f8:	66696c65 	0x66696c65
800208fc:	00000000 	nop
80020900:	57697468 	0x57697468
80020904:	6f757420 	0x6f757420
80020908:	66726565 	0x66726565
8002090c:	20666420 	addi	a2,v1,25632
80020910:	6c656674 	0x6c656674
80020914:	0a000000 	j	88000000 <end+0x7c00000>
80020918:	63616e6e 	0x63616e6e
8002091c:	6f6e7420 	0x6f6e7420
80020920:	6f70656e 	0x6f70656e
80020924:	2066696c 	addi	a2,v1,26988
80020928:	65202573 	0x65202573
8002092c:	0a000000 	j	88000000 <end+0x7c00000>
80020930:	63616e6e 	0x63616e6e
80020934:	6f74206d 	0x6f74206d
80020938:	61702074 	0x61702074
8002093c:	68652066 	0x68652066
80020940:	696c652e 	0x696c652e
80020944:	0a000000 	j	88000000 <end+0x7c00000>
80020948:	63616e6e 	0x63616e6e
8002094c:	6f742063 	0x6f742063
80020950:	6c6f7365 	0x6c6f7365
80020954:	20746865 	addi	s4,v1,26725
80020958:	2066696c 	addi	a2,v1,26988
8002095c:	650a0000 	0x650a0000
80020960:	63616e6e 	0x63616e6e
80020964:	6f6e7420 	0x6f6e7420
80020968:	756e6d61 	jalx	85b9b584 <end+0x579b584>
8002096c:	70207468 	0x70207468
80020970:	65206669 	0x65206669
80020974:	6c652e0a 	0x6c652e0a
80020978:	00000000 	nop
8002097c:	66696c65 	0x66696c65
80020980:	2e630000 	sltiu	v1,s3,0
80020984:	66747275 	0x66747275
80020988:	6e636174 	0x6e636174
8002098c:	653a2073 	0x653a2073
80020990:	79736361 	0x79736361
80020994:	6c6c5f6d 	0x6c6c5f6d
80020998:	656d5f75 	0x656d5f75
8002099c:	6e6d6170 	0x6e6d6170
800209a0:	20253038 	addi	a1,at,12344
800209a4:	783a2025 	0x783a2025
800209a8:	65000000 	0x65000000
800209ac:	70697065 	0x70697065
800209b0:	00000000 	nop
800209b4:	5b253038 	0x5b253038
800209b8:	785d2070 	0x785d2070
800209bc:	69706563 	0x69706563
800209c0:	72656174 	0x72656174
800209c4:	65200a00 	0x65200a00
800209c8:	3c706970 	0x3c706970
800209cc:	653e0000 	0x653e0000
800209d0:	66736970 	0x66736970
800209d4:	632e6300 	0x632e6300
800209d8:	66736970 	0x66736970
800209dc:	635f6d61 	0x635f6d61
800209e0:	703a2075 	0x703a2075
800209e4:	6e657870 	0x6e657870
800209e8:	65637465 	0x65637465
800209ec:	64207065 	0x64207065
800209f0:	726d6973 	0x726d6973
800209f4:	73696f6e 	0x73696f6e
800209f8:	73202530 	0x73202530
800209fc:	38782066 	xori	t8,v1,0x2066
80020a00:	6f722064 	0x6f722064
80020a04:	73747661 	0x73747661
80020a08:	20253038 	addi	a1,at,12344
80020a0c:	78000000 	0x78000000
80020a10:	636f6e73 	0x636f6e73
80020a14:	00000000 	nop
80020a18:	25630000 	addiu	v1,t3,0
80020a1c:	25730000 	addiu	s3,t3,0
80020a20:	3c636f6e 	0x3c636f6e
80020a24:	733e0000 	0x733e0000
80020a28:	00409a88 	0x409a88
80020a2c:	00409ac0 	0x409ac0
80020a30:	00409aa4 	0x409aa4
80020a34:	00000000 	nop
80020a38:	00000066 	0x66
80020a3c:	00409948 	0x409948
80020a40:	00403b58 	0x403b58
80020a44:	00403cb4 	0x403cb4
80020a48:	00403a80 	0x403a80
80020a4c:	00403d64 	0x403d64
80020a50:	00000000 	nop
80020a54:	00000070 	0x70
80020a58:	004099fc 	0x4099fc
80020a5c:	00404180 	0x404180
80020a60:	00404188 	0x404188
80020a64:	004041f8 	0x4041f8
80020a68:	00404190 	0x404190
80020a6c:	00000000 	nop
80020a70:	00000063 	0x63
80020a74:	00409a60 	0x409a60
80020a78:	00404580 	0x404580
80020a7c:	00404628 	0x404628
80020a80:	004046d8 	0x4046d8
80020a84:	004046e0 	0x4046e0
80020a88:	00000000 	nop
80020a8c:	004010f0 	0x4010f0
	...
80020aa4:	0000001d 	0x1d
80020aa8:	0000001f 	0x1f
80020aac:	00401100 	0x401100
	...
80020ac4:	0000001d 	0x1d
80020ac8:	0000001f 	0x1f
80020acc:	00401108 	0x401108
	...
80020ae4:	0000001d 	0x1d
80020ae8:	0000001f 	0x1f
80020aec:	00401118 	0x401118
80020af0:	80010000 	lb	at,0(zero)
80020af4:	fffffffc 	0xfffffffc
	...
80020b00:	00000018 	mult	zero,zero
80020b04:	0000001d 	0x1d
80020b08:	0000001f 	0x1f
80020b0c:	00401150 	0x401150
80020b10:	80070000 	lb	a3,0(zero)
80020b14:	fffffffc 	0xfffffffc
	...
80020b20:	00000020 	add	zero,zero,zero
80020b24:	0000001d 	0x1d
80020b28:	0000001f 	0x1f
80020b2c:	004011e8 	0x4011e8
80020b30:	80000000 	lb	zero,0(zero)
80020b34:	fffffff8 	0xfffffff8
	...
80020b40:	00000020 	add	zero,zero,zero
80020b44:	0000001d 	0x1d
80020b48:	0000001f 	0x1f
80020b4c:	00401228 	0x401228
80020b50:	80010000 	lb	at,0(zero)
80020b54:	fffffffc 	0xfffffffc
	...
80020b60:	00000020 	add	zero,zero,zero
80020b64:	0000001d 	0x1d
80020b68:	0000001f 	0x1f
80020b6c:	0040128c 	syscall	0x1004a
	...
80020b84:	0000001d 	0x1d
80020b88:	0000001f 	0x1f
80020b8c:	004012a0 	0x4012a0
	...
80020ba4:	0000001d 	0x1d
80020ba8:	0000001f 	0x1f
80020bac:	004012b4 	0x4012b4
80020bb0:	80010000 	lb	at,0(zero)
80020bb4:	fffffffc 	0xfffffffc
	...
80020bc0:	00000018 	mult	zero,zero
80020bc4:	0000001d 	0x1d
80020bc8:	0000001f 	0x1f
80020bcc:	004012fc 	0x4012fc
80020bd0:	80070000 	lb	a3,0(zero)
80020bd4:	fffffffc 	0xfffffffc
	...
80020be0:	00000020 	add	zero,zero,zero
80020be4:	0000001d 	0x1d
80020be8:	0000001f 	0x1f
80020bec:	00401394 	0x401394
80020bf0:	80000000 	lb	zero,0(zero)
80020bf4:	fffffff8 	0xfffffff8
	...
80020c00:	00000020 	add	zero,zero,zero
80020c04:	0000001d 	0x1d
80020c08:	0000001f 	0x1f
80020c0c:	004013d4 	0x4013d4
80020c10:	80010000 	lb	at,0(zero)
80020c14:	fffffffc 	0xfffffffc
	...
80020c20:	00000020 	add	zero,zero,zero
80020c24:	0000001d 	0x1d
80020c28:	0000001f 	0x1f
80020c2c:	00401440 	0x401440
80020c30:	803f0000 	lb	ra,0(at)
80020c34:	fffffff8 	0xfffffff8
	...
80020c40:	00000428 	0x428
80020c44:	0000001d 	0x1d
80020c48:	0000001f 	0x1f
80020c4c:	00401a0c 	syscall	0x10068
	...
80020c64:	0000001d 	0x1d
80020c68:	0000001f 	0x1f
80020c6c:	00401a88 	0x401a88
	...
80020c84:	0000001d 	0x1d
80020c88:	0000001f 	0x1f
80020c8c:	00401ba8 	0x401ba8
	...
80020ca4:	0000001d 	0x1d
80020ca8:	0000001f 	0x1f
80020cac:	00401d40 	0x401d40
80020cb0:	801f0000 	lb	ra,0(zero)
80020cb4:	fffffffc 	0xfffffffc
	...
80020cc0:	00000420 	0x420
80020cc4:	0000001d 	0x1d
80020cc8:	0000001f 	0x1f
80020ccc:	004022d0 	0x4022d0
	...
80020ce4:	0000001d 	0x1d
80020ce8:	0000001f 	0x1f
80020cec:	0040234c 	syscall	0x1008d
	...
80020d04:	0000001d 	0x1d
80020d08:	0000001f 	0x1f
80020d0c:	0040246c 	0x40246c
	...
80020d24:	0000001d 	0x1d
80020d28:	0000001f 	0x1f
80020d2c:	00402610 	0x402610
80020d30:	80000000 	lb	zero,0(zero)
80020d34:	fffffff8 	0xfffffff8
	...
80020d40:	00000018 	mult	zero,zero
80020d44:	0000001d 	0x1d
80020d48:	0000001f 	0x1f
80020d4c:	00402630 	0x402630
80020d50:	80000000 	lb	zero,0(zero)
80020d54:	fffffff8 	0xfffffff8
	...
80020d60:	00000018 	mult	zero,zero
80020d64:	0000001d 	0x1d
80020d68:	0000001f 	0x1f
80020d6c:	00402670 	0x402670
	...
80020d84:	0000001d 	0x1d
80020d88:	0000001f 	0x1f
80020d8c:	004026f8 	0x4026f8
	...
80020da4:	0000001d 	0x1d
80020da8:	0000001f 	0x1f
80020dac:	00402724 	0x402724
80020db0:	80070000 	lb	a3,0(zero)
80020db4:	fffffffc 	0xfffffffc
	...
80020dc0:	00000028 	0x28
80020dc4:	0000001d 	0x1d
80020dc8:	0000001f 	0x1f
80020dcc:	00402848 	0x402848
80020dd0:	80030000 	lb	v1,0(zero)
80020dd4:	fffffff8 	0xfffffff8
	...
80020de0:	00000028 	0x28
80020de4:	0000001d 	0x1d
80020de8:	0000001f 	0x1f
80020dec:	00402944 	0x402944
80020df0:	c0ff0000 	lwc0	$31,0(a3)
80020df4:	fffffffc 	0xfffffffc
	...
80020e00:	00000040 	sll	zero,zero,0x1
80020e04:	0000001d 	0x1d
80020e08:	0000001f 	0x1f
80020e0c:	00402ae4 	0x402ae4
80020e10:	80000000 	lb	zero,0(zero)
80020e14:	fffffff8 	0xfffffff8
	...
80020e20:	00000018 	mult	zero,zero
80020e24:	0000001d 	0x1d
80020e28:	0000001f 	0x1f
80020e2c:	00402b10 	0x402b10
80020e30:	80010000 	lb	at,0(zero)
80020e34:	fffffffc 	0xfffffffc
	...
80020e40:	00000018 	mult	zero,zero
80020e44:	0000001d 	0x1d
80020e48:	0000001f 	0x1f
80020e4c:	00402b90 	0x402b90
80020e50:	80000000 	lb	zero,0(zero)
80020e54:	fffffff8 	0xfffffff8
	...
80020e60:	00000020 	add	zero,zero,zero
80020e64:	0000001d 	0x1d
80020e68:	0000001f 	0x1f
80020e6c:	00402bc8 	0x402bc8
80020e70:	80000000 	lb	zero,0(zero)
80020e74:	fffffff8 	0xfffffff8
	...
80020e80:	00000020 	add	zero,zero,zero
80020e84:	0000001d 	0x1d
80020e88:	0000001f 	0x1f
80020e8c:	00402bfc 	0x402bfc
80020e90:	80000000 	lb	zero,0(zero)
80020e94:	fffffff8 	0xfffffff8
	...
80020ea0:	00000020 	add	zero,zero,zero
80020ea4:	0000001d 	0x1d
80020ea8:	0000001f 	0x1f
80020eac:	00402c30 	0x402c30
80020eb0:	80000000 	lb	zero,0(zero)
80020eb4:	fffffff8 	0xfffffff8
	...
80020ec0:	00000020 	add	zero,zero,zero
80020ec4:	0000001d 	0x1d
80020ec8:	0000001f 	0x1f
80020ecc:	00402c64 	0x402c64
80020ed0:	80000000 	lb	zero,0(zero)
80020ed4:	fffffff8 	0xfffffff8
	...
80020ee0:	00000020 	add	zero,zero,zero
80020ee4:	0000001d 	0x1d
80020ee8:	0000001f 	0x1f
80020eec:	00402ca0 	0x402ca0
80020ef0:	80000000 	lb	zero,0(zero)
80020ef4:	fffffff8 	0xfffffff8
	...
80020f00:	00000020 	add	zero,zero,zero
80020f04:	0000001d 	0x1d
80020f08:	0000001f 	0x1f
80020f0c:	00402cdc 	0x402cdc
80020f10:	80000000 	lb	zero,0(zero)
80020f14:	fffffff8 	0xfffffff8
	...
80020f20:	00000020 	add	zero,zero,zero
80020f24:	0000001d 	0x1d
80020f28:	0000001f 	0x1f
80020f2c:	00402d24 	0x402d24
80020f30:	80000000 	lb	zero,0(zero)
80020f34:	fffffff8 	0xfffffff8
	...
80020f40:	00000020 	add	zero,zero,zero
80020f44:	0000001d 	0x1d
80020f48:	0000001f 	0x1f
80020f4c:	00402d5c 	0x402d5c
80020f50:	80000000 	lb	zero,0(zero)
80020f54:	fffffff8 	0xfffffff8
	...
80020f60:	00000020 	add	zero,zero,zero
80020f64:	0000001d 	0x1d
80020f68:	0000001f 	0x1f
80020f6c:	00402d94 	0x402d94
80020f70:	80000000 	lb	zero,0(zero)
80020f74:	fffffff8 	0xfffffff8
	...
80020f80:	00000020 	add	zero,zero,zero
80020f84:	0000001d 	0x1d
80020f88:	0000001f 	0x1f
80020f8c:	00402dcc 	syscall	0x100b7
80020f90:	80000000 	lb	zero,0(zero)
80020f94:	fffffff8 	0xfffffff8
	...
80020fa0:	00000020 	add	zero,zero,zero
80020fa4:	0000001d 	0x1d
80020fa8:	0000001f 	0x1f
80020fac:	00402e00 	0x402e00
80020fb0:	80000000 	lb	zero,0(zero)
80020fb4:	fffffff8 	0xfffffff8
	...
80020fc0:	00000020 	add	zero,zero,zero
80020fc4:	0000001d 	0x1d
80020fc8:	0000001f 	0x1f
80020fcc:	00402e40 	0x402e40
80020fd0:	80000000 	lb	zero,0(zero)
80020fd4:	fffffff8 	0xfffffff8
	...
80020fe0:	00000020 	add	zero,zero,zero
80020fe4:	0000001d 	0x1d
80020fe8:	0000001f 	0x1f
80020fec:	00402e74 	0x402e74
80020ff0:	80000000 	lb	zero,0(zero)
80020ff4:	fffffff8 	0xfffffff8
	...
80021000:	00000020 	add	zero,zero,zero
80021004:	0000001d 	0x1d
80021008:	0000001f 	0x1f
8002100c:	00402eb0 	0x402eb0
80021010:	801f0000 	lb	ra,0(zero)
80021014:	fffffffc 	0xfffffffc
	...
80021020:	00000028 	0x28
80021024:	0000001d 	0x1d
80021028:	0000001f 	0x1f
8002102c:	00402f48 	0x402f48
80021030:	80030000 	lb	v1,0(zero)
80021034:	fffffff8 	0xfffffff8
	...
80021040:	00000020 	add	zero,zero,zero
80021044:	0000001d 	0x1d
80021048:	0000001f 	0x1f
8002104c:	00402fd0 	0x402fd0
	...
80021064:	0000001d 	0x1d
80021068:	0000001f 	0x1f
8002106c:	00402ffc 	0x402ffc
	...
80021084:	0000001d 	0x1d
80021088:	0000001f 	0x1f
8002108c:	00403020 	add	a2,v0,zero
	...
800210a4:	0000001d 	0x1d
800210a8:	0000001f 	0x1f
800210ac:	00403074 	0x403074
	...
800210c4:	0000001d 	0x1d
800210c8:	0000001f 	0x1f
800210cc:	004030a8 	0x4030a8
	...
800210e4:	0000001d 	0x1d
800210e8:	0000001f 	0x1f
800210ec:	00403130 	0x403130
800210f0:	80000000 	lb	zero,0(zero)
800210f4:	fffffff8 	0xfffffff8
	...
80021100:	00000018 	mult	zero,zero
80021104:	0000001d 	0x1d
80021108:	0000001f 	0x1f
8002110c:	004031d0 	0x4031d0
	...
80021124:	0000001d 	0x1d
80021128:	0000001f 	0x1f
8002112c:	00403254 	0x403254
80021130:	80000000 	lb	zero,0(zero)
80021134:	fffffff8 	0xfffffff8
	...
80021140:	00000018 	mult	zero,zero
80021144:	0000001d 	0x1d
80021148:	0000001f 	0x1f
8002114c:	00403278 	0x403278
	...
80021164:	0000001d 	0x1d
80021168:	0000001f 	0x1f
8002116c:	004032c8 	0x4032c8
80021170:	80000000 	lb	zero,0(zero)
80021174:	fffffff8 	0xfffffff8
	...
80021180:	00000018 	mult	zero,zero
80021184:	0000001d 	0x1d
80021188:	0000001f 	0x1f
8002118c:	004032f4 	0x4032f4
	...
800211a4:	0000001d 	0x1d
800211a8:	0000001f 	0x1f
800211ac:	00403304 	0x403304
	...
800211c4:	0000001d 	0x1d
800211c8:	0000001f 	0x1f
800211cc:	00403314 	0x403314
800211d0:	80010000 	lb	at,0(zero)
800211d4:	fffffffc 	0xfffffffc
	...
800211e0:	00000020 	add	zero,zero,zero
800211e4:	0000001d 	0x1d
800211e8:	0000001f 	0x1f
800211ec:	00403384 	0x403384
800211f0:	80030000 	lb	v1,0(zero)
800211f4:	fffffff8 	0xfffffff8
	...
80021200:	00000020 	add	zero,zero,zero
80021204:	0000001d 	0x1d
80021208:	0000001f 	0x1f
8002120c:	004033c4 	0x4033c4
80021210:	80ff0000 	lb	ra,0(a3)
80021214:	fffffff8 	0xfffffff8
	...
80021220:	00000048 	0x48
80021224:	0000001d 	0x1d
80021228:	0000001f 	0x1f
8002122c:	00403568 	0x403568
80021230:	80070000 	lb	a3,0(zero)
80021234:	fffffffc 	0xfffffffc
	...
80021240:	00000028 	0x28
80021244:	0000001d 	0x1d
80021248:	0000001f 	0x1f
8002124c:	00403650 	0x403650
80021250:	800f0000 	lb	t7,0(zero)
80021254:	fffffff8 	0xfffffff8
	...
80021260:	00000028 	0x28
80021264:	0000001d 	0x1d
80021268:	0000001f 	0x1f
8002126c:	004036d8 	0x4036d8
80021270:	80070000 	lb	a3,0(zero)
80021274:	fffffffc 	0xfffffffc
	...
80021280:	00000028 	0x28
80021284:	0000001d 	0x1d
80021288:	0000001f 	0x1f
8002128c:	004037bc 	0x4037bc
80021290:	80010000 	lb	at,0(zero)
80021294:	fffffffc 	0xfffffffc
	...
800212a0:	00000020 	add	zero,zero,zero
800212a4:	0000001d 	0x1d
800212a8:	0000001f 	0x1f
800212ac:	004037fc 	0x4037fc
800212b0:	80010000 	lb	at,0(zero)
800212b4:	fffffffc 	0xfffffffc
	...
800212c0:	00000020 	add	zero,zero,zero
800212c4:	0000001d 	0x1d
800212c8:	0000001f 	0x1f
800212cc:	00403870 	0x403870
800212d0:	80030000 	lb	v1,0(zero)
800212d4:	fffffff8 	0xfffffff8
	...
800212e0:	00000020 	add	zero,zero,zero
800212e4:	0000001d 	0x1d
800212e8:	0000001f 	0x1f
800212ec:	004038d0 	0x4038d0
	...
80021304:	0000001d 	0x1d
80021308:	0000001f 	0x1f
8002130c:	00403960 	0x403960
80021310:	801f0000 	lb	ra,0(zero)
80021314:	fffffffc 	0xfffffffc
	...
80021320:	00000030 	0x30
80021324:	0000001d 	0x1d
80021328:	0000001f 	0x1f
8002132c:	00403a80 	0x403a80
80021330:	800f0000 	lb	t7,0(zero)
80021334:	fffffff8 	0xfffffff8
	...
80021340:	00000028 	0x28
80021344:	0000001d 	0x1d
80021348:	0000001f 	0x1f
8002134c:	00403b58 	0x403b58
80021350:	80070000 	lb	a3,0(zero)
80021354:	fffffffc 	0xfffffffc
	...
80021360:	00000020 	add	zero,zero,zero
80021364:	0000001d 	0x1d
80021368:	0000001f 	0x1f
8002136c:	00403bd8 	0x403bd8
80021370:	80030000 	lb	v1,0(zero)
80021374:	fffffff8 	0xfffffff8
	...
80021380:	00000028 	0x28
80021384:	0000001d 	0x1d
80021388:	0000001f 	0x1f
8002138c:	00403cb4 	0x403cb4
80021390:	801f0000 	lb	ra,0(zero)
80021394:	fffffffc 	0xfffffffc
	...
800213a0:	00000028 	0x28
800213a4:	0000001d 	0x1d
800213a8:	0000001f 	0x1f
800213ac:	00403d64 	0x403d64
800213b0:	80030000 	lb	v1,0(zero)
800213b4:	fffffff8 	0xfffffff8
	...
800213c0:	00000020 	add	zero,zero,zero
800213c4:	0000001d 	0x1d
800213c8:	0000001f 	0x1f
800213cc:	00403dc0 	0x403dc0
800213d0:	c0ff0000 	lwc0	$31,0(a3)
800213d4:	fffffffc 	0xfffffffc
	...
800213e0:	00000048 	0x48
800213e4:	0000001d 	0x1d
800213e8:	0000001f 	0x1f
800213ec:	00403f58 	0x403f58
800213f0:	80000000 	lb	zero,0(zero)
800213f4:	fffffff8 	0xfffffff8
	...
80021400:	00000018 	mult	zero,zero
80021404:	0000001d 	0x1d
80021408:	0000001f 	0x1f
8002140c:	00403f78 	0x403f78
80021410:	80000000 	lb	zero,0(zero)
80021414:	fffffff8 	0xfffffff8
	...
80021420:	00000018 	mult	zero,zero
80021424:	0000001d 	0x1d
80021428:	0000001f 	0x1f
8002142c:	00403fa0 	0x403fa0
80021430:	80070000 	lb	a3,0(zero)
80021434:	fffffffc 	0xfffffffc
	...
80021440:	00000030 	0x30
80021444:	0000001d 	0x1d
80021448:	0000001f 	0x1f
8002144c:	00404138 	0x404138
	...
80021464:	0000001d 	0x1d
80021468:	0000001f 	0x1f
8002146c:	00404140 	0x404140
80021470:	80000000 	lb	zero,0(zero)
80021474:	fffffff8 	0xfffffff8
	...
80021480:	00000020 	add	zero,zero,zero
80021484:	0000001d 	0x1d
80021488:	0000001f 	0x1f
8002148c:	00404180 	0x404180
	...
800214a4:	0000001d 	0x1d
800214a8:	0000001f 	0x1f
800214ac:	00404188 	0x404188
	...
800214c4:	0000001d 	0x1d
800214c8:	0000001f 	0x1f
800214cc:	00404190 	0x404190
800214d0:	80030000 	lb	v1,0(zero)
800214d4:	fffffff8 	0xfffffff8
	...
800214e0:	00000020 	add	zero,zero,zero
800214e4:	0000001d 	0x1d
800214e8:	0000001f 	0x1f
800214ec:	004041f8 	0x4041f8
800214f0:	80000000 	lb	zero,0(zero)
800214f4:	fffffff8 	0xfffffff8
	...
80021500:	00000018 	mult	zero,zero
80021504:	0000001d 	0x1d
80021508:	0000001f 	0x1f
8002150c:	00404230 	0x404230
80021510:	80030000 	lb	v1,0(zero)
80021514:	fffffff8 	0xfffffff8
	...
80021520:	00000028 	0x28
80021524:	0000001d 	0x1d
80021528:	0000001f 	0x1f
8002152c:	00404294 	0x404294
80021530:	800f0000 	lb	t7,0(zero)
80021534:	fffffff8 	0xfffffff8
	...
80021540:	00000030 	0x30
80021544:	0000001d 	0x1d
80021548:	0000001f 	0x1f
8002154c:	00404310 	0x404310
80021550:	80010000 	lb	at,0(zero)
80021554:	fffffffc 	0xfffffffc
	...
80021560:	00000028 	0x28
80021564:	0000001d 	0x1d
80021568:	0000001f 	0x1f
8002156c:	00404388 	0x404388
80021570:	80000000 	lb	zero,0(zero)
80021574:	fffffff8 	0xfffffff8
	...
80021580:	00000018 	mult	zero,zero
80021584:	0000001d 	0x1d
80021588:	0000001f 	0x1f
8002158c:	004043c4 	0x4043c4
80021590:	80000000 	lb	zero,0(zero)
80021594:	fffffff8 	0xfffffff8
	...
800215a0:	00000018 	mult	zero,zero
800215a4:	0000001d 	0x1d
800215a8:	0000001f 	0x1f
800215ac:	004043f8 	0x4043f8
800215b0:	80000000 	lb	zero,0(zero)
800215b4:	fffffff8 	0xfffffff8
	...
800215c0:	00000018 	mult	zero,zero
800215c4:	0000001d 	0x1d
800215c8:	0000001f 	0x1f
800215cc:	00404434 	0x404434
800215d0:	80030000 	lb	v1,0(zero)
800215d4:	fffffff8 	0xfffffff8
	...
800215e0:	00000020 	add	zero,zero,zero
800215e4:	0000001d 	0x1d
800215e8:	0000001f 	0x1f
800215ec:	00404494 	0x404494
800215f0:	80000000 	lb	zero,0(zero)
800215f4:	fffffff8 	0xfffffff8
	...
80021600:	00000018 	mult	zero,zero
80021604:	0000001d 	0x1d
80021608:	0000001f 	0x1f
8002160c:	004044d0 	0x4044d0
80021610:	80000000 	lb	zero,0(zero)
80021614:	fffffff8 	0xfffffff8
	...
80021620:	00000020 	add	zero,zero,zero
80021624:	0000001d 	0x1d
80021628:	0000001f 	0x1f
8002162c:	00404514 	0x404514
80021630:	80000000 	lb	zero,0(zero)
80021634:	fffffff8 	0xfffffff8
	...
80021640:	00000020 	add	zero,zero,zero
80021644:	0000001d 	0x1d
80021648:	0000001f 	0x1f
8002164c:	00404580 	0x404580
80021650:	80030000 	lb	v1,0(zero)
80021654:	fffffff8 	0xfffffff8
	...
80021660:	00000020 	add	zero,zero,zero
80021664:	0000001d 	0x1d
80021668:	0000001f 	0x1f
8002166c:	00404628 	0x404628
80021670:	803f0000 	lb	ra,0(at)
80021674:	fffffff8 	0xfffffff8
	...
80021680:	000000b0 	0xb0
80021684:	0000001d 	0x1d
80021688:	0000001f 	0x1f
8002168c:	004046d8 	0x4046d8
	...
800216a4:	0000001d 	0x1d
800216a8:	0000001f 	0x1f
800216ac:	004046e0 	0x4046e0
800216b0:	80000000 	lb	zero,0(zero)
800216b4:	fffffff8 	0xfffffff8
	...
800216c0:	00000018 	mult	zero,zero
800216c4:	0000001d 	0x1d
800216c8:	0000001f 	0x1f
800216cc:	00404710 	0x404710
	...
800216e4:	0000001d 	0x1d
800216e8:	0000001f 	0x1f
800216ec:	0040475c 	0x40475c
800216f0:	80030000 	lb	v1,0(zero)
800216f4:	fffffff8 	0xfffffff8
	...
80021700:	00000228 	0x228
80021704:	0000001d 	0x1d
80021708:	0000001f 	0x1f
8002170c:	002e7379 	0x2e7379
80021710:	6d746162 	0x6d746162
80021714:	002e7374 	0x2e7374
80021718:	72746162 	0x72746162
8002171c:	002e7368 	0x2e7368
80021720:	73747274 	0x73747274
80021724:	6162002e 	0x6162002e
80021728:	74657874 	jalx	8195e1d0 <end+0x155e1d0>
8002172c:	002e7265 	0x2e7265
80021730:	67696e66 	0x67696e66
80021734:	6f002e64 	0x6f002e64
80021738:	61746100 	0x61746100
8002173c:	2e646174 	sltiu	a0,s3,24948
80021740:	612e7265 	0x612e7265
80021744:	6c002e64 	0x6c002e64
80021748:	6174612e 	0x6174612e
8002174c:	72656c2e 	0x72656c2e
80021750:	6c6f6361 	0x6c6f6361
80021754:	6c002e62 	0x6c002e62
80021758:	7373002e 	0x7373002e
8002175c:	70647200 	0x70647200
80021760:	2e6d6465 	sltiu	t5,s3,25701
80021764:	6275672e 	0x6275672e
80021768:	61626933 	0x61626933
8002176c:	32000000 	andi	zero,s0,0x0
	...
80021798:	0000001b 	divu	zero,zero,zero
8002179c:	00000001 	0x1
800217a0:	00000006 	srlv	zero,zero,zero
800217a4:	00401030 	0x401030
800217a8:	00001030 	0x1030
800217ac:	000037b0 	0x37b0
	...
800217b8:	00000010 	mfhi	zero
800217bc:	00000000 	nop
800217c0:	00000021 	move	zero,zero
800217c4:	70000006 	0x70000006
800217c8:	00000002 	srl	zero,zero,0x0
800217cc:	004047e0 	0x4047e0
800217d0:	000047e0 	0x47e0
800217d4:	00000018 	mult	zero,zero
	...
800217e0:	00000004 	sllv	zero,zero,zero
800217e4:	00000018 	mult	zero,zero
800217e8:	0000002a 	slt	zero,zero,zero
800217ec:	00000001 	0x1
800217f0:	00000003 	sra	zero,zero,0x0
800217f4:	00405000 	0x405000
800217f8:	00005000 	sll	t2,zero,0x0
800217fc:	00004a77 	0x4a77
	...
80021808:	00001000 	sll	v0,zero,0x0
8002180c:	00000000 	nop
80021810:	00000030 	0x30
80021814:	00000001 	0x1
80021818:	00000003 	sra	zero,zero,0x0
8002181c:	00409a78 	0x409a78
80021820:	00009a78 	0x9a78
80021824:	00000010 	mfhi	zero
	...
80021830:	00000004 	sllv	zero,zero,zero
80021834:	00000000 	nop
80021838:	0000003a 	0x3a
8002183c:	00000001 	0x1
80021840:	00000003 	sra	zero,zero,0x0
80021844:	00409a88 	0x409a88
80021848:	00009a88 	0x9a88
8002184c:	00000054 	0x54
	...
80021858:	00000004 	sllv	zero,zero,zero
8002185c:	00000000 	nop
80021860:	0000004a 	0x4a
80021864:	00000008 	jr	zero
80021868:	00000003 	sra	zero,zero,0x0
8002186c:	0040a000 	0x40a000
80021870:	00009adc 	0x9adc
80021874:	00000fd4 	0xfd4
	...
80021880:	00000010 	mfhi	zero
80021884:	00000000 	nop
80021888:	0000004f 	0x4f
8002188c:	00000001 	0x1
	...
80021898:	00009adc 	0x9adc
8002189c:	00000c80 	sll	at,zero,0x12
	...
800218a8:	00000004 	sllv	zero,zero,zero
800218ac:	00000000 	nop
800218b0:	00000054 	0x54
800218b4:	00000001 	0x1
	...
800218c0:	0000a75c 	0xa75c
	...
800218d0:	00000001 	0x1
800218d4:	00000000 	nop
800218d8:	00000011 	mthi	zero
800218dc:	00000003 	sra	zero,zero,0x0
	...
800218e8:	0000a75c 	0xa75c
800218ec:	00000062 	0x62
	...
800218f8:	00000001 	0x1
800218fc:	00000000 	nop
80021900:	00000001 	0x1
80021904:	00000002 	srl	zero,zero,0x0
	...
80021910:	0000a9a0 	0xa9a0
80021914:	000009f0 	0x9f0
80021918:	0000000b 	0xb
8002191c:	00000036 	0x36
80021920:	00000004 	sllv	zero,zero,zero
80021924:	00000010 	mfhi	zero
80021928:	00000009 	jalr	zero,zero
8002192c:	00000003 	sra	zero,zero,0x0
	...
80021938:	0000b390 	0xb390
8002193c:	00000597 	0x597
	...
80021948:	00000001 	0x1
	...
80021964:	00401030 	0x401030
80021968:	00000000 	nop
8002196c:	03000001 	0x3000001
80021970:	00000000 	nop
80021974:	004047e0 	0x4047e0
80021978:	00000000 	nop
8002197c:	03000002 	0x3000002
80021980:	00000000 	nop
80021984:	00405000 	0x405000
80021988:	00000000 	nop
8002198c:	03000003 	0x3000003
80021990:	00000000 	nop
80021994:	00409a78 	0x409a78
80021998:	00000000 	nop
8002199c:	03000004 	sllv	zero,zero,t8
800219a0:	00000000 	nop
800219a4:	00409a88 	0x409a88
800219a8:	00000000 	nop
800219ac:	03000005 	0x3000005
800219b0:	00000000 	nop
800219b4:	0040a000 	0x40a000
800219b8:	00000000 	nop
800219bc:	03000006 	srlv	zero,zero,t8
	...
800219cc:	03000007 	srav	zero,zero,t8
	...
800219dc:	03000008 	jr	t8
800219e0:	00000000 	nop
	...
800219ec:	03000009 	jalr	zero,t8
800219f0:	00000000 	nop
	...
800219fc:	0300000a 	0x300000a
	...
80021a0c:	0300000b 	0x300000b
80021a10:	00000001 	0x1
	...
80021a1c:	0400fff1 	bltz	zero,800219e4 <binary_user_check_icode_start+0xaa34>
80021a20:	00000009 	jalr	zero,zero
80021a24:	00000000 	nop
80021a28:	00000000 	nop
80021a2c:	0400fff1 	bltz	zero,800219f4 <binary_user_check_icode_start+0xaa44>
80021a30:	00000018 	mult	zero,zero
	...
80021a3c:	0400fff1 	bltz	zero,80021a04 <binary_user_check_icode_start+0xaa54>
80021a40:	00000026 	xor	zero,zero,zero
80021a44:	004083f0 	0x4083f0
80021a48:	00000014 	0x14
80021a4c:	01000003 	0x1000003
80021a50:	0000002d 	0x2d
80021a54:	00408410 	0x408410
80021a58:	00000fa0 	0xfa0
80021a5c:	01000003 	0x1000003
80021a60:	00000036 	0x36
	...
80021a6c:	0400fff1 	bltz	zero,80021a34 <binary_user_check_icode_start+0xaa84>
80021a70:	0000003f 	0x3f
80021a74:	00401150 	0x401150
80021a78:	00000098 	0x98
80021a7c:	02000001 	0x2000001
80021a80:	0000004d 	break	0x0,0x1
80021a84:	004012fc 	0x4012fc
80021a88:	00000098 	0x98
80021a8c:	02000001 	0x2000001
80021a90:	00000056 	0x56
	...
80021a9c:	0400fff1 	bltz	zero,80021a64 <binary_user_check_icode_start+0xaab4>
80021aa0:	0000005e 	0x5e
80021aa4:	004093b0 	0x4093b0
80021aa8:	0000001e 	0x1e
80021aac:	01000003 	0x1000003
80021ab0:	0000006f 	0x6f
80021ab4:	004095b8 	0x4095b8
80021ab8:	00000019 	multu	zero,zero
80021abc:	01000003 	0x1000003
80021ac0:	0000007b 	0x7b
	...
80021acc:	0400fff1 	bltz	zero,80021a94 <binary_user_check_icode_start+0xaae4>
80021ad0:	00000083 	sra	zero,zero,0x2
	...
80021adc:	0400fff1 	bltz	zero,80021aa4 <binary_user_check_icode_start+0xaaf4>
80021ae0:	0000008a 	0x8a
80021ae4:	00402724 	0x402724
80021ae8:	00000124 	0x124
80021aec:	02000001 	0x2000001
80021af0:	00000092 	0x92
80021af4:	00402848 	0x402848
80021af8:	000000fc 	0xfc
80021afc:	02000001 	0x2000001
80021b00:	0000009a 	0x9a
	...
80021b0c:	0400fff1 	bltz	zero,80021ad4 <binary_user_check_icode_start+0xab24>
80021b10:	000000a4 	0xa4
	...
80021b1c:	0400fff1 	bltz	zero,80021ae4 <binary_user_check_icode_start+0xab34>
80021b20:	000000b2 	0xb2
	...
80021b2c:	0400fff1 	bltz	zero,80021af4 <binary_user_check_icode_start+0xab44>
80021b30:	000000b8 	0xb8
	...
80021b3c:	0400fff1 	bltz	zero,80021b04 <binary_user_check_icode_start+0xab54>
80021b40:	000000c1 	0xc1
	...
80021b4c:	0400fff1 	bltz	zero,80021b14 <binary_user_check_icode_start+0xab64>
80021b50:	000000c6 	0xc6
80021b54:	00409a78 	0x409a78
80021b58:	00000010 	mfhi	zero
80021b5c:	01000004 	sllv	zero,zero,t0
80021b60:	000000cd 	break	0x0,0x3
	...
80021b6c:	0400fff1 	bltz	zero,80021b34 <binary_user_check_icode_start+0xab84>
80021b70:	000000d7 	0xd7
	...
80021b7c:	0400fff1 	bltz	zero,80021b44 <binary_user_check_icode_start+0xab94>
80021b80:	000000de 	0xde
80021b84:	00403b58 	0x403b58
80021b88:	00000080 	sll	zero,zero,0x2
80021b8c:	02000001 	0x2000001
80021b90:	000000e8 	0xe8
80021b94:	00403cb4 	0x403cb4
80021b98:	000000b0 	0xb0
80021b9c:	02000001 	0x2000001
80021ba0:	000000f3 	0xf3
80021ba4:	00403a80 	0x403a80
80021ba8:	000000d8 	0xd8
80021bac:	02000001 	0x2000001
80021bb0:	000000fe 	0xfe
80021bb4:	00403d64 	0x403d64
80021bb8:	0000005c 	0x5c
80021bbc:	02000001 	0x2000001
80021bc0:	00000108 	0x108
	...
80021bcc:	0400fff1 	bltz	zero,80021b94 <binary_user_check_icode_start+0xabe4>
80021bd0:	0000010f 	0x10f
80021bd4:	00404180 	0x404180
80021bd8:	00000008 	jr	zero
80021bdc:	02000001 	0x2000001
80021be0:	00000118 	0x118
80021be4:	00404188 	0x404188
80021be8:	00000008 	jr	zero
80021bec:	02000001 	0x2000001
80021bf0:	00000122 	0x122
80021bf4:	004041f8 	0x4041f8
80021bf8:	00000030 	0x30
80021bfc:	02000001 	0x2000001
80021c00:	0000012c 	0x12c
80021c04:	00404190 	0x404190
80021c08:	00000068 	0x68
80021c0c:	02000001 	0x2000001
80021c10:	00000135 	0x135
80021c14:	00404138 	0x404138
80021c18:	00000008 	jr	zero
80021c1c:	02000001 	0x2000001
80021c20:	00000143 	sra	zero,zero,0x5
	...
80021c2c:	0400fff1 	bltz	zero,80021bf4 <binary_user_check_icode_start+0xac44>
80021c30:	0000014b 	0x14b
80021c34:	00404230 	0x404230
80021c38:	00000064 	0x64
80021c3c:	02000001 	0x2000001
80021c40:	00000151 	0x151
	...
80021c4c:	0400fff1 	bltz	zero,80021c14 <binary_user_check_icode_start+0xac64>
80021c50:	0000015b 	0x15b
80021c54:	00404580 	0x404580
80021c58:	000000a8 	0xa8
80021c5c:	02000001 	0x2000001
80021c60:	00000165 	0x165
80021c64:	00404628 	0x404628
80021c68:	000000b0 	0xb0
80021c6c:	02000001 	0x2000001
80021c70:	00000170 	0x170
80021c74:	004046d8 	0x4046d8
80021c78:	00000008 	jr	zero
80021c7c:	02000001 	0x2000001
80021c80:	0000017b 	0x17b
80021c84:	004046e0 	0x4046e0
80021c88:	0000002c 	0x2c
80021c8c:	02000001 	0x2000001
80021c90:	00000185 	0x185
	...
80021c9c:	0400fff1 	bltz	zero,80021c64 <binary_user_check_icode_start+0xacb4>
80021ca0:	0000018f 	0x18f
80021ca4:	00404710 	0x404710
80021ca8:	0000004c 	syscall	0x1
80021cac:	02000001 	0x2000001
80021cb0:	0000019f 	0x19f
80021cb4:	00402f48 	0x402f48
80021cb8:	0000007c 	0x7c
80021cbc:	12000001 	beqz	s0,80021cc4 <binary_user_check_icode_start+0xad14>
80021cc0:	000001a8 	0x1a8
80021cc4:	00401d40 	0x401d40
80021cc8:	00000590 	0x590
80021ccc:	12000001 	beqz	s0,80021cd4 <binary_user_check_icode_start+0xad24>
80021cd0:	000001b1 	0x1b1
80021cd4:	00402ffc 	0x402ffc
80021cd8:	00000024 	and	zero,zero,zero
80021cdc:	12000001 	beqz	s0,80021ce4 <binary_user_check_icode_start+0xad34>
80021ce0:	000001b8 	0x1b8
80021ce4:	00403304 	0x403304
80021ce8:	00000010 	mfhi	zero
80021cec:	12000001 	beqz	s0,80021cf4 <binary_user_check_icode_start+0xad44>
80021cf0:	000001bf 	0x1bf
80021cf4:	004013d4 	0x4013d4
80021cf8:	00000064 	0x64
80021cfc:	12000001 	beqz	s0,80021d04 <binary_user_check_icode_start+0xad54>
80021d00:	000001c6 	0x1c6
80021d04:	004012b4 	0x4012b4
80021d08:	00000048 	0x48
80021d0c:	12000001 	beqz	s0,80021d14 <binary_user_check_icode_start+0xad64>
80021d10:	000001cf 	0x1cf
80021d14:	00401394 	0x401394
80021d18:	00000040 	sll	zero,zero,0x1
80021d1c:	12000001 	beqz	s0,80021d24 <binary_user_check_icode_start+0xad74>
80021d20:	000001d6 	0x1d6
80021d24:	00408004 	sllv	s0,zero,v0
80021d28:	00000004 	sllv	zero,zero,zero
80021d2c:	11000003 	beqz	t0,80021d3c <binary_user_check_icode_start+0xad8c>
80021d30:	000001d8 	0x1d8
80021d34:	004032f4 	0x4032f4
80021d38:	00000010 	mfhi	zero
80021d3c:	12000001 	beqz	s0,80021d44 <binary_user_check_icode_start+0xad94>
80021d40:	000001df 	0x1df
80021d44:	00408008 	0x408008
80021d48:	000003e8 	0x3e8
80021d4c:	11000003 	beqz	t0,80021d5c <binary_user_check_icode_start+0xadac>
80021d50:	000001e5 	0x1e5
80021d54:	00409aa4 	0x409aa4
80021d58:	0000001c 	0x1c
80021d5c:	11000005 	beqz	t0,80021d74 <binary_user_check_icode_start+0xadc4>
80021d60:	000001ed 	0x1ed
80021d64:	004043c4 	0x4043c4
80021d68:	00000034 	0x34
80021d6c:	12000001 	beqz	s0,80021d74 <binary_user_check_icode_start+0xadc4>
80021d70:	000001f9 	0x1f9
80021d74:	00404310 	0x404310
80021d78:	00000078 	0x78
80021d7c:	12000001 	beqz	s0,80021d84 <binary_user_check_icode_start+0xadd4>
80021d80:	00000203 	sra	zero,zero,0x8
80021d84:	004047e0 	0x4047e0
80021d88:	00000000 	nop
80021d8c:	1000fff1 	b	80021d54 <binary_user_check_icode_start+0xada4>
80021d90:	0000020a 	0x20a
80021d94:	004031d0 	0x4031d0
80021d98:	00000084 	0x84
80021d9c:	12000001 	beqz	s0,80021da4 <binary_user_check_icode_start+0xadf4>
80021da0:	00000213 	0x213
80021da4:	00402bc8 	0x402bc8
80021da8:	00000034 	0x34
80021dac:	12000001 	beqz	s0,80021db4 <binary_user_check_icode_start+0xae04>
80021db0:	00000224 	0x224
80021db4:	00403074 	0x403074
80021db8:	00000034 	0x34
80021dbc:	12000001 	beqz	s0,80021dc4 <binary_user_check_icode_start+0xae14>
80021dc0:	0000022b 	0x22b
80021dc4:	00404494 	0x404494
80021dc8:	00000030 	0x30
80021dcc:	12000001 	beqz	s0,80021dd4 <binary_user_check_icode_start+0xae24>
80021dd0:	00000236 	0x236
80021dd4:	00402d94 	0x402d94
80021dd8:	00000038 	0x38
80021ddc:	12000001 	beqz	s0,80021de4 <binary_user_check_icode_start+0xae34>
80021de0:	0000024c 	syscall	0x9
80021de4:	00402d5c 	0x402d5c
80021de8:	00000038 	0x38
80021dec:	12000001 	beqz	s0,80021df4 <binary_user_check_icode_start+0xae44>
80021df0:	00000263 	0x263
80021df4:	0040700c 	syscall	0x101c0
80021df8:	00000000 	nop
80021dfc:	11000003 	beqz	t0,80021e0c <binary_user_check_icode_start+0xae5c>
80021e00:	00000267 	0x267
80021e04:	00403f58 	0x403f58
80021e08:	00000020 	add	zero,zero,zero
80021e0c:	12000001 	beqz	s0,80021e14 <binary_user_check_icode_start+0xae64>
80021e10:	0000026e 	0x26e
80021e14:	00401118 	0x401118
80021e18:	00000034 	0x34
80021e1c:	12000001 	beqz	s0,80021e24 <binary_user_check_icode_start+0xae74>
80021e20:	00000274 	0x274
80021e24:	00402e74 	0x402e74
80021e28:	00000034 	0x34
80021e2c:	12000001 	beqz	s0,80021e34 <binary_user_check_icode_start+0xae84>
80021e30:	00000282 	srl	zero,zero,0xa
80021e34:	00407000 	0x407000
80021e38:	00000000 	nop
80021e3c:	11000003 	beqz	t0,80021e4c <binary_user_check_icode_start+0xae9c>
80021e40:	00000287 	0x287
80021e44:	00407010 	0x407010
80021e48:	00000000 	nop
80021e4c:	11000003 	beqz	t0,80021e5c <binary_user_check_icode_start+0xaeac>
80021e50:	00000299 	0x299
80021e54:	0040246c 	0x40246c
80021e58:	00000198 	0x198
80021e5c:	12000001 	beqz	s0,80021e64 <binary_user_check_icode_start+0xaeb4>
80021e60:	000002a2 	0x2a2
80021e64:	00403dc0 	0x403dc0
80021e68:	00000198 	0x198
80021e6c:	12000001 	beqz	s0,80021e74 <binary_user_check_icode_start+0xaec4>
80021e70:	000002ac 	0x2ac
80021e74:	00401100 	0x401100
80021e78:	00000008 	jr	zero
80021e7c:	12000001 	beqz	s0,80021e84 <binary_user_check_icode_start+0xaed4>
80021e80:	000002b3 	0x2b3
80021e84:	00403650 	0x403650
80021e88:	00000088 	0x88
80021e8c:	12000001 	beqz	s0,80021e94 <binary_user_check_icode_start+0xaee4>
80021e90:	000002b9 	0x2b9
80021e94:	00402bfc 	0x402bfc
80021e98:	00000034 	0x34
80021e9c:	12000001 	beqz	s0,80021ea4 <binary_user_check_icode_start+0xaef4>
80021ea0:	000002c7 	0x2c7
80021ea4:	0040128c 	syscall	0x1004a
80021ea8:	00000014 	0x14
80021eac:	12000001 	beqz	s0,80021eb4 <binary_user_check_icode_start+0xaf04>
80021eb0:	000002d2 	0x2d2
80021eb4:	0040a000 	0x40a000
80021eb8:	00000018 	mult	zero,zero
80021ebc:	11000006 	beqz	t0,80021ed8 <binary_user_check_icode_start+0xaf28>
80021ec0:	000002d7 	0x2d7
80021ec4:	00402c64 	0x402c64
80021ec8:	0000003c 	0x3c
80021ecc:	12000001 	beqz	s0,80021ed4 <binary_user_check_icode_start+0xaf24>
80021ed0:	000002f3 	0x2f3
80021ed4:	004044d0 	0x4044d0
80021ed8:	00000044 	0x44
80021edc:	12000001 	beqz	s0,80021ee4 <binary_user_check_icode_start+0xaf34>
80021ee0:	000002fa 	0x2fa
80021ee4:	00402c30 	0x402c30
80021ee8:	00000034 	0x34
80021eec:	12000001 	beqz	s0,80021ef4 <binary_user_check_icode_start+0xaf44>
80021ef0:	0000030e 	0x30e
80021ef4:	00403fa0 	0x403fa0
80021ef8:	00000198 	0x198
80021efc:	12000001 	beqz	s0,80021f04 <binary_user_check_icode_start+0xaf54>
80021f00:	00000313 	0x313
80021f04:	004032c8 	0x4032c8
80021f08:	0000002c 	0x2c
80021f0c:	12000001 	beqz	s0,80021f14 <binary_user_check_icode_start+0xaf64>
80021f10:	0000031b 	0x31b
80021f14:	00403254 	0x403254
80021f18:	00000024 	and	zero,zero,zero
80021f1c:	12000001 	beqz	s0,80021f24 <binary_user_check_icode_start+0xaf74>
80021f20:	00000324 	0x324
80021f24:	00401440 	0x401440
80021f28:	000005cc 	syscall	0x17
80021f2c:	12000001 	beqz	s0,80021f34 <binary_user_check_icode_start+0xaf84>
80021f30:	00000332 	0x332
80021f34:	00402670 	0x402670
80021f38:	00000088 	0x88
80021f3c:	12000001 	beqz	s0,80021f44 <binary_user_check_icode_start+0xaf94>
80021f40:	0000033d 	0x33d
80021f44:	004036d8 	0x4036d8
80021f48:	000000e4 	0xe4
80021f4c:	12000001 	beqz	s0,80021f54 <binary_user_check_icode_start+0xafa4>
80021f50:	00000343 	sra	zero,zero,0xd
80021f54:	004037fc 	0x4037fc
80021f58:	00000074 	0x74
80021f5c:	12000001 	beqz	s0,80021f64 <binary_user_check_icode_start+0xafb4>
80021f60:	00000349 	0x349
80021f64:	00402ca0 	0x402ca0
80021f68:	0000003c 	0x3c
80021f6c:	12000001 	beqz	s0,80021f74 <binary_user_check_icode_start+0xafc4>
80021f70:	0000035b 	0x35b
80021f74:	0040afd4 	0x40afd4
80021f78:	00000000 	nop
80021f7c:	1000fff1 	b	80021f44 <binary_user_check_icode_start+0xaf94>
80021f80:	0000035f 	0x35f
80021f84:	0040a018 	0x40a018
80021f88:	00000fa0 	0xfa0
80021f8c:	11000006 	beqz	t0,80021fa8 <binary_user_check_icode_start+0xaff8>
80021f90:	00000364 	0x364
80021f94:	00401030 	0x401030
80021f98:	00000000 	nop
80021f9c:	11000001 	beqz	t0,80021fa4 <binary_user_check_icode_start+0xaff4>
80021fa0:	0000036b 	0x36b
80021fa4:	004043f8 	0x4043f8
80021fa8:	0000003c 	0x3c
80021fac:	12000001 	beqz	s0,80021fb4 <binary_user_check_icode_start+0xb004>
80021fb0:	00000377 	0x377
80021fb4:	00403568 	0x403568
80021fb8:	000000e8 	0xe8
80021fbc:	12000001 	beqz	s0,80021fc4 <binary_user_check_icode_start+0xb014>
80021fc0:	0000037c 	0x37c
80021fc4:	00403130 	0x403130
80021fc8:	000000a0 	0xa0
80021fcc:	12000001 	beqz	s0,80021fd4 <binary_user_check_icode_start+0xb024>
80021fd0:	00000387 	0x387
80021fd4:	0040234c 	syscall	0x1008d
80021fd8:	00000120 	0x120
80021fdc:	12000001 	beqz	s0,80021fe4 <binary_user_check_icode_start+0xb034>
80021fe0:	00000393 	0x393
80021fe4:	00403f78 	0x403f78
80021fe8:	00000020 	add	zero,zero,zero
80021fec:	12000001 	beqz	s0,80021ff4 <binary_user_check_icode_start+0xb044>
80021ff0:	00000398 	0x398
80021ff4:	00404140 	0x404140
80021ff8:	00000040 	sll	zero,zero,0x1
80021ffc:	12000001 	beqz	s0,80022004 <binary_user_check_icode_start+0xb054>
80022000:	000003a5 	0x3a5
80022004:	004026f8 	0x4026f8
80022008:	0000002c 	0x2c
8002200c:	12000001 	beqz	s0,80022014 <binary_user_check_icode_start+0xb064>
80022010:	000003b0 	0x3b0
80022014:	00404294 	0x404294
80022018:	0000007c 	0x7c
8002201c:	12000001 	beqz	s0,80022024 <binary_user_check_icode_start+0xb074>
80022020:	000003bb 	0x3bb
80022024:	00403bd8 	0x403bd8
80022028:	000000dc 	0xdc
8002202c:	12000001 	beqz	s0,80022034 <binary_user_check_icode_start+0xb084>
80022030:	000003c4 	0x3c4
80022034:	00402eb0 	0x402eb0
80022038:	00000098 	0x98
8002203c:	12000001 	beqz	s0,80022044 <binary_user_check_icode_start+0xb094>
80022040:	000003cd 	break	0x0,0xf
80022044:	00402944 	0x402944
80022048:	000001a0 	0x1a0
8002204c:	12000001 	beqz	s0,80022054 <binary_user_check_icode_start+0xb0a4>
80022050:	000003d2 	0x3d2
80022054:	00401228 	0x401228
80022058:	00000064 	0x64
8002205c:	12000001 	beqz	s0,80022064 <binary_user_check_icode_start+0xb0b4>
80022060:	000003de 	0x3de
80022064:	004010f0 	0x4010f0
80022068:	00000010 	mfhi	zero
8002206c:	12000001 	beqz	s0,80022074 <binary_user_check_icode_start+0xb0c4>
80022070:	000003e7 	0x3e7
80022074:	00401028 	0x401028
80022078:	00000000 	nop
8002207c:	1000fff1 	b	80022044 <binary_user_check_icode_start+0xb094>
80022080:	000003ed 	0x3ed
80022084:	00402e40 	0x402e40
80022088:	00000034 	0x34
8002208c:	12000001 	beqz	s0,80022094 <binary_user_check_icode_start+0xb0e4>
80022090:	000003fe 	0x3fe
80022094:	0040a000 	0x40a000
80022098:	00000000 	nop
8002209c:	1000fff1 	b	80022064 <binary_user_check_icode_start+0xb0b4>
800220a0:	0000040a 	0x40a
800220a4:	004022d0 	0x4022d0
800220a8:	0000007c 	0x7c
800220ac:	12000001 	beqz	s0,800220b4 <binary_user_check_icode_start+0xb104>
800220b0:	00000414 	0x414
800220b4:	00409a88 	0x409a88
800220b8:	0000001c 	0x1c
800220bc:	11000005 	beqz	t0,800220d4 <binary_user_check_icode_start+0xb124>
800220c0:	0000041c 	0x41c
800220c4:	004011e8 	0x4011e8
800220c8:	00000040 	sll	zero,zero,0x1
800220cc:	12000001 	beqz	s0,800220d4 <binary_user_check_icode_start+0xb124>
800220d0:	00000423 	0x423
800220d4:	004037bc 	0x4037bc
800220d8:	00000040 	sll	zero,zero,0x1
800220dc:	12000001 	beqz	s0,800220e4 <binary_user_check_icode_start+0xb134>
800220e0:	00000428 	0x428
800220e4:	00401044 	0x401044
800220e8:	00000000 	nop
800220ec:	11000001 	beqz	t0,800220f4 <binary_user_check_icode_start+0xb144>
800220f0:	0000043e 	0x43e
800220f4:	00409ac0 	0x409ac0
800220f8:	0000001c 	0x1c
800220fc:	11000005 	beqz	t0,80022114 <binary_user_check_icode_start+0xb164>
80022100:	00000446 	0x446
80022104:	004030a8 	0x4030a8
80022108:	0000007c 	0x7c
8002210c:	12000001 	beqz	s0,80022114 <binary_user_check_icode_start+0xb164>
80022110:	0000044d 	break	0x0,0x11
80022114:	004033c4 	0x4033c4
80022118:	000001a4 	0x1a4
8002211c:	12000001 	beqz	s0,80022124 <binary_user_check_icode_start+0xb174>
80022120:	00000451 	0x451
80022124:	00402b90 	0x402b90
80022128:	00000038 	0x38
8002212c:	12000001 	beqz	s0,80022134 <binary_user_check_icode_start+0xb184>
80022130:	00000461 	0x461
80022134:	00402630 	0x402630
80022138:	00000034 	0x34
8002213c:	12000001 	beqz	s0,80022144 <binary_user_check_icode_start+0xb194>
80022140:	00000469 	0x469
80022144:	00402ae4 	0x402ae4
80022148:	00000020 	add	zero,zero,zero
8002214c:	12000001 	beqz	s0,80022154 <binary_user_check_icode_start+0xb1a4>
80022150:	0000046f 	0x46f
80022154:	00404434 	0x404434
80022158:	00000060 	0x60
8002215c:	12000001 	beqz	s0,80022164 <binary_user_check_icode_start+0xb1b4>
80022160:	0000047c 	0x47c
80022164:	0040afb8 	0x40afb8
80022168:	00000018 	mult	zero,zero
8002216c:	11000006 	beqz	t0,80022188 <binary_user_check_icode_start+0xb1d8>
80022170:	00000481 	0x481
80022174:	00405000 	0x405000
80022178:	00000000 	nop
8002217c:	11000003 	beqz	t0,8002218c <binary_user_check_icode_start+0xb1dc>
80022180:	0000048a 	0x48a
80022184:	00401a0c 	syscall	0x10068
80022188:	0000007c 	0x7c
8002218c:	12000001 	beqz	s0,80022194 <binary_user_check_icode_start+0xb1e4>
80022190:	00000499 	0x499
80022194:	0040afd0 	0x40afd0
80022198:	00000004 	sllv	zero,zero,zero
8002219c:	11000006 	beqz	t0,800221b8 <binary_user_check_icode_start+0xb208>
800221a0:	0000049d 	0x49d
800221a4:	00406000 	0x406000
800221a8:	00000000 	nop
800221ac:	11000003 	beqz	t0,800221bc <binary_user_check_icode_start+0xb20c>
800221b0:	000004a3 	0x4a3
800221b4:	00404388 	0x404388
800221b8:	0000003c 	0x3c
800221bc:	12000001 	beqz	s0,800221c4 <binary_user_check_icode_start+0xb214>
800221c0:	000004b2 	0x4b2
800221c4:	00401108 	0x401108
800221c8:	00000010 	mfhi	zero
800221cc:	12000001 	beqz	s0,800221d4 <binary_user_check_icode_start+0xb224>
800221d0:	000004b7 	0x4b7
800221d4:	00403384 	0x403384
800221d8:	00000040 	sll	zero,zero,0x1
800221dc:	12000001 	beqz	s0,800221e4 <binary_user_check_icode_start+0xb234>
800221e0:	000004c1 	0x4c1
800221e4:	00407008 	0x407008
800221e8:	00000000 	nop
800221ec:	11000003 	beqz	t0,800221fc <binary_user_check_icode_start+0xb24c>
800221f0:	000004c5 	0x4c5
800221f4:	00403870 	0x403870
800221f8:	00000058 	0x58
800221fc:	12000001 	beqz	s0,80022204 <binary_user_check_icode_start+0xb254>
80022200:	000004ca 	0x4ca
80022204:	00409a77 	0x409a77
80022208:	00000000 	nop
8002220c:	1000fff1 	b	800221d4 <binary_user_check_icode_start+0xb224>
80022210:	000004d1 	0x4d1
80022214:	004012a0 	0x4012a0
80022218:	00000014 	0x14
8002221c:	12000001 	beqz	s0,80022224 <binary_user_check_icode_start+0xb274>
80022220:	000004d6 	0x4d6
80022224:	00401a88 	0x401a88
80022228:	00000120 	0x120
8002222c:	12000001 	beqz	s0,80022234 <binary_user_check_icode_start+0xb284>
80022230:	000004e7 	0x4e7
80022234:	00402610 	0x402610
80022238:	00000020 	add	zero,zero,zero
8002223c:	12000001 	beqz	s0,80022244 <binary_user_check_icode_start+0xb294>
80022240:	000004ec 	0x4ec
80022244:	00408000 	0x408000
80022248:	00000004 	sllv	zero,zero,zero
8002224c:	11000003 	beqz	t0,8002225c <binary_user_check_icode_start+0xb2ac>
80022250:	000004ee 	0x4ee
80022254:	00402b10 	0x402b10
80022258:	00000080 	sll	zero,zero,0x2
8002225c:	12000001 	beqz	s0,80022264 <binary_user_check_icode_start+0xb2b4>
80022260:	00000502 	srl	zero,zero,0x14
80022264:	00402dcc 	syscall	0x100b7
80022268:	00000034 	0x34
8002226c:	12000001 	beqz	s0,80022274 <binary_user_check_icode_start+0xb2c4>
80022270:	00000510 	0x510
80022274:	00401ba8 	0x401ba8
80022278:	00000198 	0x198
8002227c:	12000001 	beqz	s0,80022284 <binary_user_check_icode_start+0xb2d4>
80022280:	0000051e 	0x51e
80022284:	00402fd0 	0x402fd0
80022288:	0000002c 	0x2c
8002228c:	12000001 	beqz	s0,80022294 <binary_user_check_icode_start+0xb2e4>
80022290:	00000525 	0x525
80022294:	00403960 	0x403960
80022298:	00000120 	0x120
8002229c:	12000001 	beqz	s0,800222a4 <binary_user_check_icode_start+0xb2f4>
800222a0:	0000052a 	0x52a
800222a4:	00402d24 	0x402d24
800222a8:	00000038 	0x38
800222ac:	12000001 	beqz	s0,800222b4 <binary_user_check_icode_start+0xb304>
800222b0:	0000053c 	0x53c
800222b4:	00402cdc 	0x402cdc
800222b8:	00000048 	0x48
800222bc:	12000001 	beqz	s0,800222c4 <binary_user_check_icode_start+0xb314>
800222c0:	0000054c 	syscall	0x15
800222c4:	00403020 	add	a2,v0,zero
800222c8:	00000054 	0x54
800222cc:	12000001 	beqz	s0,800222d4 <binary_user_check_icode_start+0xb324>
800222d0:	00000553 	0x553
800222d4:	00402e00 	0x402e00
800222d8:	00000040 	sll	zero,zero,0x1
800222dc:	12000001 	beqz	s0,800222e4 <binary_user_check_icode_start+0xb334>
800222e0:	00000568 	0x568
800222e4:	00403278 	0x403278
800222e8:	00000050 	0x50
800222ec:	12000001 	beqz	s0,800222f4 <binary_user_check_icode_start+0xb344>
800222f0:	00000572 	0x572
800222f4:	0040475c 	0x40475c
800222f8:	00000078 	0x78
800222fc:	12000001 	beqz	s0,80022304 <binary_user_check_icode_start+0xb354>
80022300:	0000057a 	0x57a
80022304:	00404514 	0x404514
80022308:	0000006c 	0x6c
8002230c:	12000001 	beqz	s0,80022314 <binary_user_check_icode_start+0xb364>
80022310:	00000583 	sra	zero,zero,0x16
80022314:	004038d0 	0x4038d0
80022318:	00000088 	0x88
8002231c:	12000001 	beqz	s0,80022324 <binary_user_check_icode_start+0xb374>
80022320:	0000058b 	0x58b
80022324:	00407004 	sllv	t6,zero,v0
80022328:	00000000 	nop
8002232c:	11000003 	beqz	t0,8002233c <binary_user_check_icode_start+0xb38c>
80022330:	00000591 	0x591
80022334:	00403314 	0x403314
80022338:	00000070 	0x70
8002233c:	12000001 	beqz	s0,80022344 <binary_user_check_icode_start+0xb394>
80022340:	00656e74 	0x656e74
80022344:	72792e53 	0x72792e53
80022348:	00737973 	0x737973
8002234c:	63616c6c 	0x63616c6c
80022350:	5f777261 	0x5f777261
80022354:	702e5300 	0x702e5300
80022358:	63686563 	0x63686563
8002235c:	6b5f6963 	0x6b5f6963
80022360:	6f64652e 	0x6f64652e
80022364:	63006d2e 	0x63006d2e
80022368:	31323032 	andi	s2,t1,0x3032
8002236c:	00432e37 	0x432e37
80022370:	2e313231 	sltiu	s1,s1,12849
80022374:	33007072 	andi	zero,t8,0x7072
80022378:	696e7466 	0x696e7466
8002237c:	2e630075 	sltiu	v1,s3,117
80022380:	7365725f 	0x7365725f
80022384:	6d796f75 	0x6d796f75
80022388:	74707574 	jalx	81c1d5d0 <end+0x181d5d0>
8002238c:	006d796f 	0x6d796f
80022390:	75747075 	jalx	85d1c1d4 <end+0x591c1d4>
80022394:	74007072 	jalx	8001c1c8 <binary_user_check_icode_start+0x5218>
80022398:	696e742e 	0x696e742e
8002239c:	63007573 	0x63007573
800223a0:	65725f74 	0x65725f74
800223a4:	68654661 	0x68654661
800223a8:	74616c4d 	jalx	8185b134 <end+0x145b134>
800223ac:	73670074 	0x73670074
800223b0:	68654661 	0x68654661
800223b4:	74616c4d 	jalx	8185b134 <end+0x145b134>
800223b8:	7367006c 	0x7367006c
800223bc:	69626f73 	0x69626f73
800223c0:	2e630066 	sltiu	v1,s3,102
800223c4:	6f726b2e 	0x6f726b2e
800223c8:	63007067 	0x63007067
800223cc:	6661756c 	0x6661756c
800223d0:	74006475 	jalx	800191d4 <binary_user_check_icode_start+0x2224>
800223d4:	70706167 	0x70706167
800223d8:	65007067 	0x65007067
800223dc:	6661756c 	0x6661756c
800223e0:	742e6300 	jalx	80b98c00 <end+0x798c00>
800223e4:	73797363 	0x73797363
800223e8:	616c6c5f 	0x616c6c5f
800223ec:	6c69622e 	0x6c69622e
800223f0:	63006970 	0x63006970
800223f4:	632e6300 	0x632e6300
800223f8:	73747269 	0x73747269
800223fc:	6e672e63 	0x6e672e63
80022400:	0066642e 	0x66642e
80022404:	63006465 	0x63006465
80022408:	76746162 	jalx	89d18588 <end+0x9918588>
8002240c:	00706167 	0x706167
80022410:	65726566 	0x65726566
80022414:	2e630066 	sltiu	v1,s3,102
80022418:	696c652e 	0x696c652e
8002241c:	63006669 	0x63006669
80022420:	6c655f72 	0x6c655f72
80022424:	65616400 	0x65616400
80022428:	66696c65 	0x66696c65
8002242c:	5f777269 	0x5f777269
80022430:	74650066 	jalx	81940198 <end+0x1540198>
80022434:	696c655f 	0x696c655f
80022438:	636c6f73 	0x636c6f73
8002243c:	65006669 	0x65006669
80022440:	6c655f73 	0x6c655f73
80022444:	74617400 	jalx	8185d000 <end+0x145d000>
80022448:	70697065 	0x70697065
8002244c:	2e630070 	sltiu	v1,s3,112
80022450:	69706572 	0x69706572
80022454:	65616400 	0x65616400
80022458:	70697065 	0x70697065
8002245c:	77726974 	jalx	8dc9a5d0 <end+0xd89a5d0>
80022460:	65007069 	0x65007069
80022464:	7065636c 	0x7065636c
80022468:	6f736500 	0x6f736500
8002246c:	70697065 	0x70697065
80022470:	73746174 	0x73746174
80022474:	005f7069 	0x5f7069
80022478:	70656973 	0x70656973
8002247c:	636c6f73 	0x636c6f73
80022480:	65640066 	0x65640066
80022484:	73697063 	0x73697063
80022488:	2e630066 	sltiu	v1,s3,102
8002248c:	73697063 	0x73697063
80022490:	00636f6e 	0x636f6e
80022494:	736f6c65 	0x736f6c65
80022498:	2e630063 	sltiu	v1,s3,99
8002249c:	6f6e735f 	0x6f6e735f
800224a0:	72656164 	0x72656164
800224a4:	00636f6e 	0x636f6e
800224a8:	735f7772 	0x735f7772
800224ac:	69746500 	0x69746500
800224b0:	636f6e73 	0x636f6e73
800224b4:	5f636c6f 	0x5f636c6f
800224b8:	73650063 	0x73650063
800224bc:	6f6e735f 	0x6f6e735f
800224c0:	73746174 	0x73746174
800224c4:	00667072 	0x667072
800224c8:	696e7466 	0x696e7466
800224cc:	2e630075 	sltiu	v1,s3,117
800224d0:	7365725f 	0x7365725f
800224d4:	6f757432 	0x6f757432
800224d8:	73747269 	0x73747269
800224dc:	6e670069 	0x6e670069
800224e0:	70635f72 	0x70635f72
800224e4:	65637600 	0x65637600
800224e8:	6c705f50 	0x6c705f50
800224ec:	72696e74 	0x72696e74
800224f0:	00737472 	0x737472
800224f4:	63707900 	0x63707900
800224f8:	6e756d32 	0x6e756d32
800224fc:	6664005f 	0x6664005f
80022500:	70616e69 	0x70616e69
80022504:	63007072 	0x63007072
80022508:	696e7473 	0x696e7473
8002250c:	74720070 	jalx	81c801c0 <end+0x18801c0>
80022510:	72696e74 	0x72696e74
80022514:	66006200 	0x66006200
80022518:	6664326e 	0x6664326e
8002251c:	756d006e 	jalx	85b401b8 <end+0x57401b8>
80022520:	616d6573 	0x616d6573
80022524:	00646576 	0x646576
80022528:	70697065 	0x70697065
8002252c:	00667369 	0x667369
80022530:	70635f63 	0x70635f63
80022534:	6c6f7365 	0x6c6f7365
80022538:	00667369 	0x667369
8002253c:	70635f6d 	0x70635f6d
80022540:	6170005f 	0x6170005f
80022544:	65746578 	0x65746578
80022548:	74006664 	jalx	80019990 <binary_user_check_icode_start+0x29e0>
8002254c:	5f616c6c 	0x5f616c6c
80022550:	6f630073 	0x6f630073
80022554:	79736361 	0x79736361
80022558:	6c6c5f67 	0x6c6c5f67
8002255c:	6574656e 	0x6574656e
80022560:	76696400 	jalx	89a59000 <end+0x9659000>
80022564:	6d656d63 	0x6d656d63
80022568:	70790066 	0x70790066
8002256c:	73697063 	0x73697063
80022570:	5f73796e 	0x5f73796e
80022574:	63007379 	0x63007379
80022578:	7363616c 	0x7363616c
8002257c:	6c5f7365 	0x6c5f7365
80022580:	745f7472 	jalx	817dd1c8 <end+0x13dd1c8>
80022584:	61706672 	0x61706672
80022588:	616d6500 	0x616d6500
8002258c:	73797363 	0x73797363
80022590:	616c6c5f 	0x616c6c5f
80022594:	7365745f 	0x7365745f
80022598:	656e765f 	0x656e765f
8002259c:	73746174 	0x73746174
800225a0:	75730076 	jalx	85cc01d8 <end+0x58c01d8>
800225a4:	70640072 	0x70640072
800225a8:	656d6f76 	0x656d6f76
800225ac:	6500756d 	0x6500756d
800225b0:	61696e00 	0x61696e00
800225b4:	73797363 	0x73797363
800225b8:	616c6c5f 	0x616c6c5f
800225bc:	63676574 	0x63676574
800225c0:	6300656e 	0x6300656e
800225c4:	7673005f 	jalx	89cc017c <end+0x98c017c>
800225c8:	5f706766 	0x5f706766
800225cc:	61756c74 	0x61756c74
800225d0:	5f68616e 	0x5f68616e
800225d4:	646c6572 	0x646c6572
800225d8:	00507269 	0x507269
800225dc:	6e744e75 	0x6e744e75
800225e0:	6d006674 	0x6d006674
800225e4:	72756e63 	0x72756e63
800225e8:	61746500 	0x61746500
800225ec:	6d795f63 	0x6d795f63
800225f0:	616c0072 	0x616c0072
800225f4:	6561646e 	0x6561646e
800225f8:	00737973 	0x737973
800225fc:	63616c6c 	0x63616c6c
80022600:	5f796965 	0x5f796965
80022604:	6c640070 	0x6c640070
80022608:	72696e74 	0x72696e74
8002260c:	63686172 	0x63686172
80022610:	63006d69 	0x63006d69
80022614:	6b650073 	0x6b650073
80022618:	79736361 	0x79736361
8002261c:	6c6c5f73 	0x6c6c5f73
80022620:	65745f70 	0x65745f70
80022624:	67666175 	0x67666175
80022628:	6c745f68 	0x6c745f68
8002262c:	616e646c 	0x616e646c
80022630:	65720069 	0x65720069
80022634:	73636f6e 	0x73636f6e
80022638:	73007379 	0x73007379
8002263c:	7363616c 	0x7363616c
80022640:	6c5f656e 	0x6c5f656e
80022644:	765f6465 	jalx	897d9194 <end+0x93d9194>
80022648:	7374726f 	0x7374726f
8002264c:	79007069 	0x79007069
80022650:	70650066 	0x70650066
80022654:	64326461 	0x64326461
80022658:	74610066 	jalx	81840198 <end+0x1440198>
8002265c:	645f636c 	0x645f636c
80022660:	6f736500 	0x6f736500
80022664:	75736572 	jalx	85cd95c8 <end+0x58d95c8>
80022668:	5f6c705f 	0x5f6c705f
8002266c:	5072696e 	0x5072696e
80022670:	74007573 	jalx	8001d5cc <binary_user_check_icode_start+0x661c>
80022674:	65725f62 	0x65725f62
80022678:	636f7079 	0x636f7079
8002267c:	00777269 	0x777269
80022680:	74650066 	jalx	81940198 <end+0x1540198>
80022684:	73746174 	0x73746174
80022688:	00737973 	0x737973
8002268c:	63616c6c 	0x63616c6c
80022690:	5f6d656d 	0x5f6d656d
80022694:	5f616c6c 	0x5f616c6c
80022698:	6f630065 	0x6f630065
8002269c:	6e640074 	0x6e640074
800226a0:	616c6b00 	0x616c6b00
800226a4:	5f737461 	0x5f737461
800226a8:	72740066 	0x72740066
800226ac:	73697063 	0x73697063
800226b0:	5f646972 	0x5f646972
800226b4:	74790072 	jalx	81e401c8 <end+0x1a401c8>
800226b8:	65616400 	0x65616400
800226bc:	6465765f 	0x6465765f
800226c0:	6c6f6f6b 	0x6c6f6f6b
800226c4:	75700050 	jalx	85c00140 <end+0x5800140>
800226c8:	72696e74 	0x72696e74
800226cc:	53747269 	0x53747269
800226d0:	6e670073 	0x6e670073
800226d4:	796e6300 	0x796e6300
800226d8:	70697065 	0x70697065
800226dc:	6973636c 	0x6973636c
800226e0:	6f736564 	0x6f736564
800226e4:	00757365 	0x757365
800226e8:	725f627a 	0x725f627a
800226ec:	65726f00 	0x65726f00
800226f0:	66736970 	0x66736970
800226f4:	635f6f70 	0x635f6f70
800226f8:	656e0072 	0x656e0072
800226fc:	6561645f 	0x6561645f
80022700:	6d617000 	0x6d617000
80022704:	6970635f 	0x6970635f
80022708:	73656e64 	0x73656e64
8002270c:	00666f72 	0x666f72
80022710:	6b005f75 	0x6b005f75
80022714:	7365725f 	0x7365725f
80022718:	70616e69 	0x70616e69
8002271c:	63006d73 	0x63006d73
80022720:	79736361 	0x79736361
80022724:	6c6c005f 	0x6c6c005f
80022728:	74657874 	jalx	8195e1d0 <end+0x155e1d0>
8002272c:	00737973 	0x737973
80022730:	63616c6c 	0x63616c6c
80022734:	5f697063 	0x5f697063
80022738:	5f726563 	0x5f726563
8002273c:	76005f5f 	jalx	88017d7c <end+0x7c17d7c>
80022740:	6273735f 	0x6273735f
80022744:	73746172 	0x73746172
80022748:	74005072 	jalx	800141c8 <pgdir_walk+0x18>
8002274c:	696e7443 	0x696e7443
80022750:	68617200 	0x68617200
80022754:	64657666 	0x64657666
80022758:	696c6500 	0x696c6500
8002275c:	77726974 	jalx	8dc9a5d0 <end+0xd89a5d0>
80022760:	65660073 	0x65660073
80022764:	65656b00 	0x65656b00
80022768:	5f5f6173 	0x5f5f6173
8002276c:	6d5f7067 	0x6d5f7067
80022770:	6661756c 	0x6661756c
80022774:	745f6861 	jalx	817da184 <end+0x13da184>
80022778:	6e646c65 	0x6e646c65
8002277c:	72006465 	0x72006465
80022780:	76636f6e 	jalx	898dbdb8 <end+0x94dbdb8>
80022784:	73007374 	0x73007374
80022788:	72636d70 	0x72636d70
8002278c:	00647570 	0x647570
80022790:	00737973 	0x737973
80022794:	63616c6c 	0x63616c6c
80022798:	5f707574 	0x5f707574
8002279c:	63686172 	0x63686172
800227a0:	006c6962 	0x6c6962
800227a4:	6d61696e 	0x6d61696e
800227a8:	0073666f 	0x73666f
800227ac:	726b0066 	0x726b0066
800227b0:	73697063 	0x73697063
800227b4:	5f72656d 	0x5f72656d
800227b8:	6f766500 	0x6f766500
800227bc:	6a61636b 	0x6a61636b
800227c0:	00667369 	0x667369
800227c4:	70636275 	0x70636275
800227c8:	66007573 	0x66007573
800227cc:	65725f50 	0x65725f50
800227d0:	72696e74 	0x72696e74
800227d4:	43686172 	c0	0x1686172
800227d8:	00656e76 	0x656e76
800227dc:	00666474 	0x666474
800227e0:	61620066 	0x61620066
800227e4:	73697063 	0x73697063
800227e8:	5f736574 	0x5f736574
800227ec:	5f73697a 	0x5f73697a
800227f0:	65006675 	0x65006675
800227f4:	6e630063 	0x6e630063
800227f8:	6c6f7365 	0x6c6f7365
800227fc:	5f616c6c 	0x5f616c6c
80022800:	00767074 	0x767074
80022804:	00737461 	0x737461
80022808:	74005f65 	jalx	80017d94 <binary_user_check_icode_start+0xde4>
8002280c:	64617461 	0x64617461
80022810:	0068616c 	0x68616c
80022814:	74007573 	jalx	8001d5cc <binary_user_check_icode_start+0x661c>
80022818:	65725f50 	0x65725f50
8002281c:	72696e74 	0x72696e74
80022820:	53747269 	0x53747269
80022824:	6e670065 	0x6e670065
80022828:	78697400 	0x78697400
8002282c:	61007365 	0x61007365
80022830:	745f7067 	jalx	817dc19c <end+0x13dc19c>
80022834:	6661756c 	0x6661756c
80022838:	745f6861 	jalx	817da184 <end+0x13da184>
8002283c:	6e646c65 	0x6e646c65
80022840:	72007379 	0x72007379
80022844:	7363616c 	0x7363616c
80022848:	6c5f7061 	0x6c5f7061
8002284c:	6e696300 	0x6e696300
80022850:	75736572 	jalx	85cd95c8 <end+0x58d95c8>
80022854:	5f507269 	0x5f507269
80022858:	6e744e75 	0x6e744e75
8002285c:	6d007374 	0x6d007374
80022860:	726c656e 	0x726c656e
80022864:	006f7065 	0x6f7065
80022868:	6e007379 	0x6e007379
8002286c:	7363616c 	0x7363616c
80022870:	6c5f6d65 	0x6c5f6d65
80022874:	6d5f756e 	0x6d5f756e
80022878:	6d617000 	0x6d617000
8002287c:	73797363 	0x73797363
80022880:	616c6c5f 	0x616c6c5f
80022884:	6d656d5f 	0x6d656d5f
80022888:	6d617000 	0x6d617000
8002288c:	73747263 	0x73747263
80022890:	68720073 	0x68720073
80022894:	79736361 	0x79736361
80022898:	6c6c5f69 	0x6c6c5f69
8002289c:	70635f63 	0x70635f63
800228a0:	616e5f73 	0x616e5f73
800228a4:	656e6400 	0x656e6400
800228a8:	66645f6c 	0x66645f6c
800228ac:	6f6f6b75 	0x6f6f6b75
800228b0:	70006677 	0x70006677
800228b4:	72697465 	0x72697465
800228b8:	66006f70 	0x66006f70
800228bc:	656e636f 	0x656e636f
800228c0:	6e730070 	0x6e730070
800228c4:	61676572 	0x61676572
800228c8:	65660070 	0x65660070
800228cc:	61676573 	0x61676573
800228d0:	00636c6f 	0x636c6f
800228d4:	73650000 	0x73650000

800228d8 <binary_user_check_icode_size>:
800228d8:	0000b927 	0xb927
800228dc:	00000000 	nop

800228e0 <binary_user_A_start>:
800228e0:	7f454c46 	0x7f454c46
800228e4:	01020100 	0x1020100
	...
800228f0:	00020008 	0x20008
800228f4:	00000001 	0x1
800228f8:	004000b0 	0x4000b0
800228fc:	00000034 	0x34
80022900:	00000fb0 	0xfb0
80022904:	50001001 	0x50001001
80022908:	00340020 	add	zero,at,s4
8002290c:	00030028 	0x30028
80022910:	000d000a 	0xd000a
80022914:	70000000 	0x70000000
80022918:	00000094 	0x94
8002291c:	00400094 	0x400094
80022920:	00400094 	0x400094
80022924:	00000018 	mult	zero,zero
80022928:	00000018 	mult	zero,zero
8002292c:	00000004 	sllv	zero,zero,zero
80022930:	00000004 	sllv	zero,zero,zero
80022934:	00000001 	0x1
80022938:	00000094 	0x94
8002293c:	00400094 	0x400094
80022940:	00400094 	0x400094
80022944:	00000cb2 	0xcb2
80022948:	00000cb2 	0xcb2
8002294c:	00000005 	0x5
80022950:	00000010 	mfhi	zero
80022954:	00000001 	0x1
80022958:	00000d50 	0xd50
8002295c:	10000000 	b	80022960 <binary_user_A_start+0x80>
80022960:	10000000 	b	80022964 <binary_user_A_start+0x84>
80022964:	00000000 	nop
80022968:	00000000 	nop
8002296c:	00000006 	srlv	zero,zero,zero
80022970:	00000010 	mfhi	zero
80022974:	a0010030 	sb	at,48(zero)
	...
80022988:	10007ff0 	b	8004294c <KERNEL_STACK+0x1d6dc>
8002298c:	00000000 	nop
80022990:	27bdffe8 	addiu	sp,sp,-24
80022994:	afbf0014 	sw	ra,20(sp)
80022998:	afb00010 	sw	s0,16(sp)
8002299c:	3c100040 	lui	s0,0x40
800229a0:	26040b10 	addiu	a0,s0,2832
800229a4:	0c100299 	jal	80400a64 <end+0xa64>
800229a8:	24050001 	li	a1,1
800229ac:	1000fffd 	b	800229a4 <binary_user_A_start+0xc4>
800229b0:	26040b10 	addiu	a0,s0,2832
	...
800229c0:	308400ff 	andi	a0,a0,0xff
800229c4:	3c029000 	lui	v0,0x9000
800229c8:	a0440000 	sb	a0,0(v0)
800229cc:	03e00008 	jr	ra
800229d0:	00000000 	nop
800229d4:	3c029000 	lui	v0,0x9000
800229d8:	34420010 	ori	v0,v0,0x10
800229dc:	a0400000 	sb	zero,0(v0)
800229e0:	03e00008 	jr	ra
800229e4:	00000000 	nop
800229e8:	27bdffe8 	addiu	sp,sp,-24
800229ec:	afbf0014 	sw	ra,20(sp)
800229f0:	afb00010 	sw	s0,16(sp)
800229f4:	00808021 	move	s0,a0
800229f8:	80840000 	lb	a0,0(a0)
800229fc:	10800006 	beqz	a0,80022a18 <binary_user_A_start+0x138>
80022a00:	8fbf0014 	lw	ra,20(sp)
80022a04:	0c100038 	jal	804000e0 <end+0xe0>
80022a08:	26100001 	addiu	s0,s0,1
80022a0c:	82040000 	lb	a0,0(s0)
80022a10:	1480fffc 	bnez	a0,80022a04 <binary_user_A_start+0x124>
80022a14:	8fbf0014 	lw	ra,20(sp)
80022a18:	8fb00010 	lw	s0,16(sp)
80022a1c:	03e00008 	jr	ra
80022a20:	27bd0018 	addiu	sp,sp,24
	...
80022a30:	27bdff78 	addiu	sp,sp,-136
80022a34:	afbf0084 	sw	ra,132(sp)
80022a38:	afb40080 	sw	s4,128(sp)
80022a3c:	afb3007c 	sw	s3,124(sp)
80022a40:	afb20078 	sw	s2,120(sp)
80022a44:	afb10074 	sw	s1,116(sp)
80022a48:	afb00070 	sw	s0,112(sp)
80022a4c:	00809821 	move	s3,a0
80022a50:	00a0a021 	move	s4,a1
80022a54:	00c02821 	move	a1,a2
80022a58:	00e09021 	move	s2,a3
80022a5c:	80a30000 	lb	v1,0(a1)
80022a60:	1060000c 	beqz	v1,80022a94 <binary_user_A_start+0x1b4>
80022a64:	00a08021 	move	s0,a1
80022a68:	10000148 	b	80022f8c <binary_user_A_start+0x6ac>
80022a6c:	24020025 	li	v0,37
80022a70:	00a08021 	move	s0,a1
80022a74:	26100001 	addiu	s0,s0,1
80022a78:	82020000 	lb	v0,0(s0)
80022a7c:	10400006 	beqz	v0,80022a98 <binary_user_A_start+0x1b8>
80022a80:	02053023 	subu	a2,s0,a1
80022a84:	10430005 	beq	v0,v1,80022a9c <binary_user_A_start+0x1bc>
80022a88:	2cc20051 	sltiu	v0,a2,81
80022a8c:	1000fffa 	b	80022a78 <binary_user_A_start+0x198>
80022a90:	26100001 	addiu	s0,s0,1
80022a94:	02053023 	subu	a2,s0,a1
80022a98:	2cc20051 	sltiu	v0,a2,81
80022a9c:	14400007 	bnez	v0,80022abc <binary_user_A_start+0x1dc>
80022aa0:	02802021 	move	a0,s4
80022aa4:	3c050040 	lui	a1,0x40
80022aa8:	24a50b20 	addiu	a1,a1,2848
80022aac:	0260f809 	jalr	s3
80022ab0:	24060018 	li	a2,24
80022ab4:	1000ffff 	b	80022ab4 <binary_user_A_start+0x1d4>
80022ab8:	00000000 	nop
80022abc:	0260f809 	jalr	s3
80022ac0:	02802021 	move	a0,s4
80022ac4:	82020000 	lb	v0,0(s0)
80022ac8:	10400123 	beqz	v0,80022f58 <binary_user_A_start+0x678>
80022acc:	2402006c 	li	v0,108
80022ad0:	82030001 	lb	v1,1(s0)
80022ad4:	10620003 	beq	v1,v0,80022ae4 <binary_user_A_start+0x204>
80022ad8:	26110001 	addiu	s1,s0,1
80022adc:	10000003 	b	80022aec <binary_user_A_start+0x20c>
80022ae0:	00002021 	move	a0,zero
80022ae4:	26110002 	addiu	s1,s0,2
80022ae8:	24040001 	li	a0,1
80022aec:	82230000 	lb	v1,0(s1)
80022af0:	2402002d 	li	v0,45
80022af4:	14620004 	bne	v1,v0,80022b08 <binary_user_A_start+0x228>
80022af8:	00003821 	move	a3,zero
80022afc:	26310001 	addiu	s1,s1,1
80022b00:	24070001 	li	a3,1
80022b04:	82230000 	lb	v1,0(s1)
80022b08:	24020030 	li	v0,48
80022b0c:	14620003 	bne	v1,v0,80022b1c <binary_user_A_start+0x23c>
80022b10:	24090020 	li	t1,32
80022b14:	26310001 	addiu	s1,s1,1
80022b18:	24090030 	li	t1,48
80022b1c:	82260000 	lb	a2,0(s1)
80022b20:	24c2ffd0 	addiu	v0,a2,-48
80022b24:	304200ff 	andi	v0,v0,0xff
80022b28:	2c42000a 	sltiu	v0,v0,10
80022b2c:	1040000d 	beqz	v0,80022b64 <binary_user_A_start+0x284>
80022b30:	00004021 	move	t0,zero
80022b34:	00081040 	sll	v0,t0,0x1
80022b38:	000818c0 	sll	v1,t0,0x3
80022b3c:	00431021 	addu	v0,v0,v1
80022b40:	00461021 	addu	v0,v0,a2
80022b44:	2448ffd0 	addiu	t0,v0,-48
80022b48:	26310001 	addiu	s1,s1,1
80022b4c:	82260000 	lb	a2,0(s1)
80022b50:	24c2ffd0 	addiu	v0,a2,-48
80022b54:	304200ff 	andi	v0,v0,0xff
80022b58:	2c42000a 	sltiu	v0,v0,10
80022b5c:	1440fff6 	bnez	v0,80022b38 <binary_user_A_start+0x258>
80022b60:	00081040 	sll	v0,t0,0x1
80022b64:	82230000 	lb	v1,0(s1)
80022b68:	2402002e 	li	v0,46
80022b6c:	14620011 	bne	v1,v0,80022bb4 <binary_user_A_start+0x2d4>
80022b70:	2c620079 	sltiu	v0,v1,121
80022b74:	26310001 	addiu	s1,s1,1
80022b78:	92220000 	lbu	v0,0(s1)
80022b7c:	2442ffd0 	addiu	v0,v0,-48
80022b80:	304200ff 	andi	v0,v0,0xff
80022b84:	2c42000a 	sltiu	v0,v0,10
80022b88:	10400008 	beqz	v0,80022bac <binary_user_A_start+0x2cc>
80022b8c:	00000000 	nop
80022b90:	26310001 	addiu	s1,s1,1
80022b94:	92220000 	lbu	v0,0(s1)
80022b98:	2442ffd0 	addiu	v0,v0,-48
80022b9c:	304200ff 	andi	v0,v0,0xff
80022ba0:	2c42000a 	sltiu	v0,v0,10
80022ba4:	1440fffa 	bnez	v0,80022b90 <binary_user_A_start+0x2b0>
80022ba8:	00000000 	nop
80022bac:	82230000 	lb	v1,0(s1)
80022bb0:	2c620079 	sltiu	v0,v1,121
80022bb4:	104000e2 	beqz	v0,80022f40 <binary_user_A_start+0x660>
80022bb8:	00031080 	sll	v0,v1,0x2
80022bbc:	3c030040 	lui	v1,0x40
80022bc0:	24630b40 	addiu	v1,v1,2880
80022bc4:	00431021 	addu	v0,v0,v1
80022bc8:	8c420000 	lw	v0,0(v0)
80022bcc:	00400008 	jr	v0
80022bd0:	00000000 	nop
80022bd4:	10800004 	beqz	a0,80022be8 <binary_user_A_start+0x308>
80022bd8:	00000000 	nop
80022bdc:	8e450000 	lw	a1,0(s2)
80022be0:	10000003 	b	80022bf0 <binary_user_A_start+0x310>
80022be4:	26520004 	addiu	s2,s2,4
80022be8:	8e450000 	lw	a1,0(s2)
80022bec:	26520004 	addiu	s2,s2,4
80022bf0:	afa80010 	sw	t0,16(sp)
80022bf4:	afa70014 	sw	a3,20(sp)
80022bf8:	afa90018 	sw	t1,24(sp)
80022bfc:	afa0001c 	sw	zero,28(sp)
80022c00:	27a40020 	addiu	a0,sp,32
80022c04:	24060002 	li	a2,2
80022c08:	0c100211 	jal	80400844 <end+0x844>
80022c0c:	00003821 	move	a3,zero
80022c10:	00403021 	move	a2,v0
80022c14:	2c420051 	sltiu	v0,v0,81
80022c18:	14400007 	bnez	v0,80022c38 <binary_user_A_start+0x358>
80022c1c:	02802021 	move	a0,s4
80022c20:	3c050040 	lui	a1,0x40
80022c24:	24a50b20 	addiu	a1,a1,2848
80022c28:	0260f809 	jalr	s3
80022c2c:	24060018 	li	a2,24
80022c30:	1000ffff 	b	80022c30 <binary_user_A_start+0x350>
80022c34:	00000000 	nop
80022c38:	0260f809 	jalr	s3
80022c3c:	27a50020 	addiu	a1,sp,32
80022c40:	1000ff86 	b	80022a5c <binary_user_A_start+0x17c>
80022c44:	26250001 	addiu	a1,s1,1
80022c48:	10800004 	beqz	a0,80022c5c <binary_user_A_start+0x37c>
80022c4c:	00000000 	nop
80022c50:	8e450000 	lw	a1,0(s2)
80022c54:	10000003 	b	80022c64 <binary_user_A_start+0x384>
80022c58:	26520004 	addiu	s2,s2,4
80022c5c:	8e450000 	lw	a1,0(s2)
80022c60:	26520004 	addiu	s2,s2,4
80022c64:	04a10003 	bgez	a1,80022c74 <binary_user_A_start+0x394>
80022c68:	00001021 	move	v0,zero
80022c6c:	00052823 	negu	a1,a1
80022c70:	24020001 	li	v0,1
80022c74:	afa80010 	sw	t0,16(sp)
80022c78:	afa70014 	sw	a3,20(sp)
80022c7c:	afa90018 	sw	t1,24(sp)
80022c80:	afa0001c 	sw	zero,28(sp)
80022c84:	27a40020 	addiu	a0,sp,32
80022c88:	2406000a 	li	a2,10
80022c8c:	0c100211 	jal	80400844 <end+0x844>
80022c90:	00403821 	move	a3,v0
80022c94:	00403021 	move	a2,v0
80022c98:	2c420051 	sltiu	v0,v0,81
80022c9c:	14400007 	bnez	v0,80022cbc <binary_user_A_start+0x3dc>
80022ca0:	02802021 	move	a0,s4
80022ca4:	3c050040 	lui	a1,0x40
80022ca8:	24a50b20 	addiu	a1,a1,2848
80022cac:	0260f809 	jalr	s3
80022cb0:	24060018 	li	a2,24
80022cb4:	1000ffff 	b	80022cb4 <binary_user_A_start+0x3d4>
80022cb8:	00000000 	nop
80022cbc:	0260f809 	jalr	s3
80022cc0:	27a50020 	addiu	a1,sp,32
80022cc4:	1000ff65 	b	80022a5c <binary_user_A_start+0x17c>
80022cc8:	26250001 	addiu	a1,s1,1
80022ccc:	10800004 	beqz	a0,80022ce0 <binary_user_A_start+0x400>
80022cd0:	00000000 	nop
80022cd4:	8e450000 	lw	a1,0(s2)
80022cd8:	10000003 	b	80022ce8 <binary_user_A_start+0x408>
80022cdc:	26520004 	addiu	s2,s2,4
80022ce0:	8e450000 	lw	a1,0(s2)
80022ce4:	26520004 	addiu	s2,s2,4
80022ce8:	afa80010 	sw	t0,16(sp)
80022cec:	afa70014 	sw	a3,20(sp)
80022cf0:	afa90018 	sw	t1,24(sp)
80022cf4:	afa0001c 	sw	zero,28(sp)
80022cf8:	27a40020 	addiu	a0,sp,32
80022cfc:	24060008 	li	a2,8
80022d00:	0c100211 	jal	80400844 <end+0x844>
80022d04:	00003821 	move	a3,zero
80022d08:	00403021 	move	a2,v0
80022d0c:	2c420051 	sltiu	v0,v0,81
80022d10:	14400007 	bnez	v0,80022d30 <binary_user_A_start+0x450>
80022d14:	02802021 	move	a0,s4
80022d18:	3c050040 	lui	a1,0x40
80022d1c:	24a50b20 	addiu	a1,a1,2848
80022d20:	0260f809 	jalr	s3
80022d24:	24060018 	li	a2,24
80022d28:	1000ffff 	b	80022d28 <binary_user_A_start+0x448>
80022d2c:	00000000 	nop
80022d30:	0260f809 	jalr	s3
80022d34:	27a50020 	addiu	a1,sp,32
80022d38:	1000ff48 	b	80022a5c <binary_user_A_start+0x17c>
80022d3c:	26250001 	addiu	a1,s1,1
80022d40:	10800004 	beqz	a0,80022d54 <binary_user_A_start+0x474>
80022d44:	00000000 	nop
80022d48:	8e450000 	lw	a1,0(s2)
80022d4c:	10000003 	b	80022d5c <binary_user_A_start+0x47c>
80022d50:	26520004 	addiu	s2,s2,4
80022d54:	8e450000 	lw	a1,0(s2)
80022d58:	26520004 	addiu	s2,s2,4
80022d5c:	afa80010 	sw	t0,16(sp)
80022d60:	afa70014 	sw	a3,20(sp)
80022d64:	afa90018 	sw	t1,24(sp)
80022d68:	afa0001c 	sw	zero,28(sp)
80022d6c:	27a40020 	addiu	a0,sp,32
80022d70:	2406000a 	li	a2,10
80022d74:	0c100211 	jal	80400844 <end+0x844>
80022d78:	00003821 	move	a3,zero
80022d7c:	00403021 	move	a2,v0
80022d80:	2c420051 	sltiu	v0,v0,81
80022d84:	14400007 	bnez	v0,80022da4 <binary_user_A_start+0x4c4>
80022d88:	02802021 	move	a0,s4
80022d8c:	3c050040 	lui	a1,0x40
80022d90:	24a50b20 	addiu	a1,a1,2848
80022d94:	0260f809 	jalr	s3
80022d98:	24060018 	li	a2,24
80022d9c:	1000ffff 	b	80022d9c <binary_user_A_start+0x4bc>
80022da0:	00000000 	nop
80022da4:	0260f809 	jalr	s3
80022da8:	27a50020 	addiu	a1,sp,32
80022dac:	1000ff2b 	b	80022a5c <binary_user_A_start+0x17c>
80022db0:	26250001 	addiu	a1,s1,1
80022db4:	10800004 	beqz	a0,80022dc8 <binary_user_A_start+0x4e8>
80022db8:	00000000 	nop
80022dbc:	8e450000 	lw	a1,0(s2)
80022dc0:	10000003 	b	80022dd0 <binary_user_A_start+0x4f0>
80022dc4:	26520004 	addiu	s2,s2,4
80022dc8:	8e450000 	lw	a1,0(s2)
80022dcc:	26520004 	addiu	s2,s2,4
80022dd0:	afa80010 	sw	t0,16(sp)
80022dd4:	afa70014 	sw	a3,20(sp)
80022dd8:	afa90018 	sw	t1,24(sp)
80022ddc:	afa0001c 	sw	zero,28(sp)
80022de0:	27a40020 	addiu	a0,sp,32
80022de4:	24060010 	li	a2,16
80022de8:	0c100211 	jal	80400844 <end+0x844>
80022dec:	00003821 	move	a3,zero
80022df0:	00403021 	move	a2,v0
80022df4:	2c420051 	sltiu	v0,v0,81
80022df8:	14400007 	bnez	v0,80022e18 <binary_user_A_start+0x538>
80022dfc:	02802021 	move	a0,s4
80022e00:	3c050040 	lui	a1,0x40
80022e04:	24a50b20 	addiu	a1,a1,2848
80022e08:	0260f809 	jalr	s3
80022e0c:	24060018 	li	a2,24
80022e10:	1000ffff 	b	80022e10 <binary_user_A_start+0x530>
80022e14:	00000000 	nop
80022e18:	0260f809 	jalr	s3
80022e1c:	27a50020 	addiu	a1,sp,32
80022e20:	1000ff0e 	b	80022a5c <binary_user_A_start+0x17c>
80022e24:	26250001 	addiu	a1,s1,1
80022e28:	10800004 	beqz	a0,80022e3c <binary_user_A_start+0x55c>
80022e2c:	00000000 	nop
80022e30:	8e450000 	lw	a1,0(s2)
80022e34:	10000003 	b	80022e44 <binary_user_A_start+0x564>
80022e38:	26520004 	addiu	s2,s2,4
80022e3c:	8e450000 	lw	a1,0(s2)
80022e40:	26520004 	addiu	s2,s2,4
80022e44:	afa80010 	sw	t0,16(sp)
80022e48:	afa70014 	sw	a3,20(sp)
80022e4c:	afa90018 	sw	t1,24(sp)
80022e50:	24020001 	li	v0,1
80022e54:	afa2001c 	sw	v0,28(sp)
80022e58:	27a40020 	addiu	a0,sp,32
80022e5c:	24060010 	li	a2,16
80022e60:	0c100211 	jal	80400844 <end+0x844>
80022e64:	00003821 	move	a3,zero
80022e68:	00403021 	move	a2,v0
80022e6c:	2c420051 	sltiu	v0,v0,81
80022e70:	14400007 	bnez	v0,80022e90 <binary_user_A_start+0x5b0>
80022e74:	02802021 	move	a0,s4
80022e78:	3c050040 	lui	a1,0x40
80022e7c:	24a50b20 	addiu	a1,a1,2848
80022e80:	0260f809 	jalr	s3
80022e84:	24060018 	li	a2,24
80022e88:	1000ffff 	b	80022e88 <binary_user_A_start+0x5a8>
80022e8c:	00000000 	nop
80022e90:	0260f809 	jalr	s3
80022e94:	27a50020 	addiu	a1,sp,32
80022e98:	1000fef0 	b	80022a5c <binary_user_A_start+0x17c>
80022e9c:	26250001 	addiu	a1,s1,1
80022ea0:	26500004 	addiu	s0,s2,4
80022ea4:	27a40020 	addiu	a0,sp,32
80022ea8:	82450003 	lb	a1,3(s2)
80022eac:	0c1001af 	jal	804006bc <end+0x6bc>
80022eb0:	01003021 	move	a2,t0
80022eb4:	00403021 	move	a2,v0
80022eb8:	2c420051 	sltiu	v0,v0,81
80022ebc:	14400007 	bnez	v0,80022edc <binary_user_A_start+0x5fc>
80022ec0:	02802021 	move	a0,s4
80022ec4:	3c050040 	lui	a1,0x40
80022ec8:	24a50b20 	addiu	a1,a1,2848
80022ecc:	0260f809 	jalr	s3
80022ed0:	24060018 	li	a2,24
80022ed4:	1000ffff 	b	80022ed4 <binary_user_A_start+0x5f4>
80022ed8:	00000000 	nop
80022edc:	0260f809 	jalr	s3
80022ee0:	27a50020 	addiu	a1,sp,32
80022ee4:	1000001a 	b	80022f50 <binary_user_A_start+0x670>
80022ee8:	02009021 	move	s2,s0
80022eec:	26500004 	addiu	s0,s2,4
80022ef0:	27a40020 	addiu	a0,sp,32
80022ef4:	8e450000 	lw	a1,0(s2)
80022ef8:	0c1001cf 	jal	8040073c <end+0x73c>
80022efc:	01003021 	move	a2,t0
80022f00:	00403021 	move	a2,v0
80022f04:	2c420051 	sltiu	v0,v0,81
80022f08:	14400007 	bnez	v0,80022f28 <binary_user_A_start+0x648>
80022f0c:	02802021 	move	a0,s4
80022f10:	3c050040 	lui	a1,0x40
80022f14:	24a50b20 	addiu	a1,a1,2848
80022f18:	0260f809 	jalr	s3
80022f1c:	24060018 	li	a2,24
80022f20:	1000ffff 	b	80022f20 <binary_user_A_start+0x640>
80022f24:	00000000 	nop
80022f28:	0260f809 	jalr	s3
80022f2c:	27a50020 	addiu	a1,sp,32
80022f30:	10000007 	b	80022f50 <binary_user_A_start+0x670>
80022f34:	02009021 	move	s2,s0
80022f38:	10000005 	b	80022f50 <binary_user_A_start+0x670>
80022f3c:	2631ffff 	addiu	s1,s1,-1
80022f40:	02802021 	move	a0,s4
80022f44:	02202821 	move	a1,s1
80022f48:	0260f809 	jalr	s3
80022f4c:	24060001 	li	a2,1
80022f50:	1000fec2 	b	80022a5c <binary_user_A_start+0x17c>
80022f54:	26250001 	addiu	a1,s1,1
80022f58:	02802021 	move	a0,s4
80022f5c:	3c050040 	lui	a1,0x40
80022f60:	24a50b3c 	addiu	a1,a1,2876
80022f64:	0260f809 	jalr	s3
80022f68:	24060001 	li	a2,1
80022f6c:	8fbf0084 	lw	ra,132(sp)
80022f70:	8fb40080 	lw	s4,128(sp)
80022f74:	8fb3007c 	lw	s3,124(sp)
80022f78:	8fb20078 	lw	s2,120(sp)
80022f7c:	8fb10074 	lw	s1,116(sp)
80022f80:	8fb00070 	lw	s0,112(sp)
80022f84:	03e00008 	jr	ra
80022f88:	27bd0088 	addiu	sp,sp,136
80022f8c:	1462feb8 	bne	v1,v0,80022a70 <binary_user_A_start+0x190>
80022f90:	24030025 	li	v1,37
80022f94:	1000febf 	b	80022a94 <binary_user_A_start+0x1b4>
80022f98:	00a08021 	move	s0,a1
80022f9c:	00052e00 	sll	a1,a1,0x18
80022fa0:	00052e03 	sra	a1,a1,0x18
80022fa4:	0006182a 	slt	v1,zero,a2
80022fa8:	24020001 	li	v0,1
80022fac:	10e00015 	beqz	a3,80023004 <binary_user_A_start+0x724>
80022fb0:	0043300a 	0x43300a
80022fb4:	28c20002 	slti	v0,a2,2
80022fb8:	14400016 	bnez	v0,80023014 <binary_user_A_start+0x734>
80022fbc:	a0850000 	sb	a1,0(a0)
80022fc0:	24030001 	li	v1,1
80022fc4:	24050020 	li	a1,32
80022fc8:	00831021 	addu	v0,a0,v1
80022fcc:	24630001 	addiu	v1,v1,1
80022fd0:	10c30010 	beq	a2,v1,80023014 <binary_user_A_start+0x734>
80022fd4:	a0450000 	sb	a1,0(v0)
80022fd8:	1000fffc 	b	80022fcc <binary_user_A_start+0x6ec>
80022fdc:	00831021 	addu	v0,a0,v1
80022fe0:	00001821 	move	v1,zero
80022fe4:	24080020 	li	t0,32
80022fe8:	00641021 	addu	v0,v1,a0
80022fec:	24630001 	addiu	v1,v1,1
80022ff0:	1467fffd 	bne	v1,a3,80022fe8 <binary_user_A_start+0x708>
80022ff4:	a0480000 	sb	t0,0(v0)
80022ff8:	00c41021 	addu	v0,a2,a0
80022ffc:	10000005 	b	80023014 <binary_user_A_start+0x734>
80023000:	a045ffff 	sb	a1,-1(v0)
80023004:	24c7ffff 	addiu	a3,a2,-1
80023008:	1ce0fff5 	bgtz	a3,80022fe0 <binary_user_A_start+0x700>
8002300c:	00c41021 	addu	v0,a2,a0
80023010:	a045ffff 	sb	a1,-1(v0)
80023014:	03e00008 	jr	ra
80023018:	00c01021 	move	v0,a2
8002301c:	80a20000 	lb	v0,0(a1)
80023020:	14400003 	bnez	v0,80023030 <binary_user_A_start+0x750>
80023024:	24a30001 	addiu	v1,a1,1
80023028:	10000006 	b	80023044 <binary_user_A_start+0x764>
8002302c:	00004021 	move	t0,zero
80023030:	00004021 	move	t0,zero
80023034:	25080001 	addiu	t0,t0,1
80023038:	80620000 	lb	v0,0(v1)
8002303c:	1440fffd 	bnez	v0,80023034 <binary_user_A_start+0x754>
80023040:	24630001 	addiu	v1,v1,1
80023044:	00c8102a 	slt	v0,a2,t0
80023048:	14e00030 	bnez	a3,8002310c <binary_user_A_start+0x82c>
8002304c:	0102300b 	0x102300b
80023050:	1000002a 	b	800230fc <binary_user_A_start+0x81c>
80023054:	00c83823 	subu	a3,a2,t0
80023058:	00003821 	move	a3,zero
8002305c:	00871021 	addu	v0,a0,a3
80023060:	00a71821 	addu	v1,a1,a3
80023064:	90630000 	lbu	v1,0(v1)
80023068:	24e70001 	addiu	a3,a3,1
8002306c:	1507fffb 	bne	t0,a3,8002305c <binary_user_A_start+0x77c>
80023070:	a0430000 	sb	v1,0(v0)
80023074:	0106102a 	slt	v0,t0,a2
80023078:	10400028 	beqz	v0,8002311c <binary_user_A_start+0x83c>
8002307c:	00001821 	move	v1,zero
80023080:	00881021 	addu	v0,a0,t0
80023084:	24050020 	li	a1,32
80023088:	00c82023 	subu	a0,a2,t0
8002308c:	a0450000 	sb	a1,0(v0)
80023090:	24630001 	addiu	v1,v1,1
80023094:	10640021 	beq	v1,a0,8002311c <binary_user_A_start+0x83c>
80023098:	24420001 	addiu	v0,v0,1
8002309c:	1000fffc 	b	80023090 <binary_user_A_start+0x7b0>
800230a0:	a0450000 	sb	a1,0(v0)
800230a4:	00001821 	move	v1,zero
800230a8:	24090020 	li	t1,32
800230ac:	00831021 	addu	v0,a0,v1
800230b0:	24630001 	addiu	v1,v1,1
800230b4:	1467fffd 	bne	v1,a3,800230ac <binary_user_A_start+0x7cc>
800230b8:	a0490000 	sb	t1,0(v0)
800230bc:	00e6102a 	slt	v0,a3,a2
800230c0:	10400016 	beqz	v0,8002311c <binary_user_A_start+0x83c>
800230c4:	00872021 	addu	a0,a0,a3
800230c8:	00e61023 	subu	v0,a3,a2
800230cc:	01021021 	addu	v0,t0,v0
800230d0:	00a21821 	addu	v1,a1,v0
800230d4:	00002821 	move	a1,zero
800230d8:	00c73823 	subu	a3,a2,a3
800230dc:	90620000 	lbu	v0,0(v1)
800230e0:	a0820000 	sb	v0,0(a0)
800230e4:	24a50001 	addiu	a1,a1,1
800230e8:	24630001 	addiu	v1,v1,1
800230ec:	10a7000b 	beq	a1,a3,8002311c <binary_user_A_start+0x83c>
800230f0:	24840001 	addiu	a0,a0,1
800230f4:	1000fffa 	b	800230e0 <binary_user_A_start+0x800>
800230f8:	90620000 	lbu	v0,0(v1)
800230fc:	1ce0ffe9 	bgtz	a3,800230a4 <binary_user_A_start+0x7c4>
80023100:	00e6102a 	slt	v0,a3,a2
80023104:	1000ffee 	b	800230c0 <binary_user_A_start+0x7e0>
80023108:	00000000 	nop
8002310c:	1d00ffd2 	bgtz	t0,80023058 <binary_user_A_start+0x778>
80023110:	0106102a 	slt	v0,t0,a2
80023114:	1000ffd8 	b	80023078 <binary_user_A_start+0x798>
80023118:	00000000 	nop
8002311c:	03e00008 	jr	ra
80023120:	00c01021 	move	v0,a2
80023124:	8fa90010 	lw	t1,16(sp)
80023128:	8fac0014 	lw	t4,20(sp)
8002312c:	8fab001c 	lw	t3,28(sp)
80023130:	83aa001b 	lb	t2,27(sp)
80023134:	00804021 	move	t0,a0
80023138:	00a6001b 	divu	zero,a1,a2
8002313c:	00c001f4 	0xc001f4
80023140:	00001810 	mfhi	v1
80023144:	2862000a 	slti	v0,v1,10
80023148:	10400004 	beqz	v0,8002315c <binary_user_A_start+0x87c>
8002314c:	24620030 	addiu	v0,v1,48
80023150:	a1020000 	sb	v0,0(t0)
80023154:	1000000b 	b	80023184 <binary_user_A_start+0x8a4>
80023158:	25080001 	addiu	t0,t0,1
8002315c:	11600005 	beqz	t3,80023174 <binary_user_A_start+0x894>
80023160:	24620057 	addiu	v0,v1,87
80023164:	24620037 	addiu	v0,v1,55
80023168:	a1020000 	sb	v0,0(t0)
8002316c:	10000003 	b	8002317c <binary_user_A_start+0x89c>
80023170:	25080001 	addiu	t0,t0,1
80023174:	a1020000 	sb	v0,0(t0)
80023178:	25080001 	addiu	t0,t0,1
8002317c:	00a6001b 	divu	zero,a1,a2
80023180:	00c001f4 	0xc001f4
80023184:	00002812 	mflo	a1
80023188:	14a0ffeb 	bnez	a1,80023138 <binary_user_A_start+0x858>
8002318c:	00000000 	nop
80023190:	10e00005 	beqz	a3,800231a8 <binary_user_A_start+0x8c8>
80023194:	01043023 	subu	a2,t0,a0
80023198:	2402002d 	li	v0,45
8002319c:	a1020000 	sb	v0,0(t0)
800231a0:	25080001 	addiu	t0,t0,1
800231a4:	01043023 	subu	a2,t0,a0
800231a8:	0126102a 	slt	v0,t1,a2
800231ac:	00c2480b 	0xc2480b
800231b0:	24020020 	li	v0,32
800231b4:	10e00032 	beqz	a3,80023280 <binary_user_A_start+0x9a0>
800231b8:	004c500b 	0x4c500b
800231bc:	15800031 	bnez	t4,80023284 <binary_user_A_start+0x9a4>
800231c0:	00c9102a 	slt	v0,a2,t1
800231c4:	24020030 	li	v0,48
800231c8:	1542002e 	bne	t2,v0,80023284 <binary_user_A_start+0x9a4>
800231cc:	00c9102a 	slt	v0,a2,t1
800231d0:	24c6ffff 	addiu	a2,a2,-1
800231d4:	2528ffff 	addiu	t0,t1,-1
800231d8:	00c8102a 	slt	v0,a2,t0
800231dc:	10400008 	beqz	v0,80023200 <binary_user_A_start+0x920>
800231e0:	01061023 	subu	v0,t0,a2
800231e4:	00861821 	addu	v1,a0,a2
800231e8:	00002821 	move	a1,zero
800231ec:	24070030 	li	a3,48
800231f0:	a0670000 	sb	a3,0(v1)
800231f4:	24a50001 	addiu	a1,a1,1
800231f8:	14a2fffd 	bne	a1,v0,800231f0 <binary_user_A_start+0x910>
800231fc:	24630001 	addiu	v1,v1,1
80023200:	00891821 	addu	v1,a0,t1
80023204:	2402002d 	li	v0,45
80023208:	1000000d 	b	80023240 <binary_user_A_start+0x960>
8002320c:	a062ffff 	sb	v0,-1(v1)
80023210:	a0aa0000 	sb	t2,0(a1)
80023214:	24630001 	addiu	v1,v1,1
80023218:	01261023 	subu	v0,t1,a2
8002321c:	1462fffc 	bne	v1,v0,80023210 <binary_user_A_start+0x930>
80023220:	24a50001 	addiu	a1,a1,1
80023224:	11800006 	beqz	t4,80023240 <binary_user_A_start+0x960>
80023228:	00000000 	nop
8002322c:	24c6ffff 	addiu	a2,a2,-1
80023230:	1cc00005 	bgtz	a2,80023248 <binary_user_A_start+0x968>
80023234:	00003821 	move	a3,zero
80023238:	03e00008 	jr	ra
8002323c:	01201021 	move	v0,t1
80023240:	1000fffb 	b	80023230 <binary_user_A_start+0x950>
80023244:	2526ffff 	addiu	a2,t1,-1
80023248:	00802821 	move	a1,a0
8002324c:	00862021 	addu	a0,a0,a2
80023250:	80a20000 	lb	v0,0(a1)
80023254:	90830000 	lbu	v1,0(a0)
80023258:	a0a30000 	sb	v1,0(a1)
8002325c:	a0820000 	sb	v0,0(a0)
80023260:	24e70001 	addiu	a3,a3,1
80023264:	24c6ffff 	addiu	a2,a2,-1
80023268:	24a50001 	addiu	a1,a1,1
8002326c:	00e6102a 	slt	v0,a3,a2
80023270:	10400009 	beqz	v0,80023298 <binary_user_A_start+0x9b8>
80023274:	2484ffff 	addiu	a0,a0,-1
80023278:	1000fff6 	b	80023254 <binary_user_A_start+0x974>
8002327c:	80a20000 	lb	v0,0(a1)
80023280:	00c9102a 	slt	v0,a2,t1
80023284:	1040ffe7 	beqz	v0,80023224 <binary_user_A_start+0x944>
80023288:	00000000 	nop
8002328c:	00862821 	addu	a1,a0,a2
80023290:	1000ffdf 	b	80023210 <binary_user_A_start+0x930>
80023294:	00001821 	move	v1,zero
80023298:	01201021 	move	v0,t1
8002329c:	03e00008 	jr	ra
800232a0:	00000000 	nop
	...
800232b0:	27bdffe0 	addiu	sp,sp,-32
800232b4:	afbf001c 	sw	ra,28(sp)
800232b8:	afb20018 	sw	s2,24(sp)
800232bc:	afb10014 	sw	s1,20(sp)
800232c0:	afb00010 	sw	s0,16(sp)
800232c4:	24020001 	li	v0,1
800232c8:	14c20013 	bne	a2,v0,80023318 <binary_user_A_start+0xa38>
800232cc:	00c09021 	move	s2,a2
800232d0:	80a20000 	lb	v0,0(a1)
800232d4:	14400013 	bnez	v0,80023324 <binary_user_A_start+0xa44>
800232d8:	00a08021 	move	s0,a1
800232dc:	10000014 	b	80023330 <binary_user_A_start+0xa50>
800232e0:	8fbf001c 	lw	ra,28(sp)
800232e4:	0c100038 	jal	804000e0 <end+0xe0>
800232e8:	82040000 	lb	a0,0(s0)
800232ec:	82030000 	lb	v1,0(s0)
800232f0:	2402000a 	li	v0,10
800232f4:	14620003 	bne	v1,v0,80023304 <binary_user_A_start+0xa24>
800232f8:	00000000 	nop
800232fc:	0c100038 	jal	804000e0 <end+0xe0>
80023300:	2404000a 	li	a0,10
80023304:	26310001 	addiu	s1,s1,1
80023308:	12510008 	beq	s2,s1,8002332c <binary_user_A_start+0xa4c>
8002330c:	26100001 	addiu	s0,s0,1
80023310:	1000fff4 	b	800232e4 <binary_user_A_start+0xa04>
80023314:	00000000 	nop
80023318:	18c00005 	blez	a2,80023330 <binary_user_A_start+0xa50>
8002331c:	8fbf001c 	lw	ra,28(sp)
80023320:	00a08021 	move	s0,a1
80023324:	1000ffef 	b	800232e4 <binary_user_A_start+0xa04>
80023328:	00008821 	move	s1,zero
8002332c:	8fbf001c 	lw	ra,28(sp)
80023330:	8fb20018 	lw	s2,24(sp)
80023334:	8fb10014 	lw	s1,20(sp)
80023338:	8fb00010 	lw	s0,16(sp)
8002333c:	03e00008 	jr	ra
80023340:	27bd0020 	addiu	sp,sp,32
80023344:	27bdffe0 	addiu	sp,sp,-32
80023348:	afbf0018 	sw	ra,24(sp)
8002334c:	afa50024 	sw	a1,36(sp)
80023350:	afa60028 	sw	a2,40(sp)
80023354:	afa7002c 	sw	a3,44(sp)
80023358:	00803021 	move	a2,a0
8002335c:	27a70024 	addiu	a3,sp,36
80023360:	afa70010 	sw	a3,16(sp)
80023364:	3c040040 	lui	a0,0x40
80023368:	248409d0 	addiu	a0,a0,2512
8002336c:	0c100054 	jal	80400150 <end+0x150>
80023370:	00002821 	move	a1,zero
80023374:	8fbf0018 	lw	ra,24(sp)
80023378:	03e00008 	jr	ra
8002337c:	27bd0020 	addiu	sp,sp,32
80023380:	27bdffe0 	addiu	sp,sp,-32
80023384:	afbf001c 	sw	ra,28(sp)
80023388:	afb00018 	sw	s0,24(sp)
8002338c:	00801821 	move	v1,a0
80023390:	00a04021 	move	t0,a1
80023394:	afa7002c 	sw	a3,44(sp)
80023398:	00c08021 	move	s0,a2
8002339c:	27a2002c 	addiu	v0,sp,44
800233a0:	afa20010 	sw	v0,16(sp)
800233a4:	3c040040 	lui	a0,0x40
800233a8:	24840d30 	addiu	a0,a0,3376
800233ac:	00602821 	move	a1,v1
800233b0:	0c100299 	jal	80400a64 <end+0xa64>
800233b4:	01003021 	move	a2,t0
800233b8:	3c040040 	lui	a0,0x40
800233bc:	248409d0 	addiu	a0,a0,2512
800233c0:	00002821 	move	a1,zero
800233c4:	02003021 	move	a2,s0
800233c8:	0c100054 	jal	80400150 <end+0x150>
800233cc:	8fa70010 	lw	a3,16(sp)
800233d0:	3c040040 	lui	a0,0x40
800233d4:	0c100299 	jal	80400a64 <end+0xa64>
800233d8:	24840d44 	addiu	a0,a0,3396
800233dc:	1000ffff 	b	800233dc <binary_user_A_start+0xafc>
800233e0:	00000000 	nop
	...
800233f0:	25642000 	addiu	a0,t3,8192
	...
80023400:	66617461 	0x66617461
80023404:	6c206572 	0x6c206572
80023408:	726f7220 	0x726f7220
8002340c:	696e206c 	0x696e206c
80023410:	705f5072 	0x705f5072
80023414:	696e7421 	0x696e7421
	...
80023420:	00400658 	0x400658
80023424:	00400660 	0x400660
80023428:	00400660 	0x400660
8002342c:	00400660 	0x400660
80023430:	00400660 	0x400660
80023434:	00400660 	0x400660
80023438:	00400660 	0x400660
8002343c:	00400660 	0x400660
80023440:	00400660 	0x400660
80023444:	00400660 	0x400660
80023448:	00400660 	0x400660
8002344c:	00400660 	0x400660
80023450:	00400660 	0x400660
80023454:	00400660 	0x400660
80023458:	00400660 	0x400660
8002345c:	00400660 	0x400660
80023460:	00400660 	0x400660
80023464:	00400660 	0x400660
80023468:	00400660 	0x400660
8002346c:	00400660 	0x400660
80023470:	00400660 	0x400660
80023474:	00400660 	0x400660
80023478:	00400660 	0x400660
8002347c:	00400660 	0x400660
80023480:	00400660 	0x400660
80023484:	00400660 	0x400660
80023488:	00400660 	0x400660
8002348c:	00400660 	0x400660
80023490:	00400660 	0x400660
80023494:	00400660 	0x400660
80023498:	00400660 	0x400660
8002349c:	00400660 	0x400660
800234a0:	00400660 	0x400660
800234a4:	00400660 	0x400660
800234a8:	00400660 	0x400660
800234ac:	00400660 	0x400660
800234b0:	00400660 	0x400660
800234b4:	00400660 	0x400660
800234b8:	00400660 	0x400660
800234bc:	00400660 	0x400660
800234c0:	00400660 	0x400660
800234c4:	00400660 	0x400660
800234c8:	00400660 	0x400660
800234cc:	00400660 	0x400660
800234d0:	00400660 	0x400660
800234d4:	00400660 	0x400660
800234d8:	00400660 	0x400660
800234dc:	00400660 	0x400660
800234e0:	00400660 	0x400660
800234e4:	00400660 	0x400660
800234e8:	00400660 	0x400660
800234ec:	00400660 	0x400660
800234f0:	00400660 	0x400660
800234f4:	00400660 	0x400660
800234f8:	00400660 	0x400660
800234fc:	00400660 	0x400660
80023500:	00400660 	0x400660
80023504:	00400660 	0x400660
80023508:	00400660 	0x400660
8002350c:	00400660 	0x400660
80023510:	00400660 	0x400660
80023514:	00400660 	0x400660
80023518:	00400660 	0x400660
8002351c:	00400660 	0x400660
80023520:	00400660 	0x400660
80023524:	00400660 	0x400660
80023528:	00400660 	0x400660
8002352c:	00400660 	0x400660
80023530:	00400368 	0x400368
80023534:	00400660 	0x400660
80023538:	00400660 	0x400660
8002353c:	00400660 	0x400660
80023540:	00400660 	0x400660
80023544:	00400660 	0x400660
80023548:	00400660 	0x400660
8002354c:	00400660 	0x400660
80023550:	00400660 	0x400660
80023554:	00400660 	0x400660
80023558:	00400660 	0x400660
8002355c:	004003ec 	0x4003ec
80023560:	00400660 	0x400660
80023564:	00400660 	0x400660
80023568:	00400660 	0x400660
8002356c:	00400660 	0x400660
80023570:	00400660 	0x400660
80023574:	00400460 	0x400460
80023578:	00400660 	0x400660
8002357c:	00400660 	0x400660
80023580:	00400548 	0x400548
80023584:	00400660 	0x400660
80023588:	00400660 	0x400660
8002358c:	00400660 	0x400660
80023590:	00400660 	0x400660
80023594:	00400660 	0x400660
80023598:	00400660 	0x400660
8002359c:	00400660 	0x400660
800235a0:	00400660 	0x400660
800235a4:	00400660 	0x400660
800235a8:	004002f4 	0x4002f4
800235ac:	004005c0 	0x4005c0
800235b0:	00400368 	0x400368
800235b4:	00400660 	0x400660
800235b8:	00400660 	0x400660
800235bc:	00400660 	0x400660
800235c0:	00400660 	0x400660
800235c4:	00400660 	0x400660
800235c8:	00400660 	0x400660
800235cc:	00400660 	0x400660
800235d0:	00400660 	0x400660
800235d4:	00400660 	0x400660
800235d8:	00400660 	0x400660
800235dc:	004003ec 	0x4003ec
800235e0:	00400660 	0x400660
800235e4:	00400660 	0x400660
800235e8:	00400660 	0x400660
800235ec:	0040060c 	syscall	0x10018
800235f0:	00400660 	0x400660
800235f4:	00400460 	0x400460
800235f8:	00400660 	0x400660
800235fc:	00400660 	0x400660
80023600:	004004d4 	0x4004d4
	...
80023610:	70616e69 	0x70616e69
80023614:	63206174 	0x63206174
80023618:	2025733a 	addi	a1,at,29498
8002361c:	25643a20 	addiu	a0,t3,14880
80023620:	00000000 	nop
80023624:	0a000000 	j	88000000 <end+0x7c00000>
80023628:	00000000 	nop
8002362c:	00000000 	nop
80023630:	00474343 	0x474343
80023634:	3a202847 	xori	zero,s1,0x2847
80023638:	4e552920 	c3	0x552920
8002363c:	342e302e 	ori	t6,at,0x302e
80023640:	30202844 	andi	zero,at,0x2844
80023644:	454e5820 	0x454e5820
80023648:	454c444b 	0x454c444b
8002364c:	20342e31 	addi	s4,at,11825
80023650:	20342e30 	addi	s4,at,11824
80023654:	2e302900 	sltiu	s0,s1,10496
80023658:	00474343 	0x474343
8002365c:	3a202847 	xori	zero,s1,0x2847
80023660:	4e552920 	c3	0x552920
80023664:	342e302e 	ori	t6,at,0x302e
80023668:	30202844 	andi	zero,at,0x2844
8002366c:	454e5820 	0x454e5820
80023670:	454c444b 	0x454c444b
80023674:	20342e31 	addi	s4,at,11825
80023678:	20342e30 	addi	s4,at,11824
8002367c:	2e302900 	sltiu	s0,s1,10496
80023680:	00474343 	0x474343
80023684:	3a202847 	xori	zero,s1,0x2847
80023688:	4e552920 	c3	0x552920
8002368c:	342e302e 	ori	t6,at,0x302e
80023690:	30202844 	andi	zero,at,0x2844
80023694:	454e5820 	0x454e5820
80023698:	454c444b 	0x454c444b
8002369c:	20342e31 	addi	s4,at,11825
800236a0:	20342e30 	addi	s4,at,11824
800236a4:	2e302900 	sltiu	s0,s1,10496
800236a8:	00474343 	0x474343
800236ac:	3a202847 	xori	zero,s1,0x2847
800236b0:	4e552920 	c3	0x552920
800236b4:	342e302e 	ori	t6,at,0x302e
800236b8:	30202844 	andi	zero,at,0x2844
800236bc:	454e5820 	0x454e5820
800236c0:	454c444b 	0x454c444b
800236c4:	20342e31 	addi	s4,at,11825
800236c8:	20342e30 	addi	s4,at,11824
800236cc:	2e302900 	sltiu	s0,s1,10496
800236d0:	004000b0 	0x4000b0
800236d4:	80010000 	lb	at,0(zero)
800236d8:	fffffffc 	0xfffffffc
	...
800236e4:	00000018 	mult	zero,zero
800236e8:	0000001d 	0x1d
800236ec:	0000001f 	0x1f
800236f0:	004000e0 	0x4000e0
	...
80023708:	0000001d 	0x1d
8002370c:	0000001f 	0x1f
80023710:	004000f4 	0x4000f4
	...
80023728:	0000001d 	0x1d
8002372c:	0000001f 	0x1f
80023730:	00400108 	0x400108
80023734:	80010000 	lb	at,0(zero)
80023738:	fffffffc 	0xfffffffc
	...
80023744:	00000018 	mult	zero,zero
80023748:	0000001d 	0x1d
8002374c:	0000001f 	0x1f
80023750:	00400150 	0x400150
80023754:	801f0000 	lb	ra,0(zero)
80023758:	fffffffc 	0xfffffffc
	...
80023764:	00000088 	0x88
80023768:	0000001d 	0x1d
8002376c:	0000001f 	0x1f
80023770:	004006bc 	0x4006bc
	...
80023788:	0000001d 	0x1d
8002378c:	0000001f 	0x1f
80023790:	0040073c 	0x40073c
	...
800237a8:	0000001d 	0x1d
800237ac:	0000001f 	0x1f
800237b0:	00400844 	0x400844
	...
800237c8:	0000001d 	0x1d
800237cc:	0000001f 	0x1f
800237d0:	004009d0 	0x4009d0
800237d4:	80070000 	lb	a3,0(zero)
800237d8:	fffffffc 	0xfffffffc
	...
800237e4:	00000020 	add	zero,zero,zero
800237e8:	0000001d 	0x1d
800237ec:	0000001f 	0x1f
800237f0:	00400a64 	0x400a64
800237f4:	80000000 	lb	zero,0(zero)
800237f8:	fffffff8 	0xfffffff8
	...
80023804:	00000020 	add	zero,zero,zero
80023808:	0000001d 	0x1d
8002380c:	0000001f 	0x1f
80023810:	00400aa0 	0x400aa0
80023814:	80010000 	lb	at,0(zero)
80023818:	fffffffc 	0xfffffffc
	...
80023824:	00000020 	add	zero,zero,zero
80023828:	0000001d 	0x1d
8002382c:	0000001f 	0x1f
80023830:	002e7379 	0x2e7379
80023834:	6d746162 	0x6d746162
80023838:	002e7374 	0x2e7374
8002383c:	72746162 	0x72746162
80023840:	002e7368 	0x2e7368
80023844:	73747274 	0x73747274
80023848:	6162002e 	0x6162002e
8002384c:	72656769 	0x72656769
80023850:	6e666f00 	0x6e666f00
80023854:	2e746578 	sltiu	s4,s3,25976
80023858:	74002e72 	jalx	8000b9c8 <except_vec3+0xb948>
8002385c:	6f646174 	0x6f646174
80023860:	61002e64 	0x61002e64
80023864:	61746100 	0x61746100
80023868:	2e736273 	sltiu	s3,s3,25203
8002386c:	73002e62 	0x73002e62
80023870:	7373002e 	0x7373002e
80023874:	636f6d6d 	0x636f6d6d
80023878:	656e7400 	0x656e7400
8002387c:	2e706472 	sltiu	s0,s3,25714
80023880:	002e6d64 	0x2e6d64
80023884:	65627567 	0x65627567
80023888:	2e616269 	sltiu	at,s3,25193
8002388c:	33320000 	andi	s2,t9,0x0
	...
800238b8:	0000001b 	divu	zero,zero,zero
800238bc:	70000006 	0x70000006
800238c0:	00000002 	srl	zero,zero,0x0
800238c4:	00400094 	0x400094
800238c8:	00000094 	0x94
800238cc:	00000018 	mult	zero,zero
	...
800238d8:	00000004 	sllv	zero,zero,zero
800238dc:	00000018 	mult	zero,zero
800238e0:	00000024 	and	zero,zero,zero
800238e4:	00000001 	0x1
800238e8:	00000006 	srlv	zero,zero,zero
800238ec:	004000b0 	0x4000b0
800238f0:	000000b0 	0xb0
800238f4:	00000a60 	0xa60
	...
80023900:	00000010 	mfhi	zero
80023904:	00000000 	nop
80023908:	0000002a 	slt	zero,zero,zero
8002390c:	00000001 	0x1
80023910:	00000002 	srl	zero,zero,0x0
80023914:	00400b10 	0x400b10
80023918:	00000b10 	0xb10
8002391c:	00000236 	0x236
	...
80023928:	00000010 	mfhi	zero
8002392c:	00000000 	nop
80023930:	00000032 	0x32
80023934:	00000001 	0x1
80023938:	00000003 	sra	zero,zero,0x0
8002393c:	10000000 	b	80023940 <binary_user_A_start+0x1060>
80023940:	00000d50 	0xd50
	...
80023950:	00000010 	mfhi	zero
80023954:	00000000 	nop
80023958:	00000038 	0x38
8002395c:	00000008 	jr	zero
80023960:	10000003 	b	80023970 <binary_user_A_start+0x1090>
80023964:	10000000 	b	80023968 <binary_user_A_start+0x1088>
80023968:	00000d50 	0xd50
	...
80023978:	00000001 	0x1
8002397c:	00000000 	nop
80023980:	0000003e 	0x3e
80023984:	00000008 	jr	zero
80023988:	00000003 	sra	zero,zero,0x0
8002398c:	10000000 	b	80023990 <binary_user_A_start+0x10b0>
80023990:	00000d50 	0xd50
	...
800239a0:	00000010 	mfhi	zero
800239a4:	00000000 	nop
800239a8:	00000043 	sra	zero,zero,0x1
800239ac:	00000001 	0x1
	...
800239b8:	00000d50 	0xd50
800239bc:	000000a0 	0xa0
	...
800239c8:	00000001 	0x1
800239cc:	00000000 	nop
800239d0:	0000004c 	syscall	0x1
800239d4:	00000001 	0x1
	...
800239e0:	00000df0 	0xdf0
800239e4:	00000160 	0x160
	...
800239f0:	00000004 	sllv	zero,zero,zero
800239f4:	00000000 	nop
800239f8:	00000051 	0x51
800239fc:	00000001 	0x1
	...
80023a08:	00000f50 	0xf50
	...
80023a18:	00000001 	0x1
80023a1c:	00000000 	nop
80023a20:	00000011 	mthi	zero
80023a24:	00000003 	sra	zero,zero,0x0
	...
80023a30:	00000f50 	0xf50
80023a34:	0000005f 	0x5f
	...
80023a40:	00000001 	0x1
80023a44:	00000000 	nop
80023a48:	00000001 	0x1
80023a4c:	00000002 	srl	zero,zero,0x0
	...
80023a58:	000011b8 	0x11b8
80023a5c:	00000240 	sll	zero,zero,0x9
80023a60:	0000000c 	syscall
80023a64:	00000013 	mtlo	zero
80023a68:	00000004 	sllv	zero,zero,zero
80023a6c:	00000010 	mfhi	zero
80023a70:	00000009 	jalr	zero,zero
80023a74:	00000003 	sra	zero,zero,0x0
	...
80023a80:	000013f8 	0x13f8
80023a84:	000000ba 	0xba
	...
80023a90:	00000001 	0x1
	...
80023aac:	00400094 	0x400094
80023ab0:	00000000 	nop
80023ab4:	03000001 	0x3000001
80023ab8:	00000000 	nop
80023abc:	004000b0 	0x4000b0
80023ac0:	00000000 	nop
80023ac4:	03000002 	0x3000002
80023ac8:	00000000 	nop
80023acc:	00400b10 	0x400b10
80023ad0:	00000000 	nop
80023ad4:	03000003 	0x3000003
80023ad8:	00000000 	nop
80023adc:	10000000 	b	80023ae0 <binary_user_A_start+0x1200>
80023ae0:	00000000 	nop
80023ae4:	03000004 	sllv	zero,zero,t8
80023ae8:	00000000 	nop
80023aec:	10000000 	b	80023af0 <binary_user_A_start+0x1210>
80023af0:	00000000 	nop
80023af4:	03000005 	0x3000005
80023af8:	00000000 	nop
80023afc:	10000000 	b	80023b00 <binary_user_A_start+0x1220>
80023b00:	00000000 	nop
80023b04:	03000006 	srlv	zero,zero,t8
	...
80023b14:	03000007 	srav	zero,zero,t8
	...
80023b24:	03000008 	jr	t8
80023b28:	00000000 	nop
	...
80023b34:	03000009 	jalr	zero,t8
80023b38:	00000000 	nop
	...
80023b44:	0300000a 	0x300000a
	...
80023b54:	0300000b 	0x300000b
	...
80023b64:	0300000c 	syscall	0xc0000
80023b68:	00000001 	0x1
	...
80023b74:	0400fff1 	bltz	zero,80023b3c <binary_user_A_start+0x125c>
80023b78:	00000006 	srlv	zero,zero,zero
	...
80023b84:	0400fff1 	bltz	zero,80023b4c <binary_user_A_start+0x126c>
80023b88:	00000010 	mfhi	zero
	...
80023b94:	0400fff1 	bltz	zero,80023b5c <binary_user_A_start+0x127c>
80023b98:	00000018 	mult	zero,zero
80023b9c:	00400b20 	0x400b20
80023ba0:	00000019 	multu	zero,zero
80023ba4:	01000003 	0x1000003
80023ba8:	00000024 	and	zero,zero,zero
	...
80023bb4:	0400fff1 	bltz	zero,80023b7c <binary_user_A_start+0x129c>
80023bb8:	0000002d 	0x2d
80023bbc:	004009d0 	0x4009d0
80023bc0:	00000094 	0x94
80023bc4:	02000002 	0x2000002
80023bc8:	00000036 	0x36
80023bcc:	00400150 	0x400150
80023bd0:	0000056c 	0x56c
80023bd4:	12000002 	beqz	s0,80023be0 <binary_user_A_start+0x1300>
80023bd8:	0000003f 	0x3f
80023bdc:	00400aa0 	0x400aa0
80023be0:	00000064 	0x64
80023be4:	12000002 	beqz	s0,80023bf0 <binary_user_A_start+0x1310>
80023be8:	00000046 	0x46
80023bec:	00400108 	0x400108
80023bf0:	0000003c 	0x3c
80023bf4:	12000002 	beqz	s0,80023c00 <binary_user_A_start+0x1320>
80023bf8:	0000004f 	0x4f
80023bfc:	00400a64 	0x400a64
80023c00:	0000003c 	0x3c
80023c04:	12000002 	beqz	s0,80023c10 <binary_user_A_start+0x1330>
80023c08:	00000056 	0x56
80023c0c:	10000000 	b	80023c10 <binary_user_A_start+0x1330>
80023c10:	00000000 	nop
80023c14:	10000004 	b	80023c28 <binary_user_A_start+0x1348>
80023c18:	0000005d 	0x5d
80023c1c:	10007ff0 	b	80043be0 <KERNEL_STACK+0x1e970>
80023c20:	00000000 	nop
80023c24:	1000fff1 	b	80023bec <binary_user_A_start+0x130c>
80023c28:	00000061 	0x61
80023c2c:	00400844 	0x400844
80023c30:	00000180 	sll	zero,zero,0x6
80023c34:	12000002 	beqz	s0,80023c40 <binary_user_A_start+0x1360>
80023c38:	0000006a 	0x6a
80023c3c:	004000e0 	0x4000e0
80023c40:	00000014 	0x14
80023c44:	12000002 	beqz	s0,80023c50 <binary_user_A_start+0x1370>
80023c48:	00000075 	0x75
80023c4c:	004000b0 	0x4000b0
80023c50:	00000000 	nop
80023c54:	10000002 	b	80023c60 <binary_user_A_start+0x1380>
80023c58:	0000007c 	0x7c
80023c5c:	0040073c 	0x40073c
80023c60:	00000108 	0x108
80023c64:	12000002 	beqz	s0,80023c70 <binary_user_A_start+0x1390>
80023c68:	00000088 	0x88
80023c6c:	10000000 	b	80023c70 <binary_user_A_start+0x1390>
80023c70:	00000000 	nop
80023c74:	1000fff1 	b	80023c3c <binary_user_A_start+0x135c>
80023c78:	00000094 	0x94
80023c7c:	004000b0 	0x4000b0
80023c80:	00000024 	and	zero,zero,zero
80023c84:	12000002 	beqz	s0,80023c90 <binary_user_A_start+0x13b0>
80023c88:	00000099 	0x99
80023c8c:	004006bc 	0x4006bc
80023c90:	00000080 	sll	zero,zero,0x2
80023c94:	12000002 	beqz	s0,80023ca0 <binary_user_A_start+0x13c0>
80023c98:	000000a3 	0xa3
80023c9c:	10000000 	b	80023ca0 <binary_user_A_start+0x13c0>
80023ca0:	00000000 	nop
80023ca4:	1000fff1 	b	80023c6c <binary_user_A_start+0x138c>
80023ca8:	000000aa 	0xaa
80023cac:	10000000 	b	80023cb0 <binary_user_A_start+0x13d0>
80023cb0:	00000000 	nop
80023cb4:	1000fff1 	b	80023c7c <binary_user_A_start+0x139c>
80023cb8:	000000af 	0xaf
80023cbc:	004000f4 	0x4000f4
80023cc0:	00000014 	0x14
80023cc4:	12000002 	beqz	s0,80023cd0 <binary_user_A_start+0x13f0>
80023cc8:	000000b4 	0xb4
80023ccc:	10000000 	b	80023cd0 <binary_user_A_start+0x13f0>
80023cd0:	00000000 	nop
80023cd4:	1000fff1 	b	80023c9c <binary_user_A_start+0x13bc>
80023cd8:	00696e2e 	0x696e2e
80023cdc:	6300636f 	0x6300636f
80023ce0:	6e736f6c 	0x6e736f6c
80023ce4:	652e6300 	0x652e6300
80023ce8:	7072696e 	0x7072696e
80023cec:	742e6300 	jalx	80b98c00 <end+0x798c00>
80023cf0:	74686546 	jalx	81a19518 <end+0x1619518>
80023cf4:	6174616c 	0x6174616c
80023cf8:	4d736700 	0x4d736700
80023cfc:	7072696e 	0x7072696e
80023d00:	74662e63 	jalx	8198b98c <end+0x158b98c>
80023d04:	006d796f 	0x6d796f
80023d08:	75747075 	jalx	85d1c1d4 <end+0x591c1d4>
80023d0c:	74006c70 	jalx	8001b1c0 <binary_user_check_icode_start+0x4210>
80023d10:	5f507269 	0x5f507269
80023d14:	6e74005f 	0x6e74005f
80023d18:	70616e69 	0x70616e69
80023d1c:	63007072 	0x63007072
80023d20:	696e7473 	0x696e7473
80023d24:	74720070 	jalx	81c801c0 <end+0x18801c0>
80023d28:	72696e74 	0x72696e74
80023d2c:	66005f66 	0x66005f66
80023d30:	64617461 	0x64617461
80023d34:	005f6770 	0x5f6770
80023d38:	00507269 	0x507269
80023d3c:	6e744e75 	0x6e744e75
80023d40:	6d007072 	0x6d007072
80023d44:	696e7463 	0x696e7463
80023d48:	68617263 	0x68617263
80023d4c:	005f6674 	0x5f6674
80023d50:	65787400 	0x65787400
80023d54:	5072696e 	0x5072696e
80023d58:	74537472 	jalx	814dd1c8 <end+0x10dd1c8>
80023d5c:	696e6700 	0x696e6700
80023d60:	5f5f6273 	0x5f5f6273
80023d64:	735f7374 	0x735f7374
80023d68:	61727400 	0x61727400
80023d6c:	6d61696e 	0x6d61696e
80023d70:	00507269 	0x507269
80023d74:	6e744368 	0x6e744368
80023d78:	6172005f 	0x6172005f
80023d7c:	65646174 	0x65646174
80023d80:	61005f65 	0x61005f65
80023d84:	6e640068 	0x6e640068
80023d88:	616c7400 	0x616c7400
80023d8c:	5f666273 	0x5f666273
80023d90:	73000000 	0x73000000

80023d94 <binary_user_A_size>:
80023d94:	000014b2 	0x14b2
	...

80023da0 <binary_user_B_start>:
80023da0:	7f454c46 	0x7f454c46
80023da4:	01020100 	0x1020100
	...
80023db0:	00020008 	0x20008
80023db4:	00000001 	0x1
80023db8:	004000b0 	0x4000b0
80023dbc:	00000034 	0x34
80023dc0:	00000fb0 	0xfb0
80023dc4:	50001001 	0x50001001
80023dc8:	00340020 	add	zero,at,s4
80023dcc:	00030028 	0x30028
80023dd0:	000d000a 	0xd000a
80023dd4:	70000000 	0x70000000
80023dd8:	00000094 	0x94
80023ddc:	00400094 	0x400094
80023de0:	00400094 	0x400094
80023de4:	00000018 	mult	zero,zero
80023de8:	00000018 	mult	zero,zero
80023dec:	00000004 	sllv	zero,zero,zero
80023df0:	00000004 	sllv	zero,zero,zero
80023df4:	00000001 	0x1
80023df8:	00000094 	0x94
80023dfc:	00400094 	0x400094
80023e00:	00400094 	0x400094
80023e04:	00000cb2 	0xcb2
80023e08:	00000cb2 	0xcb2
80023e0c:	00000005 	0x5
80023e10:	00000010 	mfhi	zero
80023e14:	00000001 	0x1
80023e18:	00000d50 	0xd50
80023e1c:	10000000 	b	80023e20 <binary_user_B_start+0x80>
80023e20:	10000000 	b	80023e24 <binary_user_B_start+0x84>
80023e24:	00000000 	nop
80023e28:	00000000 	nop
80023e2c:	00000006 	srlv	zero,zero,zero
80023e30:	00000010 	mfhi	zero
80023e34:	a0010030 	sb	at,48(zero)
	...
80023e48:	10007ff0 	b	80043e0c <KERNEL_STACK+0x1eb9c>
80023e4c:	00000000 	nop
80023e50:	27bdffe8 	addiu	sp,sp,-24
80023e54:	afbf0014 	sw	ra,20(sp)
80023e58:	afb00010 	sw	s0,16(sp)
80023e5c:	3c100040 	lui	s0,0x40
80023e60:	26040b10 	addiu	a0,s0,2832
80023e64:	0c100299 	jal	80400a64 <end+0xa64>
80023e68:	24050002 	li	a1,2
80023e6c:	1000fffd 	b	80023e64 <binary_user_B_start+0xc4>
80023e70:	26040b10 	addiu	a0,s0,2832
	...
80023e80:	308400ff 	andi	a0,a0,0xff
80023e84:	3c029000 	lui	v0,0x9000
80023e88:	a0440000 	sb	a0,0(v0)
80023e8c:	03e00008 	jr	ra
80023e90:	00000000 	nop
80023e94:	3c029000 	lui	v0,0x9000
80023e98:	34420010 	ori	v0,v0,0x10
80023e9c:	a0400000 	sb	zero,0(v0)
80023ea0:	03e00008 	jr	ra
80023ea4:	00000000 	nop
80023ea8:	27bdffe8 	addiu	sp,sp,-24
80023eac:	afbf0014 	sw	ra,20(sp)
80023eb0:	afb00010 	sw	s0,16(sp)
80023eb4:	00808021 	move	s0,a0
80023eb8:	80840000 	lb	a0,0(a0)
80023ebc:	10800006 	beqz	a0,80023ed8 <binary_user_B_start+0x138>
80023ec0:	8fbf0014 	lw	ra,20(sp)
80023ec4:	0c100038 	jal	804000e0 <end+0xe0>
80023ec8:	26100001 	addiu	s0,s0,1
80023ecc:	82040000 	lb	a0,0(s0)
80023ed0:	1480fffc 	bnez	a0,80023ec4 <binary_user_B_start+0x124>
80023ed4:	8fbf0014 	lw	ra,20(sp)
80023ed8:	8fb00010 	lw	s0,16(sp)
80023edc:	03e00008 	jr	ra
80023ee0:	27bd0018 	addiu	sp,sp,24
	...
80023ef0:	27bdff78 	addiu	sp,sp,-136
80023ef4:	afbf0084 	sw	ra,132(sp)
80023ef8:	afb40080 	sw	s4,128(sp)
80023efc:	afb3007c 	sw	s3,124(sp)
80023f00:	afb20078 	sw	s2,120(sp)
80023f04:	afb10074 	sw	s1,116(sp)
80023f08:	afb00070 	sw	s0,112(sp)
80023f0c:	00809821 	move	s3,a0
80023f10:	00a0a021 	move	s4,a1
80023f14:	00c02821 	move	a1,a2
80023f18:	00e09021 	move	s2,a3
80023f1c:	80a30000 	lb	v1,0(a1)
80023f20:	1060000c 	beqz	v1,80023f54 <binary_user_B_start+0x1b4>
80023f24:	00a08021 	move	s0,a1
80023f28:	10000148 	b	8002444c <binary_user_B_start+0x6ac>
80023f2c:	24020025 	li	v0,37
80023f30:	00a08021 	move	s0,a1
80023f34:	26100001 	addiu	s0,s0,1
80023f38:	82020000 	lb	v0,0(s0)
80023f3c:	10400006 	beqz	v0,80023f58 <binary_user_B_start+0x1b8>
80023f40:	02053023 	subu	a2,s0,a1
80023f44:	10430005 	beq	v0,v1,80023f5c <binary_user_B_start+0x1bc>
80023f48:	2cc20051 	sltiu	v0,a2,81
80023f4c:	1000fffa 	b	80023f38 <binary_user_B_start+0x198>
80023f50:	26100001 	addiu	s0,s0,1
80023f54:	02053023 	subu	a2,s0,a1
80023f58:	2cc20051 	sltiu	v0,a2,81
80023f5c:	14400007 	bnez	v0,80023f7c <binary_user_B_start+0x1dc>
80023f60:	02802021 	move	a0,s4
80023f64:	3c050040 	lui	a1,0x40
80023f68:	24a50b20 	addiu	a1,a1,2848
80023f6c:	0260f809 	jalr	s3
80023f70:	24060018 	li	a2,24
80023f74:	1000ffff 	b	80023f74 <binary_user_B_start+0x1d4>
80023f78:	00000000 	nop
80023f7c:	0260f809 	jalr	s3
80023f80:	02802021 	move	a0,s4
80023f84:	82020000 	lb	v0,0(s0)
80023f88:	10400123 	beqz	v0,80024418 <binary_user_B_start+0x678>
80023f8c:	2402006c 	li	v0,108
80023f90:	82030001 	lb	v1,1(s0)
80023f94:	10620003 	beq	v1,v0,80023fa4 <binary_user_B_start+0x204>
80023f98:	26110001 	addiu	s1,s0,1
80023f9c:	10000003 	b	80023fac <binary_user_B_start+0x20c>
80023fa0:	00002021 	move	a0,zero
80023fa4:	26110002 	addiu	s1,s0,2
80023fa8:	24040001 	li	a0,1
80023fac:	82230000 	lb	v1,0(s1)
80023fb0:	2402002d 	li	v0,45
80023fb4:	14620004 	bne	v1,v0,80023fc8 <binary_user_B_start+0x228>
80023fb8:	00003821 	move	a3,zero
80023fbc:	26310001 	addiu	s1,s1,1
80023fc0:	24070001 	li	a3,1
80023fc4:	82230000 	lb	v1,0(s1)
80023fc8:	24020030 	li	v0,48
80023fcc:	14620003 	bne	v1,v0,80023fdc <binary_user_B_start+0x23c>
80023fd0:	24090020 	li	t1,32
80023fd4:	26310001 	addiu	s1,s1,1
80023fd8:	24090030 	li	t1,48
80023fdc:	82260000 	lb	a2,0(s1)
80023fe0:	24c2ffd0 	addiu	v0,a2,-48
80023fe4:	304200ff 	andi	v0,v0,0xff
80023fe8:	2c42000a 	sltiu	v0,v0,10
80023fec:	1040000d 	beqz	v0,80024024 <binary_user_B_start+0x284>
80023ff0:	00004021 	move	t0,zero
80023ff4:	00081040 	sll	v0,t0,0x1
80023ff8:	000818c0 	sll	v1,t0,0x3
80023ffc:	00431021 	addu	v0,v0,v1
80024000:	00461021 	addu	v0,v0,a2
80024004:	2448ffd0 	addiu	t0,v0,-48
80024008:	26310001 	addiu	s1,s1,1
8002400c:	82260000 	lb	a2,0(s1)
80024010:	24c2ffd0 	addiu	v0,a2,-48
80024014:	304200ff 	andi	v0,v0,0xff
80024018:	2c42000a 	sltiu	v0,v0,10
8002401c:	1440fff6 	bnez	v0,80023ff8 <binary_user_B_start+0x258>
80024020:	00081040 	sll	v0,t0,0x1
80024024:	82230000 	lb	v1,0(s1)
80024028:	2402002e 	li	v0,46
8002402c:	14620011 	bne	v1,v0,80024074 <binary_user_B_start+0x2d4>
80024030:	2c620079 	sltiu	v0,v1,121
80024034:	26310001 	addiu	s1,s1,1
80024038:	92220000 	lbu	v0,0(s1)
8002403c:	2442ffd0 	addiu	v0,v0,-48
80024040:	304200ff 	andi	v0,v0,0xff
80024044:	2c42000a 	sltiu	v0,v0,10
80024048:	10400008 	beqz	v0,8002406c <binary_user_B_start+0x2cc>
8002404c:	00000000 	nop
80024050:	26310001 	addiu	s1,s1,1
80024054:	92220000 	lbu	v0,0(s1)
80024058:	2442ffd0 	addiu	v0,v0,-48
8002405c:	304200ff 	andi	v0,v0,0xff
80024060:	2c42000a 	sltiu	v0,v0,10
80024064:	1440fffa 	bnez	v0,80024050 <binary_user_B_start+0x2b0>
80024068:	00000000 	nop
8002406c:	82230000 	lb	v1,0(s1)
80024070:	2c620079 	sltiu	v0,v1,121
80024074:	104000e2 	beqz	v0,80024400 <binary_user_B_start+0x660>
80024078:	00031080 	sll	v0,v1,0x2
8002407c:	3c030040 	lui	v1,0x40
80024080:	24630b40 	addiu	v1,v1,2880
80024084:	00431021 	addu	v0,v0,v1
80024088:	8c420000 	lw	v0,0(v0)
8002408c:	00400008 	jr	v0
80024090:	00000000 	nop
80024094:	10800004 	beqz	a0,800240a8 <binary_user_B_start+0x308>
80024098:	00000000 	nop
8002409c:	8e450000 	lw	a1,0(s2)
800240a0:	10000003 	b	800240b0 <binary_user_B_start+0x310>
800240a4:	26520004 	addiu	s2,s2,4
800240a8:	8e450000 	lw	a1,0(s2)
800240ac:	26520004 	addiu	s2,s2,4
800240b0:	afa80010 	sw	t0,16(sp)
800240b4:	afa70014 	sw	a3,20(sp)
800240b8:	afa90018 	sw	t1,24(sp)
800240bc:	afa0001c 	sw	zero,28(sp)
800240c0:	27a40020 	addiu	a0,sp,32
800240c4:	24060002 	li	a2,2
800240c8:	0c100211 	jal	80400844 <end+0x844>
800240cc:	00003821 	move	a3,zero
800240d0:	00403021 	move	a2,v0
800240d4:	2c420051 	sltiu	v0,v0,81
800240d8:	14400007 	bnez	v0,800240f8 <binary_user_B_start+0x358>
800240dc:	02802021 	move	a0,s4
800240e0:	3c050040 	lui	a1,0x40
800240e4:	24a50b20 	addiu	a1,a1,2848
800240e8:	0260f809 	jalr	s3
800240ec:	24060018 	li	a2,24
800240f0:	1000ffff 	b	800240f0 <binary_user_B_start+0x350>
800240f4:	00000000 	nop
800240f8:	0260f809 	jalr	s3
800240fc:	27a50020 	addiu	a1,sp,32
80024100:	1000ff86 	b	80023f1c <binary_user_B_start+0x17c>
80024104:	26250001 	addiu	a1,s1,1
80024108:	10800004 	beqz	a0,8002411c <binary_user_B_start+0x37c>
8002410c:	00000000 	nop
80024110:	8e450000 	lw	a1,0(s2)
80024114:	10000003 	b	80024124 <binary_user_B_start+0x384>
80024118:	26520004 	addiu	s2,s2,4
8002411c:	8e450000 	lw	a1,0(s2)
80024120:	26520004 	addiu	s2,s2,4
80024124:	04a10003 	bgez	a1,80024134 <binary_user_B_start+0x394>
80024128:	00001021 	move	v0,zero
8002412c:	00052823 	negu	a1,a1
80024130:	24020001 	li	v0,1
80024134:	afa80010 	sw	t0,16(sp)
80024138:	afa70014 	sw	a3,20(sp)
8002413c:	afa90018 	sw	t1,24(sp)
80024140:	afa0001c 	sw	zero,28(sp)
80024144:	27a40020 	addiu	a0,sp,32
80024148:	2406000a 	li	a2,10
8002414c:	0c100211 	jal	80400844 <end+0x844>
80024150:	00403821 	move	a3,v0
80024154:	00403021 	move	a2,v0
80024158:	2c420051 	sltiu	v0,v0,81
8002415c:	14400007 	bnez	v0,8002417c <binary_user_B_start+0x3dc>
80024160:	02802021 	move	a0,s4
80024164:	3c050040 	lui	a1,0x40
80024168:	24a50b20 	addiu	a1,a1,2848
8002416c:	0260f809 	jalr	s3
80024170:	24060018 	li	a2,24
80024174:	1000ffff 	b	80024174 <binary_user_B_start+0x3d4>
80024178:	00000000 	nop
8002417c:	0260f809 	jalr	s3
80024180:	27a50020 	addiu	a1,sp,32
80024184:	1000ff65 	b	80023f1c <binary_user_B_start+0x17c>
80024188:	26250001 	addiu	a1,s1,1
8002418c:	10800004 	beqz	a0,800241a0 <binary_user_B_start+0x400>
80024190:	00000000 	nop
80024194:	8e450000 	lw	a1,0(s2)
80024198:	10000003 	b	800241a8 <binary_user_B_start+0x408>
8002419c:	26520004 	addiu	s2,s2,4
800241a0:	8e450000 	lw	a1,0(s2)
800241a4:	26520004 	addiu	s2,s2,4
800241a8:	afa80010 	sw	t0,16(sp)
800241ac:	afa70014 	sw	a3,20(sp)
800241b0:	afa90018 	sw	t1,24(sp)
800241b4:	afa0001c 	sw	zero,28(sp)
800241b8:	27a40020 	addiu	a0,sp,32
800241bc:	24060008 	li	a2,8
800241c0:	0c100211 	jal	80400844 <end+0x844>
800241c4:	00003821 	move	a3,zero
800241c8:	00403021 	move	a2,v0
800241cc:	2c420051 	sltiu	v0,v0,81
800241d0:	14400007 	bnez	v0,800241f0 <binary_user_B_start+0x450>
800241d4:	02802021 	move	a0,s4
800241d8:	3c050040 	lui	a1,0x40
800241dc:	24a50b20 	addiu	a1,a1,2848
800241e0:	0260f809 	jalr	s3
800241e4:	24060018 	li	a2,24
800241e8:	1000ffff 	b	800241e8 <binary_user_B_start+0x448>
800241ec:	00000000 	nop
800241f0:	0260f809 	jalr	s3
800241f4:	27a50020 	addiu	a1,sp,32
800241f8:	1000ff48 	b	80023f1c <binary_user_B_start+0x17c>
800241fc:	26250001 	addiu	a1,s1,1
80024200:	10800004 	beqz	a0,80024214 <binary_user_B_start+0x474>
80024204:	00000000 	nop
80024208:	8e450000 	lw	a1,0(s2)
8002420c:	10000003 	b	8002421c <binary_user_B_start+0x47c>
80024210:	26520004 	addiu	s2,s2,4
80024214:	8e450000 	lw	a1,0(s2)
80024218:	26520004 	addiu	s2,s2,4
8002421c:	afa80010 	sw	t0,16(sp)
80024220:	afa70014 	sw	a3,20(sp)
80024224:	afa90018 	sw	t1,24(sp)
80024228:	afa0001c 	sw	zero,28(sp)
8002422c:	27a40020 	addiu	a0,sp,32
80024230:	2406000a 	li	a2,10
80024234:	0c100211 	jal	80400844 <end+0x844>
80024238:	00003821 	move	a3,zero
8002423c:	00403021 	move	a2,v0
80024240:	2c420051 	sltiu	v0,v0,81
80024244:	14400007 	bnez	v0,80024264 <binary_user_B_start+0x4c4>
80024248:	02802021 	move	a0,s4
8002424c:	3c050040 	lui	a1,0x40
80024250:	24a50b20 	addiu	a1,a1,2848
80024254:	0260f809 	jalr	s3
80024258:	24060018 	li	a2,24
8002425c:	1000ffff 	b	8002425c <binary_user_B_start+0x4bc>
80024260:	00000000 	nop
80024264:	0260f809 	jalr	s3
80024268:	27a50020 	addiu	a1,sp,32
8002426c:	1000ff2b 	b	80023f1c <binary_user_B_start+0x17c>
80024270:	26250001 	addiu	a1,s1,1
80024274:	10800004 	beqz	a0,80024288 <binary_user_B_start+0x4e8>
80024278:	00000000 	nop
8002427c:	8e450000 	lw	a1,0(s2)
80024280:	10000003 	b	80024290 <binary_user_B_start+0x4f0>
80024284:	26520004 	addiu	s2,s2,4
80024288:	8e450000 	lw	a1,0(s2)
8002428c:	26520004 	addiu	s2,s2,4
80024290:	afa80010 	sw	t0,16(sp)
80024294:	afa70014 	sw	a3,20(sp)
80024298:	afa90018 	sw	t1,24(sp)
8002429c:	afa0001c 	sw	zero,28(sp)
800242a0:	27a40020 	addiu	a0,sp,32
800242a4:	24060010 	li	a2,16
800242a8:	0c100211 	jal	80400844 <end+0x844>
800242ac:	00003821 	move	a3,zero
800242b0:	00403021 	move	a2,v0
800242b4:	2c420051 	sltiu	v0,v0,81
800242b8:	14400007 	bnez	v0,800242d8 <binary_user_B_start+0x538>
800242bc:	02802021 	move	a0,s4
800242c0:	3c050040 	lui	a1,0x40
800242c4:	24a50b20 	addiu	a1,a1,2848
800242c8:	0260f809 	jalr	s3
800242cc:	24060018 	li	a2,24
800242d0:	1000ffff 	b	800242d0 <binary_user_B_start+0x530>
800242d4:	00000000 	nop
800242d8:	0260f809 	jalr	s3
800242dc:	27a50020 	addiu	a1,sp,32
800242e0:	1000ff0e 	b	80023f1c <binary_user_B_start+0x17c>
800242e4:	26250001 	addiu	a1,s1,1
800242e8:	10800004 	beqz	a0,800242fc <binary_user_B_start+0x55c>
800242ec:	00000000 	nop
800242f0:	8e450000 	lw	a1,0(s2)
800242f4:	10000003 	b	80024304 <binary_user_B_start+0x564>
800242f8:	26520004 	addiu	s2,s2,4
800242fc:	8e450000 	lw	a1,0(s2)
80024300:	26520004 	addiu	s2,s2,4
80024304:	afa80010 	sw	t0,16(sp)
80024308:	afa70014 	sw	a3,20(sp)
8002430c:	afa90018 	sw	t1,24(sp)
80024310:	24020001 	li	v0,1
80024314:	afa2001c 	sw	v0,28(sp)
80024318:	27a40020 	addiu	a0,sp,32
8002431c:	24060010 	li	a2,16
80024320:	0c100211 	jal	80400844 <end+0x844>
80024324:	00003821 	move	a3,zero
80024328:	00403021 	move	a2,v0
8002432c:	2c420051 	sltiu	v0,v0,81
80024330:	14400007 	bnez	v0,80024350 <binary_user_B_start+0x5b0>
80024334:	02802021 	move	a0,s4
80024338:	3c050040 	lui	a1,0x40
8002433c:	24a50b20 	addiu	a1,a1,2848
80024340:	0260f809 	jalr	s3
80024344:	24060018 	li	a2,24
80024348:	1000ffff 	b	80024348 <binary_user_B_start+0x5a8>
8002434c:	00000000 	nop
80024350:	0260f809 	jalr	s3
80024354:	27a50020 	addiu	a1,sp,32
80024358:	1000fef0 	b	80023f1c <binary_user_B_start+0x17c>
8002435c:	26250001 	addiu	a1,s1,1
80024360:	26500004 	addiu	s0,s2,4
80024364:	27a40020 	addiu	a0,sp,32
80024368:	82450003 	lb	a1,3(s2)
8002436c:	0c1001af 	jal	804006bc <end+0x6bc>
80024370:	01003021 	move	a2,t0
80024374:	00403021 	move	a2,v0
80024378:	2c420051 	sltiu	v0,v0,81
8002437c:	14400007 	bnez	v0,8002439c <binary_user_B_start+0x5fc>
80024380:	02802021 	move	a0,s4
80024384:	3c050040 	lui	a1,0x40
80024388:	24a50b20 	addiu	a1,a1,2848
8002438c:	0260f809 	jalr	s3
80024390:	24060018 	li	a2,24
80024394:	1000ffff 	b	80024394 <binary_user_B_start+0x5f4>
80024398:	00000000 	nop
8002439c:	0260f809 	jalr	s3
800243a0:	27a50020 	addiu	a1,sp,32
800243a4:	1000001a 	b	80024410 <binary_user_B_start+0x670>
800243a8:	02009021 	move	s2,s0
800243ac:	26500004 	addiu	s0,s2,4
800243b0:	27a40020 	addiu	a0,sp,32
800243b4:	8e450000 	lw	a1,0(s2)
800243b8:	0c1001cf 	jal	8040073c <end+0x73c>
800243bc:	01003021 	move	a2,t0
800243c0:	00403021 	move	a2,v0
800243c4:	2c420051 	sltiu	v0,v0,81
800243c8:	14400007 	bnez	v0,800243e8 <binary_user_B_start+0x648>
800243cc:	02802021 	move	a0,s4
800243d0:	3c050040 	lui	a1,0x40
800243d4:	24a50b20 	addiu	a1,a1,2848
800243d8:	0260f809 	jalr	s3
800243dc:	24060018 	li	a2,24
800243e0:	1000ffff 	b	800243e0 <binary_user_B_start+0x640>
800243e4:	00000000 	nop
800243e8:	0260f809 	jalr	s3
800243ec:	27a50020 	addiu	a1,sp,32
800243f0:	10000007 	b	80024410 <binary_user_B_start+0x670>
800243f4:	02009021 	move	s2,s0
800243f8:	10000005 	b	80024410 <binary_user_B_start+0x670>
800243fc:	2631ffff 	addiu	s1,s1,-1
80024400:	02802021 	move	a0,s4
80024404:	02202821 	move	a1,s1
80024408:	0260f809 	jalr	s3
8002440c:	24060001 	li	a2,1
80024410:	1000fec2 	b	80023f1c <binary_user_B_start+0x17c>
80024414:	26250001 	addiu	a1,s1,1
80024418:	02802021 	move	a0,s4
8002441c:	3c050040 	lui	a1,0x40
80024420:	24a50b3c 	addiu	a1,a1,2876
80024424:	0260f809 	jalr	s3
80024428:	24060001 	li	a2,1
8002442c:	8fbf0084 	lw	ra,132(sp)
80024430:	8fb40080 	lw	s4,128(sp)
80024434:	8fb3007c 	lw	s3,124(sp)
80024438:	8fb20078 	lw	s2,120(sp)
8002443c:	8fb10074 	lw	s1,116(sp)
80024440:	8fb00070 	lw	s0,112(sp)
80024444:	03e00008 	jr	ra
80024448:	27bd0088 	addiu	sp,sp,136
8002444c:	1462feb8 	bne	v1,v0,80023f30 <binary_user_B_start+0x190>
80024450:	24030025 	li	v1,37
80024454:	1000febf 	b	80023f54 <binary_user_B_start+0x1b4>
80024458:	00a08021 	move	s0,a1
8002445c:	00052e00 	sll	a1,a1,0x18
80024460:	00052e03 	sra	a1,a1,0x18
80024464:	0006182a 	slt	v1,zero,a2
80024468:	24020001 	li	v0,1
8002446c:	10e00015 	beqz	a3,800244c4 <binary_user_B_start+0x724>
80024470:	0043300a 	0x43300a
80024474:	28c20002 	slti	v0,a2,2
80024478:	14400016 	bnez	v0,800244d4 <binary_user_B_start+0x734>
8002447c:	a0850000 	sb	a1,0(a0)
80024480:	24030001 	li	v1,1
80024484:	24050020 	li	a1,32
80024488:	00831021 	addu	v0,a0,v1
8002448c:	24630001 	addiu	v1,v1,1
80024490:	10c30010 	beq	a2,v1,800244d4 <binary_user_B_start+0x734>
80024494:	a0450000 	sb	a1,0(v0)
80024498:	1000fffc 	b	8002448c <binary_user_B_start+0x6ec>
8002449c:	00831021 	addu	v0,a0,v1
800244a0:	00001821 	move	v1,zero
800244a4:	24080020 	li	t0,32
800244a8:	00641021 	addu	v0,v1,a0
800244ac:	24630001 	addiu	v1,v1,1
800244b0:	1467fffd 	bne	v1,a3,800244a8 <binary_user_B_start+0x708>
800244b4:	a0480000 	sb	t0,0(v0)
800244b8:	00c41021 	addu	v0,a2,a0
800244bc:	10000005 	b	800244d4 <binary_user_B_start+0x734>
800244c0:	a045ffff 	sb	a1,-1(v0)
800244c4:	24c7ffff 	addiu	a3,a2,-1
800244c8:	1ce0fff5 	bgtz	a3,800244a0 <binary_user_B_start+0x700>
800244cc:	00c41021 	addu	v0,a2,a0
800244d0:	a045ffff 	sb	a1,-1(v0)
800244d4:	03e00008 	jr	ra
800244d8:	00c01021 	move	v0,a2
800244dc:	80a20000 	lb	v0,0(a1)
800244e0:	14400003 	bnez	v0,800244f0 <binary_user_B_start+0x750>
800244e4:	24a30001 	addiu	v1,a1,1
800244e8:	10000006 	b	80024504 <binary_user_B_start+0x764>
800244ec:	00004021 	move	t0,zero
800244f0:	00004021 	move	t0,zero
800244f4:	25080001 	addiu	t0,t0,1
800244f8:	80620000 	lb	v0,0(v1)
800244fc:	1440fffd 	bnez	v0,800244f4 <binary_user_B_start+0x754>
80024500:	24630001 	addiu	v1,v1,1
80024504:	00c8102a 	slt	v0,a2,t0
80024508:	14e00030 	bnez	a3,800245cc <binary_user_B_start+0x82c>
8002450c:	0102300b 	0x102300b
80024510:	1000002a 	b	800245bc <binary_user_B_start+0x81c>
80024514:	00c83823 	subu	a3,a2,t0
80024518:	00003821 	move	a3,zero
8002451c:	00871021 	addu	v0,a0,a3
80024520:	00a71821 	addu	v1,a1,a3
80024524:	90630000 	lbu	v1,0(v1)
80024528:	24e70001 	addiu	a3,a3,1
8002452c:	1507fffb 	bne	t0,a3,8002451c <binary_user_B_start+0x77c>
80024530:	a0430000 	sb	v1,0(v0)
80024534:	0106102a 	slt	v0,t0,a2
80024538:	10400028 	beqz	v0,800245dc <binary_user_B_start+0x83c>
8002453c:	00001821 	move	v1,zero
80024540:	00881021 	addu	v0,a0,t0
80024544:	24050020 	li	a1,32
80024548:	00c82023 	subu	a0,a2,t0
8002454c:	a0450000 	sb	a1,0(v0)
80024550:	24630001 	addiu	v1,v1,1
80024554:	10640021 	beq	v1,a0,800245dc <binary_user_B_start+0x83c>
80024558:	24420001 	addiu	v0,v0,1
8002455c:	1000fffc 	b	80024550 <binary_user_B_start+0x7b0>
80024560:	a0450000 	sb	a1,0(v0)
80024564:	00001821 	move	v1,zero
80024568:	24090020 	li	t1,32
8002456c:	00831021 	addu	v0,a0,v1
80024570:	24630001 	addiu	v1,v1,1
80024574:	1467fffd 	bne	v1,a3,8002456c <binary_user_B_start+0x7cc>
80024578:	a0490000 	sb	t1,0(v0)
8002457c:	00e6102a 	slt	v0,a3,a2
80024580:	10400016 	beqz	v0,800245dc <binary_user_B_start+0x83c>
80024584:	00872021 	addu	a0,a0,a3
80024588:	00e61023 	subu	v0,a3,a2
8002458c:	01021021 	addu	v0,t0,v0
80024590:	00a21821 	addu	v1,a1,v0
80024594:	00002821 	move	a1,zero
80024598:	00c73823 	subu	a3,a2,a3
8002459c:	90620000 	lbu	v0,0(v1)
800245a0:	a0820000 	sb	v0,0(a0)
800245a4:	24a50001 	addiu	a1,a1,1
800245a8:	24630001 	addiu	v1,v1,1
800245ac:	10a7000b 	beq	a1,a3,800245dc <binary_user_B_start+0x83c>
800245b0:	24840001 	addiu	a0,a0,1
800245b4:	1000fffa 	b	800245a0 <binary_user_B_start+0x800>
800245b8:	90620000 	lbu	v0,0(v1)
800245bc:	1ce0ffe9 	bgtz	a3,80024564 <binary_user_B_start+0x7c4>
800245c0:	00e6102a 	slt	v0,a3,a2
800245c4:	1000ffee 	b	80024580 <binary_user_B_start+0x7e0>
800245c8:	00000000 	nop
800245cc:	1d00ffd2 	bgtz	t0,80024518 <binary_user_B_start+0x778>
800245d0:	0106102a 	slt	v0,t0,a2
800245d4:	1000ffd8 	b	80024538 <binary_user_B_start+0x798>
800245d8:	00000000 	nop
800245dc:	03e00008 	jr	ra
800245e0:	00c01021 	move	v0,a2
800245e4:	8fa90010 	lw	t1,16(sp)
800245e8:	8fac0014 	lw	t4,20(sp)
800245ec:	8fab001c 	lw	t3,28(sp)
800245f0:	83aa001b 	lb	t2,27(sp)
800245f4:	00804021 	move	t0,a0
800245f8:	00a6001b 	divu	zero,a1,a2
800245fc:	00c001f4 	0xc001f4
80024600:	00001810 	mfhi	v1
80024604:	2862000a 	slti	v0,v1,10
80024608:	10400004 	beqz	v0,8002461c <binary_user_B_start+0x87c>
8002460c:	24620030 	addiu	v0,v1,48
80024610:	a1020000 	sb	v0,0(t0)
80024614:	1000000b 	b	80024644 <binary_user_B_start+0x8a4>
80024618:	25080001 	addiu	t0,t0,1
8002461c:	11600005 	beqz	t3,80024634 <binary_user_B_start+0x894>
80024620:	24620057 	addiu	v0,v1,87
80024624:	24620037 	addiu	v0,v1,55
80024628:	a1020000 	sb	v0,0(t0)
8002462c:	10000003 	b	8002463c <binary_user_B_start+0x89c>
80024630:	25080001 	addiu	t0,t0,1
80024634:	a1020000 	sb	v0,0(t0)
80024638:	25080001 	addiu	t0,t0,1
8002463c:	00a6001b 	divu	zero,a1,a2
80024640:	00c001f4 	0xc001f4
80024644:	00002812 	mflo	a1
80024648:	14a0ffeb 	bnez	a1,800245f8 <binary_user_B_start+0x858>
8002464c:	00000000 	nop
80024650:	10e00005 	beqz	a3,80024668 <binary_user_B_start+0x8c8>
80024654:	01043023 	subu	a2,t0,a0
80024658:	2402002d 	li	v0,45
8002465c:	a1020000 	sb	v0,0(t0)
80024660:	25080001 	addiu	t0,t0,1
80024664:	01043023 	subu	a2,t0,a0
80024668:	0126102a 	slt	v0,t1,a2
8002466c:	00c2480b 	0xc2480b
80024670:	24020020 	li	v0,32
80024674:	10e00032 	beqz	a3,80024740 <binary_user_B_start+0x9a0>
80024678:	004c500b 	0x4c500b
8002467c:	15800031 	bnez	t4,80024744 <binary_user_B_start+0x9a4>
80024680:	00c9102a 	slt	v0,a2,t1
80024684:	24020030 	li	v0,48
80024688:	1542002e 	bne	t2,v0,80024744 <binary_user_B_start+0x9a4>
8002468c:	00c9102a 	slt	v0,a2,t1
80024690:	24c6ffff 	addiu	a2,a2,-1
80024694:	2528ffff 	addiu	t0,t1,-1
80024698:	00c8102a 	slt	v0,a2,t0
8002469c:	10400008 	beqz	v0,800246c0 <binary_user_B_start+0x920>
800246a0:	01061023 	subu	v0,t0,a2
800246a4:	00861821 	addu	v1,a0,a2
800246a8:	00002821 	move	a1,zero
800246ac:	24070030 	li	a3,48
800246b0:	a0670000 	sb	a3,0(v1)
800246b4:	24a50001 	addiu	a1,a1,1
800246b8:	14a2fffd 	bne	a1,v0,800246b0 <binary_user_B_start+0x910>
800246bc:	24630001 	addiu	v1,v1,1
800246c0:	00891821 	addu	v1,a0,t1
800246c4:	2402002d 	li	v0,45
800246c8:	1000000d 	b	80024700 <binary_user_B_start+0x960>
800246cc:	a062ffff 	sb	v0,-1(v1)
800246d0:	a0aa0000 	sb	t2,0(a1)
800246d4:	24630001 	addiu	v1,v1,1
800246d8:	01261023 	subu	v0,t1,a2
800246dc:	1462fffc 	bne	v1,v0,800246d0 <binary_user_B_start+0x930>
800246e0:	24a50001 	addiu	a1,a1,1
800246e4:	11800006 	beqz	t4,80024700 <binary_user_B_start+0x960>
800246e8:	00000000 	nop
800246ec:	24c6ffff 	addiu	a2,a2,-1
800246f0:	1cc00005 	bgtz	a2,80024708 <binary_user_B_start+0x968>
800246f4:	00003821 	move	a3,zero
800246f8:	03e00008 	jr	ra
800246fc:	01201021 	move	v0,t1
80024700:	1000fffb 	b	800246f0 <binary_user_B_start+0x950>
80024704:	2526ffff 	addiu	a2,t1,-1
80024708:	00802821 	move	a1,a0
8002470c:	00862021 	addu	a0,a0,a2
80024710:	80a20000 	lb	v0,0(a1)
80024714:	90830000 	lbu	v1,0(a0)
80024718:	a0a30000 	sb	v1,0(a1)
8002471c:	a0820000 	sb	v0,0(a0)
80024720:	24e70001 	addiu	a3,a3,1
80024724:	24c6ffff 	addiu	a2,a2,-1
80024728:	24a50001 	addiu	a1,a1,1
8002472c:	00e6102a 	slt	v0,a3,a2
80024730:	10400009 	beqz	v0,80024758 <binary_user_B_start+0x9b8>
80024734:	2484ffff 	addiu	a0,a0,-1
80024738:	1000fff6 	b	80024714 <binary_user_B_start+0x974>
8002473c:	80a20000 	lb	v0,0(a1)
80024740:	00c9102a 	slt	v0,a2,t1
80024744:	1040ffe7 	beqz	v0,800246e4 <binary_user_B_start+0x944>
80024748:	00000000 	nop
8002474c:	00862821 	addu	a1,a0,a2
80024750:	1000ffdf 	b	800246d0 <binary_user_B_start+0x930>
80024754:	00001821 	move	v1,zero
80024758:	01201021 	move	v0,t1
8002475c:	03e00008 	jr	ra
80024760:	00000000 	nop
	...
80024770:	27bdffe0 	addiu	sp,sp,-32
80024774:	afbf001c 	sw	ra,28(sp)
80024778:	afb20018 	sw	s2,24(sp)
8002477c:	afb10014 	sw	s1,20(sp)
80024780:	afb00010 	sw	s0,16(sp)
80024784:	24020001 	li	v0,1
80024788:	14c20013 	bne	a2,v0,800247d8 <binary_user_B_start+0xa38>
8002478c:	00c09021 	move	s2,a2
80024790:	80a20000 	lb	v0,0(a1)
80024794:	14400013 	bnez	v0,800247e4 <binary_user_B_start+0xa44>
80024798:	00a08021 	move	s0,a1
8002479c:	10000014 	b	800247f0 <binary_user_B_start+0xa50>
800247a0:	8fbf001c 	lw	ra,28(sp)
800247a4:	0c100038 	jal	804000e0 <end+0xe0>
800247a8:	82040000 	lb	a0,0(s0)
800247ac:	82030000 	lb	v1,0(s0)
800247b0:	2402000a 	li	v0,10
800247b4:	14620003 	bne	v1,v0,800247c4 <binary_user_B_start+0xa24>
800247b8:	00000000 	nop
800247bc:	0c100038 	jal	804000e0 <end+0xe0>
800247c0:	2404000a 	li	a0,10
800247c4:	26310001 	addiu	s1,s1,1
800247c8:	12510008 	beq	s2,s1,800247ec <binary_user_B_start+0xa4c>
800247cc:	26100001 	addiu	s0,s0,1
800247d0:	1000fff4 	b	800247a4 <binary_user_B_start+0xa04>
800247d4:	00000000 	nop
800247d8:	18c00005 	blez	a2,800247f0 <binary_user_B_start+0xa50>
800247dc:	8fbf001c 	lw	ra,28(sp)
800247e0:	00a08021 	move	s0,a1
800247e4:	1000ffef 	b	800247a4 <binary_user_B_start+0xa04>
800247e8:	00008821 	move	s1,zero
800247ec:	8fbf001c 	lw	ra,28(sp)
800247f0:	8fb20018 	lw	s2,24(sp)
800247f4:	8fb10014 	lw	s1,20(sp)
800247f8:	8fb00010 	lw	s0,16(sp)
800247fc:	03e00008 	jr	ra
80024800:	27bd0020 	addiu	sp,sp,32
80024804:	27bdffe0 	addiu	sp,sp,-32
80024808:	afbf0018 	sw	ra,24(sp)
8002480c:	afa50024 	sw	a1,36(sp)
80024810:	afa60028 	sw	a2,40(sp)
80024814:	afa7002c 	sw	a3,44(sp)
80024818:	00803021 	move	a2,a0
8002481c:	27a70024 	addiu	a3,sp,36
80024820:	afa70010 	sw	a3,16(sp)
80024824:	3c040040 	lui	a0,0x40
80024828:	248409d0 	addiu	a0,a0,2512
8002482c:	0c100054 	jal	80400150 <end+0x150>
80024830:	00002821 	move	a1,zero
80024834:	8fbf0018 	lw	ra,24(sp)
80024838:	03e00008 	jr	ra
8002483c:	27bd0020 	addiu	sp,sp,32
80024840:	27bdffe0 	addiu	sp,sp,-32
80024844:	afbf001c 	sw	ra,28(sp)
80024848:	afb00018 	sw	s0,24(sp)
8002484c:	00801821 	move	v1,a0
80024850:	00a04021 	move	t0,a1
80024854:	afa7002c 	sw	a3,44(sp)
80024858:	00c08021 	move	s0,a2
8002485c:	27a2002c 	addiu	v0,sp,44
80024860:	afa20010 	sw	v0,16(sp)
80024864:	3c040040 	lui	a0,0x40
80024868:	24840d30 	addiu	a0,a0,3376
8002486c:	00602821 	move	a1,v1
80024870:	0c100299 	jal	80400a64 <end+0xa64>
80024874:	01003021 	move	a2,t0
80024878:	3c040040 	lui	a0,0x40
8002487c:	248409d0 	addiu	a0,a0,2512
80024880:	00002821 	move	a1,zero
80024884:	02003021 	move	a2,s0
80024888:	0c100054 	jal	80400150 <end+0x150>
8002488c:	8fa70010 	lw	a3,16(sp)
80024890:	3c040040 	lui	a0,0x40
80024894:	0c100299 	jal	80400a64 <end+0xa64>
80024898:	24840d44 	addiu	a0,a0,3396
8002489c:	1000ffff 	b	8002489c <binary_user_B_start+0xafc>
800248a0:	00000000 	nop
	...
800248b0:	25642000 	addiu	a0,t3,8192
	...
800248c0:	66617461 	0x66617461
800248c4:	6c206572 	0x6c206572
800248c8:	726f7220 	0x726f7220
800248cc:	696e206c 	0x696e206c
800248d0:	705f5072 	0x705f5072
800248d4:	696e7421 	0x696e7421
	...
800248e0:	00400658 	0x400658
800248e4:	00400660 	0x400660
800248e8:	00400660 	0x400660
800248ec:	00400660 	0x400660
800248f0:	00400660 	0x400660
800248f4:	00400660 	0x400660
800248f8:	00400660 	0x400660
800248fc:	00400660 	0x400660
80024900:	00400660 	0x400660
80024904:	00400660 	0x400660
80024908:	00400660 	0x400660
8002490c:	00400660 	0x400660
80024910:	00400660 	0x400660
80024914:	00400660 	0x400660
80024918:	00400660 	0x400660
8002491c:	00400660 	0x400660
80024920:	00400660 	0x400660
80024924:	00400660 	0x400660
80024928:	00400660 	0x400660
8002492c:	00400660 	0x400660
80024930:	00400660 	0x400660
80024934:	00400660 	0x400660
80024938:	00400660 	0x400660
8002493c:	00400660 	0x400660
80024940:	00400660 	0x400660
80024944:	00400660 	0x400660
80024948:	00400660 	0x400660
8002494c:	00400660 	0x400660
80024950:	00400660 	0x400660
80024954:	00400660 	0x400660
80024958:	00400660 	0x400660
8002495c:	00400660 	0x400660
80024960:	00400660 	0x400660
80024964:	00400660 	0x400660
80024968:	00400660 	0x400660
8002496c:	00400660 	0x400660
80024970:	00400660 	0x400660
80024974:	00400660 	0x400660
80024978:	00400660 	0x400660
8002497c:	00400660 	0x400660
80024980:	00400660 	0x400660
80024984:	00400660 	0x400660
80024988:	00400660 	0x400660
8002498c:	00400660 	0x400660
80024990:	00400660 	0x400660
80024994:	00400660 	0x400660
80024998:	00400660 	0x400660
8002499c:	00400660 	0x400660
800249a0:	00400660 	0x400660
800249a4:	00400660 	0x400660
800249a8:	00400660 	0x400660
800249ac:	00400660 	0x400660
800249b0:	00400660 	0x400660
800249b4:	00400660 	0x400660
800249b8:	00400660 	0x400660
800249bc:	00400660 	0x400660
800249c0:	00400660 	0x400660
800249c4:	00400660 	0x400660
800249c8:	00400660 	0x400660
800249cc:	00400660 	0x400660
800249d0:	00400660 	0x400660
800249d4:	00400660 	0x400660
800249d8:	00400660 	0x400660
800249dc:	00400660 	0x400660
800249e0:	00400660 	0x400660
800249e4:	00400660 	0x400660
800249e8:	00400660 	0x400660
800249ec:	00400660 	0x400660
800249f0:	00400368 	0x400368
800249f4:	00400660 	0x400660
800249f8:	00400660 	0x400660
800249fc:	00400660 	0x400660
80024a00:	00400660 	0x400660
80024a04:	00400660 	0x400660
80024a08:	00400660 	0x400660
80024a0c:	00400660 	0x400660
80024a10:	00400660 	0x400660
80024a14:	00400660 	0x400660
80024a18:	00400660 	0x400660
80024a1c:	004003ec 	0x4003ec
80024a20:	00400660 	0x400660
80024a24:	00400660 	0x400660
80024a28:	00400660 	0x400660
80024a2c:	00400660 	0x400660
80024a30:	00400660 	0x400660
80024a34:	00400460 	0x400460
80024a38:	00400660 	0x400660
80024a3c:	00400660 	0x400660
80024a40:	00400548 	0x400548
80024a44:	00400660 	0x400660
80024a48:	00400660 	0x400660
80024a4c:	00400660 	0x400660
80024a50:	00400660 	0x400660
80024a54:	00400660 	0x400660
80024a58:	00400660 	0x400660
80024a5c:	00400660 	0x400660
80024a60:	00400660 	0x400660
80024a64:	00400660 	0x400660
80024a68:	004002f4 	0x4002f4
80024a6c:	004005c0 	0x4005c0
80024a70:	00400368 	0x400368
80024a74:	00400660 	0x400660
80024a78:	00400660 	0x400660
80024a7c:	00400660 	0x400660
80024a80:	00400660 	0x400660
80024a84:	00400660 	0x400660
80024a88:	00400660 	0x400660
80024a8c:	00400660 	0x400660
80024a90:	00400660 	0x400660
80024a94:	00400660 	0x400660
80024a98:	00400660 	0x400660
80024a9c:	004003ec 	0x4003ec
80024aa0:	00400660 	0x400660
80024aa4:	00400660 	0x400660
80024aa8:	00400660 	0x400660
80024aac:	0040060c 	syscall	0x10018
80024ab0:	00400660 	0x400660
80024ab4:	00400460 	0x400460
80024ab8:	00400660 	0x400660
80024abc:	00400660 	0x400660
80024ac0:	004004d4 	0x4004d4
	...
80024ad0:	70616e69 	0x70616e69
80024ad4:	63206174 	0x63206174
80024ad8:	2025733a 	addi	a1,at,29498
80024adc:	25643a20 	addiu	a0,t3,14880
80024ae0:	00000000 	nop
80024ae4:	0a000000 	j	88000000 <end+0x7c00000>
80024ae8:	00000000 	nop
80024aec:	00000000 	nop
80024af0:	00474343 	0x474343
80024af4:	3a202847 	xori	zero,s1,0x2847
80024af8:	4e552920 	c3	0x552920
80024afc:	342e302e 	ori	t6,at,0x302e
80024b00:	30202844 	andi	zero,at,0x2844
80024b04:	454e5820 	0x454e5820
80024b08:	454c444b 	0x454c444b
80024b0c:	20342e31 	addi	s4,at,11825
80024b10:	20342e30 	addi	s4,at,11824
80024b14:	2e302900 	sltiu	s0,s1,10496
80024b18:	00474343 	0x474343
80024b1c:	3a202847 	xori	zero,s1,0x2847
80024b20:	4e552920 	c3	0x552920
80024b24:	342e302e 	ori	t6,at,0x302e
80024b28:	30202844 	andi	zero,at,0x2844
80024b2c:	454e5820 	0x454e5820
80024b30:	454c444b 	0x454c444b
80024b34:	20342e31 	addi	s4,at,11825
80024b38:	20342e30 	addi	s4,at,11824
80024b3c:	2e302900 	sltiu	s0,s1,10496
80024b40:	00474343 	0x474343
80024b44:	3a202847 	xori	zero,s1,0x2847
80024b48:	4e552920 	c3	0x552920
80024b4c:	342e302e 	ori	t6,at,0x302e
80024b50:	30202844 	andi	zero,at,0x2844
80024b54:	454e5820 	0x454e5820
80024b58:	454c444b 	0x454c444b
80024b5c:	20342e31 	addi	s4,at,11825
80024b60:	20342e30 	addi	s4,at,11824
80024b64:	2e302900 	sltiu	s0,s1,10496
80024b68:	00474343 	0x474343
80024b6c:	3a202847 	xori	zero,s1,0x2847
80024b70:	4e552920 	c3	0x552920
80024b74:	342e302e 	ori	t6,at,0x302e
80024b78:	30202844 	andi	zero,at,0x2844
80024b7c:	454e5820 	0x454e5820
80024b80:	454c444b 	0x454c444b
80024b84:	20342e31 	addi	s4,at,11825
80024b88:	20342e30 	addi	s4,at,11824
80024b8c:	2e302900 	sltiu	s0,s1,10496
80024b90:	004000b0 	0x4000b0
80024b94:	80010000 	lb	at,0(zero)
80024b98:	fffffffc 	0xfffffffc
	...
80024ba4:	00000018 	mult	zero,zero
80024ba8:	0000001d 	0x1d
80024bac:	0000001f 	0x1f
80024bb0:	004000e0 	0x4000e0
	...
80024bc8:	0000001d 	0x1d
80024bcc:	0000001f 	0x1f
80024bd0:	004000f4 	0x4000f4
	...
80024be8:	0000001d 	0x1d
80024bec:	0000001f 	0x1f
80024bf0:	00400108 	0x400108
80024bf4:	80010000 	lb	at,0(zero)
80024bf8:	fffffffc 	0xfffffffc
	...
80024c04:	00000018 	mult	zero,zero
80024c08:	0000001d 	0x1d
80024c0c:	0000001f 	0x1f
80024c10:	00400150 	0x400150
80024c14:	801f0000 	lb	ra,0(zero)
80024c18:	fffffffc 	0xfffffffc
	...
80024c24:	00000088 	0x88
80024c28:	0000001d 	0x1d
80024c2c:	0000001f 	0x1f
80024c30:	004006bc 	0x4006bc
	...
80024c48:	0000001d 	0x1d
80024c4c:	0000001f 	0x1f
80024c50:	0040073c 	0x40073c
	...
80024c68:	0000001d 	0x1d
80024c6c:	0000001f 	0x1f
80024c70:	00400844 	0x400844
	...
80024c88:	0000001d 	0x1d
80024c8c:	0000001f 	0x1f
80024c90:	004009d0 	0x4009d0
80024c94:	80070000 	lb	a3,0(zero)
80024c98:	fffffffc 	0xfffffffc
	...
80024ca4:	00000020 	add	zero,zero,zero
80024ca8:	0000001d 	0x1d
80024cac:	0000001f 	0x1f
80024cb0:	00400a64 	0x400a64
80024cb4:	80000000 	lb	zero,0(zero)
80024cb8:	fffffff8 	0xfffffff8
	...
80024cc4:	00000020 	add	zero,zero,zero
80024cc8:	0000001d 	0x1d
80024ccc:	0000001f 	0x1f
80024cd0:	00400aa0 	0x400aa0
80024cd4:	80010000 	lb	at,0(zero)
80024cd8:	fffffffc 	0xfffffffc
	...
80024ce4:	00000020 	add	zero,zero,zero
80024ce8:	0000001d 	0x1d
80024cec:	0000001f 	0x1f
80024cf0:	002e7379 	0x2e7379
80024cf4:	6d746162 	0x6d746162
80024cf8:	002e7374 	0x2e7374
80024cfc:	72746162 	0x72746162
80024d00:	002e7368 	0x2e7368
80024d04:	73747274 	0x73747274
80024d08:	6162002e 	0x6162002e
80024d0c:	72656769 	0x72656769
80024d10:	6e666f00 	0x6e666f00
80024d14:	2e746578 	sltiu	s4,s3,25976
80024d18:	74002e72 	jalx	8000b9c8 <except_vec3+0xb948>
80024d1c:	6f646174 	0x6f646174
80024d20:	61002e64 	0x61002e64
80024d24:	61746100 	0x61746100
80024d28:	2e736273 	sltiu	s3,s3,25203
80024d2c:	73002e62 	0x73002e62
80024d30:	7373002e 	0x7373002e
80024d34:	636f6d6d 	0x636f6d6d
80024d38:	656e7400 	0x656e7400
80024d3c:	2e706472 	sltiu	s0,s3,25714
80024d40:	002e6d64 	0x2e6d64
80024d44:	65627567 	0x65627567
80024d48:	2e616269 	sltiu	at,s3,25193
80024d4c:	33320000 	andi	s2,t9,0x0
	...
80024d78:	0000001b 	divu	zero,zero,zero
80024d7c:	70000006 	0x70000006
80024d80:	00000002 	srl	zero,zero,0x0
80024d84:	00400094 	0x400094
80024d88:	00000094 	0x94
80024d8c:	00000018 	mult	zero,zero
	...
80024d98:	00000004 	sllv	zero,zero,zero
80024d9c:	00000018 	mult	zero,zero
80024da0:	00000024 	and	zero,zero,zero
80024da4:	00000001 	0x1
80024da8:	00000006 	srlv	zero,zero,zero
80024dac:	004000b0 	0x4000b0
80024db0:	000000b0 	0xb0
80024db4:	00000a60 	0xa60
	...
80024dc0:	00000010 	mfhi	zero
80024dc4:	00000000 	nop
80024dc8:	0000002a 	slt	zero,zero,zero
80024dcc:	00000001 	0x1
80024dd0:	00000002 	srl	zero,zero,0x0
80024dd4:	00400b10 	0x400b10
80024dd8:	00000b10 	0xb10
80024ddc:	00000236 	0x236
	...
80024de8:	00000010 	mfhi	zero
80024dec:	00000000 	nop
80024df0:	00000032 	0x32
80024df4:	00000001 	0x1
80024df8:	00000003 	sra	zero,zero,0x0
80024dfc:	10000000 	b	80024e00 <binary_user_B_start+0x1060>
80024e00:	00000d50 	0xd50
	...
80024e10:	00000010 	mfhi	zero
80024e14:	00000000 	nop
80024e18:	00000038 	0x38
80024e1c:	00000008 	jr	zero
80024e20:	10000003 	b	80024e30 <binary_user_B_start+0x1090>
80024e24:	10000000 	b	80024e28 <binary_user_B_start+0x1088>
80024e28:	00000d50 	0xd50
	...
80024e38:	00000001 	0x1
80024e3c:	00000000 	nop
80024e40:	0000003e 	0x3e
80024e44:	00000008 	jr	zero
80024e48:	00000003 	sra	zero,zero,0x0
80024e4c:	10000000 	b	80024e50 <binary_user_B_start+0x10b0>
80024e50:	00000d50 	0xd50
	...
80024e60:	00000010 	mfhi	zero
80024e64:	00000000 	nop
80024e68:	00000043 	sra	zero,zero,0x1
80024e6c:	00000001 	0x1
	...
80024e78:	00000d50 	0xd50
80024e7c:	000000a0 	0xa0
	...
80024e88:	00000001 	0x1
80024e8c:	00000000 	nop
80024e90:	0000004c 	syscall	0x1
80024e94:	00000001 	0x1
	...
80024ea0:	00000df0 	0xdf0
80024ea4:	00000160 	0x160
	...
80024eb0:	00000004 	sllv	zero,zero,zero
80024eb4:	00000000 	nop
80024eb8:	00000051 	0x51
80024ebc:	00000001 	0x1
	...
80024ec8:	00000f50 	0xf50
	...
80024ed8:	00000001 	0x1
80024edc:	00000000 	nop
80024ee0:	00000011 	mthi	zero
80024ee4:	00000003 	sra	zero,zero,0x0
	...
80024ef0:	00000f50 	0xf50
80024ef4:	0000005f 	0x5f
	...
80024f00:	00000001 	0x1
80024f04:	00000000 	nop
80024f08:	00000001 	0x1
80024f0c:	00000002 	srl	zero,zero,0x0
	...
80024f18:	000011b8 	0x11b8
80024f1c:	00000240 	sll	zero,zero,0x9
80024f20:	0000000c 	syscall
80024f24:	00000013 	mtlo	zero
80024f28:	00000004 	sllv	zero,zero,zero
80024f2c:	00000010 	mfhi	zero
80024f30:	00000009 	jalr	zero,zero
80024f34:	00000003 	sra	zero,zero,0x0
	...
80024f40:	000013f8 	0x13f8
80024f44:	000000ba 	0xba
	...
80024f50:	00000001 	0x1
	...
80024f6c:	00400094 	0x400094
80024f70:	00000000 	nop
80024f74:	03000001 	0x3000001
80024f78:	00000000 	nop
80024f7c:	004000b0 	0x4000b0
80024f80:	00000000 	nop
80024f84:	03000002 	0x3000002
80024f88:	00000000 	nop
80024f8c:	00400b10 	0x400b10
80024f90:	00000000 	nop
80024f94:	03000003 	0x3000003
80024f98:	00000000 	nop
80024f9c:	10000000 	b	80024fa0 <binary_user_B_start+0x1200>
80024fa0:	00000000 	nop
80024fa4:	03000004 	sllv	zero,zero,t8
80024fa8:	00000000 	nop
80024fac:	10000000 	b	80024fb0 <binary_user_B_start+0x1210>
80024fb0:	00000000 	nop
80024fb4:	03000005 	0x3000005
80024fb8:	00000000 	nop
80024fbc:	10000000 	b	80024fc0 <binary_user_B_start+0x1220>
80024fc0:	00000000 	nop
80024fc4:	03000006 	srlv	zero,zero,t8
	...
80024fd4:	03000007 	srav	zero,zero,t8
	...
80024fe4:	03000008 	jr	t8
80024fe8:	00000000 	nop
	...
80024ff4:	03000009 	jalr	zero,t8
80024ff8:	00000000 	nop
	...
80025004:	0300000a 	0x300000a
	...
80025014:	0300000b 	0x300000b
	...
80025024:	0300000c 	syscall	0xc0000
80025028:	00000001 	0x1
	...
80025034:	0400fff1 	bltz	zero,80024ffc <binary_user_B_start+0x125c>
80025038:	00000006 	srlv	zero,zero,zero
	...
80025044:	0400fff1 	bltz	zero,8002500c <binary_user_B_start+0x126c>
80025048:	00000010 	mfhi	zero
	...
80025054:	0400fff1 	bltz	zero,8002501c <binary_user_B_start+0x127c>
80025058:	00000018 	mult	zero,zero
8002505c:	00400b20 	0x400b20
80025060:	00000019 	multu	zero,zero
80025064:	01000003 	0x1000003
80025068:	00000024 	and	zero,zero,zero
	...
80025074:	0400fff1 	bltz	zero,8002503c <binary_user_B_start+0x129c>
80025078:	0000002d 	0x2d
8002507c:	004009d0 	0x4009d0
80025080:	00000094 	0x94
80025084:	02000002 	0x2000002
80025088:	00000036 	0x36
8002508c:	00400150 	0x400150
80025090:	0000056c 	0x56c
80025094:	12000002 	beqz	s0,800250a0 <binary_user_B_start+0x1300>
80025098:	0000003f 	0x3f
8002509c:	00400aa0 	0x400aa0
800250a0:	00000064 	0x64
800250a4:	12000002 	beqz	s0,800250b0 <binary_user_B_start+0x1310>
800250a8:	00000046 	0x46
800250ac:	00400108 	0x400108
800250b0:	0000003c 	0x3c
800250b4:	12000002 	beqz	s0,800250c0 <binary_user_B_start+0x1320>
800250b8:	0000004f 	0x4f
800250bc:	00400a64 	0x400a64
800250c0:	0000003c 	0x3c
800250c4:	12000002 	beqz	s0,800250d0 <binary_user_B_start+0x1330>
800250c8:	00000056 	0x56
800250cc:	10000000 	b	800250d0 <binary_user_B_start+0x1330>
800250d0:	00000000 	nop
800250d4:	10000004 	b	800250e8 <binary_user_B_start+0x1348>
800250d8:	0000005d 	0x5d
800250dc:	10007ff0 	b	800450a0 <KERNEL_STACK+0x1fe30>
800250e0:	00000000 	nop
800250e4:	1000fff1 	b	800250ac <binary_user_B_start+0x130c>
800250e8:	00000061 	0x61
800250ec:	00400844 	0x400844
800250f0:	00000180 	sll	zero,zero,0x6
800250f4:	12000002 	beqz	s0,80025100 <binary_user_B_start+0x1360>
800250f8:	0000006a 	0x6a
800250fc:	004000e0 	0x4000e0
80025100:	00000014 	0x14
80025104:	12000002 	beqz	s0,80025110 <binary_user_B_start+0x1370>
80025108:	00000075 	0x75
8002510c:	004000b0 	0x4000b0
80025110:	00000000 	nop
80025114:	10000002 	b	80025120 <binary_user_B_start+0x1380>
80025118:	0000007c 	0x7c
8002511c:	0040073c 	0x40073c
80025120:	00000108 	0x108
80025124:	12000002 	beqz	s0,80025130 <binary_user_B_start+0x1390>
80025128:	00000088 	0x88
8002512c:	10000000 	b	80025130 <binary_user_B_start+0x1390>
80025130:	00000000 	nop
80025134:	1000fff1 	b	800250fc <binary_user_B_start+0x135c>
80025138:	00000094 	0x94
8002513c:	004000b0 	0x4000b0
80025140:	00000024 	and	zero,zero,zero
80025144:	12000002 	beqz	s0,80025150 <binary_user_B_start+0x13b0>
80025148:	00000099 	0x99
8002514c:	004006bc 	0x4006bc
80025150:	00000080 	sll	zero,zero,0x2
80025154:	12000002 	beqz	s0,80025160 <binary_user_B_start+0x13c0>
80025158:	000000a3 	0xa3
8002515c:	10000000 	b	80025160 <binary_user_B_start+0x13c0>
80025160:	00000000 	nop
80025164:	1000fff1 	b	8002512c <binary_user_B_start+0x138c>
80025168:	000000aa 	0xaa
8002516c:	10000000 	b	80025170 <binary_user_B_start+0x13d0>
80025170:	00000000 	nop
80025174:	1000fff1 	b	8002513c <binary_user_B_start+0x139c>
80025178:	000000af 	0xaf
8002517c:	004000f4 	0x4000f4
80025180:	00000014 	0x14
80025184:	12000002 	beqz	s0,80025190 <binary_user_B_start+0x13f0>
80025188:	000000b4 	0xb4
8002518c:	10000000 	b	80025190 <binary_user_B_start+0x13f0>
80025190:	00000000 	nop
80025194:	1000fff1 	b	8002515c <binary_user_B_start+0x13bc>
80025198:	00696e2e 	0x696e2e
8002519c:	6300636f 	0x6300636f
800251a0:	6e736f6c 	0x6e736f6c
800251a4:	652e6300 	0x652e6300
800251a8:	7072696e 	0x7072696e
800251ac:	742e6300 	jalx	80b98c00 <end+0x798c00>
800251b0:	74686546 	jalx	81a19518 <end+0x1619518>
800251b4:	6174616c 	0x6174616c
800251b8:	4d736700 	0x4d736700
800251bc:	7072696e 	0x7072696e
800251c0:	74662e63 	jalx	8198b98c <end+0x158b98c>
800251c4:	006d796f 	0x6d796f
800251c8:	75747075 	jalx	85d1c1d4 <end+0x591c1d4>
800251cc:	74006c70 	jalx	8001b1c0 <binary_user_check_icode_start+0x4210>
800251d0:	5f507269 	0x5f507269
800251d4:	6e74005f 	0x6e74005f
800251d8:	70616e69 	0x70616e69
800251dc:	63007072 	0x63007072
800251e0:	696e7473 	0x696e7473
800251e4:	74720070 	jalx	81c801c0 <end+0x18801c0>
800251e8:	72696e74 	0x72696e74
800251ec:	66005f66 	0x66005f66
800251f0:	64617461 	0x64617461
800251f4:	005f6770 	0x5f6770
800251f8:	00507269 	0x507269
800251fc:	6e744e75 	0x6e744e75
80025200:	6d007072 	0x6d007072
80025204:	696e7463 	0x696e7463
80025208:	68617263 	0x68617263
8002520c:	005f6674 	0x5f6674
80025210:	65787400 	0x65787400
80025214:	5072696e 	0x5072696e
80025218:	74537472 	jalx	814dd1c8 <end+0x10dd1c8>
8002521c:	696e6700 	0x696e6700
80025220:	5f5f6273 	0x5f5f6273
80025224:	735f7374 	0x735f7374
80025228:	61727400 	0x61727400
8002522c:	6d61696e 	0x6d61696e
80025230:	00507269 	0x507269
80025234:	6e744368 	0x6e744368
80025238:	6172005f 	0x6172005f
8002523c:	65646174 	0x65646174
80025240:	61005f65 	0x61005f65
80025244:	6e640068 	0x6e640068
80025248:	616c7400 	0x616c7400
8002524c:	5f666273 	0x5f666273
80025250:	73000000 	0x73000000

80025254 <binary_user_B_size>:
80025254:	000014b2 	0x14b2
	...

80025260 <KERNEL_SP>:
	...
Disassembly of section .data.stk:

80025270 <KERNEL_STACK>:
	...
Disassembly of section .pdr:

00000000 <.pdr>:
   0:	80010000 	lb	at,0(zero)
	...
  18:	0000001d 	0x1d
  1c:	0000001f 	0x1f
  20:	80000080 	lb	zero,128(zero)
	...
  38:	0000001d 	0x1d
  3c:	0000001d 	0x1d
  40:	80010050 	lb	at,80(zero)
  44:	80000000 	lb	zero,0(zero)
  48:	fffffff8 	0xfffffff8
	...
  54:	00000018 	mult	zero,zero
  58:	0000001d 	0x1d
  5c:	0000001f 	0x1f
  60:	80010110 	lb	at,272(zero)
	...
  78:	0000001d 	0x1d
  7c:	0000001f 	0x1f
  80:	80010174 	lb	at,372(zero)
	...
  98:	0000001d 	0x1d
  9c:	0000001f 	0x1f
  a0:	800101e0 	lb	at,480(zero)
  a4:	80000000 	lb	zero,0(zero)
  a8:	fffffff8 	0xfffffff8
	...
  b4:	00000018 	mult	zero,zero
  b8:	0000001d 	0x1d
  bc:	0000001f 	0x1f
  c0:	80010220 	lb	at,544(zero)
	...
  d8:	0000001d 	0x1d
  dc:	0000001f 	0x1f
  e0:	80010234 	lb	at,564(zero)
	...
  f8:	0000001d 	0x1d
  fc:	0000001f 	0x1f
 100:	80010248 	lb	at,584(zero)
 104:	80010000 	lb	at,0(zero)
 108:	fffffffc 	0xfffffffc
	...
 114:	00000018 	mult	zero,zero
 118:	0000001d 	0x1d
 11c:	0000001f 	0x1f
 120:	80010290 	lb	at,656(zero)
 124:	80000000 	lb	zero,0(zero)
 128:	fffffff8 	0xfffffff8
	...
 134:	00000018 	mult	zero,zero
 138:	0000001d 	0x1d
 13c:	0000001f 	0x1f
 140:	80010318 	lb	at,792(zero)
	...
 158:	0000001d 	0x1d
 15c:	0000001f 	0x1f
 160:	8001034c 	lb	at,844(zero)
 164:	80010000 	lb	at,0(zero)
 168:	fffffffc 	0xfffffffc
	...
 174:	00000018 	mult	zero,zero
 178:	0000001d 	0x1d
 17c:	0000001f 	0x1f
 180:	800103b4 	lb	at,948(zero)
	...
 198:	0000001d 	0x1d
 19c:	0000001f 	0x1f
 1a0:	80010478 	lb	at,1144(zero)
	...
 1b8:	0000001d 	0x1d
 1bc:	0000001f 	0x1f
 1c0:	800104f0 	lb	at,1264(zero)
 1c4:	80010000 	lb	at,0(zero)
 1c8:	fffffffc 	0xfffffffc
	...
 1d4:	00000020 	add	zero,zero,zero
 1d8:	0000001d 	0x1d
 1dc:	0000001f 	0x1f
 1e0:	8001067c 	lb	at,1660(zero)
 1e4:	80070000 	lb	a3,0(zero)
 1e8:	fffffffc 	0xfffffffc
	...
 1f4:	00000020 	add	zero,zero,zero
 1f8:	0000001d 	0x1d
 1fc:	0000001f 	0x1f
 200:	8001073c 	lb	at,1852(zero)
 204:	c0ff0000 	lwc0	$31,0(a3)
 208:	fffffffc 	0xfffffffc
	...
 214:	00000040 	sll	zero,zero,0x1
 218:	0000001d 	0x1d
 21c:	0000001f 	0x1f
 220:	80010aa8 	lb	at,2728(zero)
 224:	80070000 	lb	a3,0(zero)
 228:	fffffffc 	0xfffffffc
	...
 234:	00000030 	0x30
 238:	0000001d 	0x1d
 23c:	0000001f 	0x1f
 240:	80010b30 	lb	at,2864(zero)
 244:	80070000 	lb	a3,0(zero)
 248:	fffffffc 	0xfffffffc
	...
 254:	00000028 	0x28
 258:	0000001d 	0x1d
 25c:	0000001f 	0x1f
 260:	80010bcc 	lb	at,3020(zero)
 264:	80000000 	lb	zero,0(zero)
 268:	fffffff8 	0xfffffff8
	...
 274:	00000018 	mult	zero,zero
 278:	0000001d 	0x1d
 27c:	0000001f 	0x1f
 280:	80010bec 	lb	at,3052(zero)
 284:	c0ff0000 	lwc0	$31,0(a3)
 288:	fffffffc 	0xfffffffc
	...
 294:	00000038 	0x38
 298:	0000001d 	0x1d
 29c:	0000001f 	0x1f
 2a0:	80010e48 	lb	at,3656(zero)
 2a4:	80010000 	lb	at,0(zero)
 2a8:	fffffffc 	0xfffffffc
	...
 2b4:	00000018 	mult	zero,zero
 2b8:	0000001d 	0x1d
 2bc:	0000001f 	0x1f
 2c0:	80010eb4 	lb	at,3764(zero)
 2c4:	80030000 	lb	v1,0(zero)
 2c8:	fffffff8 	0xfffffff8
	...
 2d4:	00000020 	add	zero,zero,zero
 2d8:	0000001d 	0x1d
 2dc:	0000001f 	0x1f
 2e0:	80010f3c 	lb	at,3900(zero)
 2e4:	80010000 	lb	at,0(zero)
 2e8:	fffffffc 	0xfffffffc
	...
 2f4:	00000028 	0x28
 2f8:	0000001d 	0x1d
 2fc:	0000001f 	0x1f
 300:	800114d4 	lb	at,5332(zero)
 304:	80000000 	lb	zero,0(zero)
 308:	fffffff8 	0xfffffff8
	...
 314:	00000020 	add	zero,zero,zero
 318:	0000001d 	0x1d
 31c:	0000001f 	0x1f
 320:	80011f90 	lb	at,8080(zero)
	...
 338:	0000001d 	0x1d
 33c:	0000001f 	0x1f
 340:	80012054 	lb	at,8276(zero)
	...
 358:	0000001d 	0x1d
 35c:	0000001f 	0x1f
 360:	80012160 	lb	at,8544(zero)
	...
 374:	0000009c 	0x9c
 378:	0000001d 	0x1d
 37c:	0000001d 	0x1d
 380:	800122b0 	lb	at,8880(zero)
	...
 398:	0000001d 	0x1d
 39c:	0000001f 	0x1f
 3a0:	800122b0 	lb	at,8880(zero)
	...
 3b8:	0000001d 	0x1d
 3bc:	0000001d 	0x1d
 3c0:	800123a0 	lb	at,9120(zero)
	...
 3d4:	0000009c 	0x9c
 3d8:	0000001d 	0x1d
 3dc:	0000001d 	0x1d
 3e0:	800124e0 	lb	at,9440(zero)
	...
 3f4:	0000009c 	0x9c
 3f8:	0000001d 	0x1d
 3fc:	0000001d 	0x1d
 400:	80012620 	lb	at,9760(zero)
	...
 414:	0000009c 	0x9c
 418:	0000001d 	0x1d
 41c:	0000001d 	0x1d
 420:	80012760 	lb	at,10080(zero)
	...
 438:	0000001d 	0x1d
 43c:	0000001f 	0x1f
 440:	80012780 	lb	at,10112(zero)
 444:	80000000 	lb	zero,0(zero)
 448:	fffffff8 	0xfffffff8
	...
 454:	00000018 	mult	zero,zero
 458:	0000001d 	0x1d
 45c:	0000001f 	0x1f
 460:	800127a0 	lb	at,10144(zero)
	...
 478:	0000001d 	0x1d
 47c:	0000001f 	0x1f
 480:	800127e0 	lb	at,10208(zero)
	...
 498:	0000001d 	0x1d
 49c:	0000001f 	0x1f
 4a0:	800127f8 	lb	at,10232(zero)
 4a4:	c0ff0000 	lwc0	$31,0(a3)
 4a8:	fffffffc 	0xfffffffc
	...
 4b4:	00000040 	sll	zero,zero,0x1
 4b8:	0000001d 	0x1d
 4bc:	0000001f 	0x1f
 4c0:	80012910 	lb	at,10512(zero)
 4c4:	801f0000 	lb	ra,0(zero)
 4c8:	fffffffc 	0xfffffffc
	...
 4d4:	00000420 	0x420
 4d8:	0000001d 	0x1d
 4dc:	0000001f 	0x1f
 4e0:	80012e98 	lb	at,11928(zero)
	...
 4f8:	0000001d 	0x1d
 4fc:	0000001f 	0x1f
 500:	80012f14 	lb	at,12052(zero)
	...
 518:	0000001d 	0x1d
 51c:	0000001f 	0x1f
 520:	80013034 	lb	at,12340(zero)
	...
 538:	0000001d 	0x1d
 53c:	0000001f 	0x1f
 540:	800131d0 	lb	at,12752(zero)
 544:	80070000 	lb	a3,0(zero)
 548:	fffffffc 	0xfffffffc
	...
 554:	00000020 	add	zero,zero,zero
 558:	0000001d 	0x1d
 55c:	0000001f 	0x1f
 560:	80013268 	lb	at,12904(zero)
 564:	80000000 	lb	zero,0(zero)
 568:	fffffff8 	0xfffffff8
	...
 574:	00000020 	add	zero,zero,zero
 578:	0000001d 	0x1d
 57c:	0000001f 	0x1f
 580:	800132a8 	lb	at,12968(zero)
 584:	80010000 	lb	at,0(zero)
 588:	fffffffc 	0xfffffffc
	...
 594:	00000020 	add	zero,zero,zero
 598:	0000001d 	0x1d
 59c:	0000001f 	0x1f
 5a0:	80013310 	lb	at,13072(zero)
 5a4:	80000000 	lb	zero,0(zero)
 5a8:	fffffff8 	0xfffffff8
	...
 5b4:	00000018 	mult	zero,zero
 5b8:	0000001d 	0x1d
 5bc:	0000001f 	0x1f
 5c0:	800134f0 	lb	at,13552(zero)
	...
 5d4:	0000009c 	0x9c
 5d8:	0000001d 	0x1d
 5dc:	0000001d 	0x1d
 5e0:	800136d0 	lb	at,14032(zero)
 5e4:	80000000 	lb	zero,0(zero)
 5e8:	fffffff8 	0xfffffff8
	...
 5f4:	00000018 	mult	zero,zero
 5f8:	0000001d 	0x1d
 5fc:	0000001f 	0x1f
 600:	800136f4 	lb	at,14068(zero)
	...
 618:	0000001d 	0x1d
 61c:	0000001f 	0x1f
 620:	80013728 	lb	at,14120(zero)
	...
 638:	0000001d 	0x1d
 63c:	0000001f 	0x1f
 640:	80013740 	lb	at,14144(zero)
	...
 658:	0000001d 	0x1d
 65c:	0000001f 	0x1f
 660:	80013748 	lb	at,14152(zero)
	...
 678:	0000001d 	0x1d
 67c:	0000001f 	0x1f
 680:	80013750 	lb	at,14160(zero)
	...
 698:	0000001d 	0x1d
 69c:	0000001f 	0x1f
 6a0:	80013758 	lb	at,14168(zero)
	...
 6b8:	0000001d 	0x1d
 6bc:	0000001f 	0x1f
 6c0:	80013760 	lb	at,14176(zero)
	...
 6d8:	0000001d 	0x1d
 6dc:	0000001f 	0x1f
 6e0:	80013768 	lb	at,14184(zero)
	...
 6f8:	0000001d 	0x1d
 6fc:	0000001f 	0x1f
 700:	80013770 	lb	at,14192(zero)
	...
 718:	0000001d 	0x1d
 71c:	0000001f 	0x1f
 720:	80013778 	lb	at,14200(zero)
	...
 738:	0000001d 	0x1d
 73c:	0000001f 	0x1f
 740:	80013780 	lb	at,14208(zero)
	...
 758:	0000001d 	0x1d
 75c:	0000001f 	0x1f
 760:	80013788 	lb	at,14216(zero)
	...
 778:	0000001d 	0x1d
 77c:	0000001f 	0x1f
 780:	80013790 	lb	at,14224(zero)
	...
 798:	0000001d 	0x1d
 79c:	0000001f 	0x1f
 7a0:	80013798 	lb	at,14232(zero)
	...
 7b8:	0000001d 	0x1d
 7bc:	0000001f 	0x1f
 7c0:	800137a0 	lb	at,14240(zero)
 7c4:	80070000 	lb	a3,0(zero)
 7c8:	fffffffc 	0xfffffffc
	...
 7d4:	00000020 	add	zero,zero,zero
 7d8:	0000001d 	0x1d
 7dc:	0000001f 	0x1f
 7e0:	8001383c 	lb	at,14396(zero)
	...
 7f8:	0000001d 	0x1d
 7fc:	0000001f 	0x1f
 800:	80013858 	lb	at,14424(zero)
 804:	80010000 	lb	at,0(zero)
 808:	fffffffc 	0xfffffffc
	...
 814:	000000b8 	0xb8
 818:	0000001d 	0x1d
 81c:	0000001f 	0x1f
 820:	80013910 	lb	at,14608(zero)
 824:	80030000 	lb	v1,0(zero)
 828:	fffffff8 	0xfffffff8
	...
 834:	00000020 	add	zero,zero,zero
 838:	0000001d 	0x1d
 83c:	0000001f 	0x1f
 840:	80013988 	lb	at,14728(zero)
 844:	80010000 	lb	at,0(zero)
 848:	fffffffc 	0xfffffffc
	...
 854:	00000018 	mult	zero,zero
 858:	0000001d 	0x1d
 85c:	0000001f 	0x1f
 860:	80013a50 	lb	at,14928(zero)
 864:	80030000 	lb	v1,0(zero)
 868:	fffffff8 	0xfffffff8
	...
 874:	00000020 	add	zero,zero,zero
 878:	0000001d 	0x1d
 87c:	0000001f 	0x1f
 880:	80013b24 	lb	at,15140(zero)
 884:	80ff0000 	lb	ra,0(a3)
 888:	fffffff8 	0xfffffff8
	...
 894:	00000038 	0x38
 898:	0000001d 	0x1d
 89c:	0000001f 	0x1f
 8a0:	80013be0 	lb	at,15328(zero)
 8a4:	800f0000 	lb	t7,0(zero)
 8a8:	fffffff8 	0xfffffff8
	...
 8b4:	00000030 	0x30
 8b8:	0000001d 	0x1d
 8bc:	0000001f 	0x1f
 8c0:	80013d5c 	lb	at,15708(zero)
 8c4:	80000000 	lb	zero,0(zero)
 8c8:	fffffff8 	0xfffffff8
	...
 8d4:	00000018 	mult	zero,zero
 8d8:	0000001d 	0x1d
 8dc:	0000001f 	0x1f
 8e0:	8001407c 	lb	at,16508(zero)
 8e4:	80030000 	lb	v1,0(zero)
 8e8:	fffffff8 	0xfffffff8
	...
 8f4:	00000020 	add	zero,zero,zero
 8f8:	0000001d 	0x1d
 8fc:	0000001f 	0x1f
 900:	8001416c 	lb	at,16748(zero)
	...
 918:	0000001d 	0x1d
 91c:	0000001f 	0x1f
 920:	800141b0 	lb	at,16816(zero)
 924:	80070000 	lb	a3,0(zero)
 928:	fffffffc 	0xfffffffc
	...
 934:	00000028 	0x28
 938:	0000001d 	0x1d
 93c:	0000001f 	0x1f
 940:	8001430c 	lb	at,17164(zero)
 944:	800f0000 	lb	t7,0(zero)
 948:	fffffff8 	0xfffffff8
	...
 954:	00000030 	0x30
 958:	0000001d 	0x1d
 95c:	0000001f 	0x1f
 960:	800144c4 	lb	at,17604(zero)
 964:	80010000 	lb	at,0(zero)
 968:	fffffffc 	0xfffffffc
	...
 974:	00000020 	add	zero,zero,zero
 978:	0000001d 	0x1d
 97c:	0000001f 	0x1f
 980:	80014568 	lb	at,17768(zero)
 984:	80000000 	lb	zero,0(zero)
 988:	fffffff8 	0xfffffff8
	...
 994:	00000018 	mult	zero,zero
 998:	0000001d 	0x1d
 99c:	0000001f 	0x1f
 9a0:	800145a0 	lb	at,17824(zero)
 9a4:	80030000 	lb	v1,0(zero)
 9a8:	fffffff8 	0xfffffff8
	...
 9b4:	00000028 	0x28
 9b8:	0000001d 	0x1d
 9bc:	0000001f 	0x1f
 9c0:	80014614 	lb	at,17940(zero)
 9c4:	80000000 	lb	zero,0(zero)
 9c8:	fffffff8 	0xfffffff8
	...
 9d4:	00000018 	mult	zero,zero
 9d8:	0000001d 	0x1d
 9dc:	0000001f 	0x1f
 9e0:	80014670 	lb	at,18032(zero)
 9e4:	80030000 	lb	v1,0(zero)
 9e8:	fffffff8 	0xfffffff8
	...
 9f4:	00000088 	0x88
 9f8:	0000001d 	0x1d
 9fc:	0000001f 	0x1f
 a00:	80014c5c 	lb	at,19548(zero)
 a04:	80030000 	lb	v1,0(zero)
 a08:	fffffff8 	0xfffffff8
	...
 a14:	00000030 	0x30
 a18:	0000001d 	0x1d
 a1c:	0000001f 	0x1f
 a20:	80015b28 	lb	at,23336(zero)
 a24:	80030000 	lb	v1,0(zero)
 a28:	fffffff8 	0xfffffff8
	...
 a34:	00000028 	0x28
 a38:	0000001d 	0x1d
 a3c:	0000001f 	0x1f
 a40:	80015c20 	lb	at,23584(zero)
	...
 a58:	0000001d 	0x1d
 a5c:	0000001f 	0x1f
Disassembly of section .comment:

00000000 <.comment>:
   0:	00474343 	0x474343
   4:	3a202847 	xori	zero,s1,0x2847
   8:	4e552920 	c3	0x552920
   c:	342e302e 	ori	t6,at,0x302e
  10:	30202844 	andi	zero,at,0x2844
  14:	454e5820 	0x454e5820
  18:	454c444b 	0x454c444b
  1c:	20342e31 	addi	s4,at,11825
  20:	20342e30 	addi	s4,at,11824
  24:	2e302900 	sltiu	s0,s1,10496
  28:	00474343 	0x474343
  2c:	3a202847 	xori	zero,s1,0x2847
  30:	4e552920 	c3	0x552920
  34:	342e302e 	ori	t6,at,0x302e
  38:	30202844 	andi	zero,at,0x2844
  3c:	454e5820 	0x454e5820
  40:	454c444b 	0x454c444b
  44:	20342e31 	addi	s4,at,11825
  48:	20342e30 	addi	s4,at,11824
  4c:	2e302900 	sltiu	s0,s1,10496
  50:	00474343 	0x474343
  54:	3a202847 	xori	zero,s1,0x2847
  58:	4e552920 	c3	0x552920
  5c:	342e302e 	ori	t6,at,0x302e
  60:	30202844 	andi	zero,at,0x2844
  64:	454e5820 	0x454e5820
  68:	454c444b 	0x454c444b
  6c:	20342e31 	addi	s4,at,11825
  70:	20342e30 	addi	s4,at,11824
  74:	2e302900 	sltiu	s0,s1,10496
  78:	00474343 	0x474343
  7c:	3a202847 	xori	zero,s1,0x2847
  80:	4e552920 	c3	0x552920
  84:	342e302e 	ori	t6,at,0x302e
  88:	30202844 	andi	zero,at,0x2844
  8c:	454e5820 	0x454e5820
  90:	454c444b 	0x454c444b
  94:	20342e31 	addi	s4,at,11825
  98:	20342e30 	addi	s4,at,11824
  9c:	2e302900 	sltiu	s0,s1,10496
  a0:	00474343 	0x474343
  a4:	3a202847 	xori	zero,s1,0x2847
  a8:	4e552920 	c3	0x552920
  ac:	342e302e 	ori	t6,at,0x302e
  b0:	30202844 	andi	zero,at,0x2844
  b4:	454e5820 	0x454e5820
  b8:	454c444b 	0x454c444b
  bc:	20342e31 	addi	s4,at,11825
  c0:	20342e30 	addi	s4,at,11824
  c4:	2e302900 	sltiu	s0,s1,10496
  c8:	00474343 	0x474343
  cc:	3a202847 	xori	zero,s1,0x2847
  d0:	4e552920 	c3	0x552920
  d4:	342e302e 	ori	t6,at,0x302e
  d8:	30202844 	andi	zero,at,0x2844
  dc:	454e5820 	0x454e5820
  e0:	454c444b 	0x454c444b
  e4:	20342e31 	addi	s4,at,11825
  e8:	20342e30 	addi	s4,at,11824
  ec:	2e302900 	sltiu	s0,s1,10496
  f0:	00474343 	0x474343
  f4:	3a202847 	xori	zero,s1,0x2847
  f8:	4e552920 	c3	0x552920
  fc:	342e302e 	ori	t6,at,0x302e
 100:	30202844 	andi	zero,at,0x2844
 104:	454e5820 	0x454e5820
 108:	454c444b 	0x454c444b
 10c:	20342e31 	addi	s4,at,11825
 110:	20342e30 	addi	s4,at,11824
 114:	2e302900 	sltiu	s0,s1,10496
 118:	00474343 	0x474343
 11c:	3a202847 	xori	zero,s1,0x2847
 120:	4e552920 	c3	0x552920
 124:	342e302e 	ori	t6,at,0x302e
 128:	30202844 	andi	zero,at,0x2844
 12c:	454e5820 	0x454e5820
 130:	454c444b 	0x454c444b
 134:	20342e31 	addi	s4,at,11825
 138:	20342e30 	addi	s4,at,11824
 13c:	2e302900 	sltiu	s0,s1,10496
 140:	00474343 	0x474343
 144:	3a202847 	xori	zero,s1,0x2847
 148:	4e552920 	c3	0x552920
 14c:	342e302e 	ori	t6,at,0x302e
 150:	30202844 	andi	zero,at,0x2844
 154:	454e5820 	0x454e5820
 158:	454c444b 	0x454c444b
 15c:	20342e31 	addi	s4,at,11825
 160:	20342e30 	addi	s4,at,11824
 164:	2e302900 	sltiu	s0,s1,10496
 168:	00474343 	0x474343
 16c:	3a202847 	xori	zero,s1,0x2847
 170:	4e552920 	c3	0x552920
 174:	342e302e 	ori	t6,at,0x302e
 178:	30202844 	andi	zero,at,0x2844
 17c:	454e5820 	0x454e5820
 180:	454c444b 	0x454c444b
 184:	20342e31 	addi	s4,at,11825
 188:	20342e30 	addi	s4,at,11824
 18c:	2e302900 	sltiu	s0,s1,10496
 190:	00474343 	0x474343
 194:	3a202847 	xori	zero,s1,0x2847
 198:	4e552920 	c3	0x552920
 19c:	342e302e 	ori	t6,at,0x302e
 1a0:	30202844 	andi	zero,at,0x2844
 1a4:	454e5820 	0x454e5820
 1a8:	454c444b 	0x454c444b
 1ac:	20342e31 	addi	s4,at,11825
 1b0:	20342e30 	addi	s4,at,11824
 1b4:	2e302900 	sltiu	s0,s1,10496
 1b8:	00474343 	0x474343
 1bc:	3a202847 	xori	zero,s1,0x2847
 1c0:	4e552920 	c3	0x552920
 1c4:	342e302e 	ori	t6,at,0x302e
 1c8:	30202844 	andi	zero,at,0x2844
 1cc:	454e5820 	0x454e5820
 1d0:	454c444b 	0x454c444b
 1d4:	20342e31 	addi	s4,at,11825
 1d8:	20342e30 	addi	s4,at,11824
 1dc:	2e302900 	sltiu	s0,s1,10496
 1e0:	00474343 	0x474343
 1e4:	3a202847 	xori	zero,s1,0x2847
 1e8:	4e552920 	c3	0x552920
 1ec:	342e302e 	ori	t6,at,0x302e
 1f0:	30202844 	andi	zero,at,0x2844
 1f4:	454e5820 	0x454e5820
 1f8:	454c444b 	0x454c444b
 1fc:	20342e31 	addi	s4,at,11825
 200:	20342e30 	addi	s4,at,11824
 204:	2e302900 	sltiu	s0,s1,10496
 208:	00474343 	0x474343
 20c:	3a202847 	xori	zero,s1,0x2847
 210:	4e552920 	c3	0x552920
 214:	342e302e 	ori	t6,at,0x302e
 218:	30202844 	andi	zero,at,0x2844
 21c:	454e5820 	0x454e5820
 220:	454c444b 	0x454c444b
 224:	20342e31 	addi	s4,at,11825
 228:	20342e30 	addi	s4,at,11824
 22c:	2e302900 	sltiu	s0,s1,10496
 230:	00474343 	0x474343
 234:	3a202847 	xori	zero,s1,0x2847
 238:	4e552920 	c3	0x552920
 23c:	342e302e 	ori	t6,at,0x302e
 240:	30202844 	andi	zero,at,0x2844
 244:	454e5820 	0x454e5820
 248:	454c444b 	0x454c444b
 24c:	20342e31 	addi	s4,at,11825
 250:	20342e30 	addi	s4,at,11824
 254:	2e302900 	sltiu	s0,s1,10496
